
;CodeVisionAVR C Compiler V2.05.0 Professional
;(C) Copyright 1998-2010 Pavel Haiduc, HP InfoTech s.r.l.
;http://www.hpinfotech.com

;Chip type                : ATmega128
;Program type             : Application
;Clock frequency          : 16,000000 MHz
;Memory model             : Small
;Optimize for             : Size
;(s)printf features       : int, width
;(s)scanf features        : int, width
;External RAM size        : 0
;Data Stack size          : 1024 byte(s)
;Heap size                : 0 byte(s)
;Promote 'char' to 'int'  : Yes
;'char' is unsigned       : Yes
;8 bit enums              : Yes
;global 'const' stored in FLASH: No
;Enhanced core instructions    : On
;Smart register allocation     : On
;Automatic register allocation : On

	#pragma AVRPART ADMIN PART_NAME ATmega128
	#pragma AVRPART MEMORY PROG_FLASH 131072
	#pragma AVRPART MEMORY EEPROM 4096
	#pragma AVRPART MEMORY INT_SRAM SIZE 4351
	#pragma AVRPART MEMORY INT_SRAM START_ADDR 0x100

	#define CALL_SUPPORTED 1

	.LISTMAC
	.EQU UDRE=0x5
	.EQU RXC=0x7
	.EQU USR=0xB
	.EQU UDR=0xC
	.EQU SPSR=0xE
	.EQU SPDR=0xF
	.EQU EERE=0x0
	.EQU EEWE=0x1
	.EQU EEMWE=0x2
	.EQU EECR=0x1C
	.EQU EEDR=0x1D
	.EQU EEARL=0x1E
	.EQU EEARH=0x1F
	.EQU WDTCR=0x21
	.EQU MCUCR=0x35
	.EQU RAMPZ=0x3B
	.EQU SPL=0x3D
	.EQU SPH=0x3E
	.EQU SREG=0x3F
	.EQU XMCRA=0x6D
	.EQU XMCRB=0x6C

	.DEF R0X0=R0
	.DEF R0X1=R1
	.DEF R0X2=R2
	.DEF R0X3=R3
	.DEF R0X4=R4
	.DEF R0X5=R5
	.DEF R0X6=R6
	.DEF R0X7=R7
	.DEF R0X8=R8
	.DEF R0X9=R9
	.DEF R0XA=R10
	.DEF R0XB=R11
	.DEF R0XC=R12
	.DEF R0XD=R13
	.DEF R0XE=R14
	.DEF R0XF=R15
	.DEF R0X10=R16
	.DEF R0X11=R17
	.DEF R0X12=R18
	.DEF R0X13=R19
	.DEF R0X14=R20
	.DEF R0X15=R21
	.DEF R0X16=R22
	.DEF R0X17=R23
	.DEF R0X18=R24
	.DEF R0X19=R25
	.DEF R0X1A=R26
	.DEF R0X1B=R27
	.DEF R0X1C=R28
	.DEF R0X1D=R29
	.DEF R0X1E=R30
	.DEF R0X1F=R31

	.EQU __SRAM_START=0x0100
	.EQU __SRAM_END=0x10FF
	.EQU __DSTACK_SIZE=0x0400
	.EQU __HEAP_SIZE=0x0000
	.EQU __CLEAR_SRAM_SIZE=__SRAM_END-__SRAM_START+1

	.MACRO __CPD1N
	CPI  R30,LOW(@0)
	LDI  R26,HIGH(@0)
	CPC  R31,R26
	LDI  R26,BYTE3(@0)
	CPC  R22,R26
	LDI  R26,BYTE4(@0)
	CPC  R23,R26
	.ENDM

	.MACRO __CPD2N
	CPI  R26,LOW(@0)
	LDI  R30,HIGH(@0)
	CPC  R27,R30
	LDI  R30,BYTE3(@0)
	CPC  R24,R30
	LDI  R30,BYTE4(@0)
	CPC  R25,R30
	.ENDM

	.MACRO __CPWRR
	CP   R@0,R@2
	CPC  R@1,R@3
	.ENDM

	.MACRO __CPWRN
	CPI  R@0,LOW(@2)
	LDI  R30,HIGH(@2)
	CPC  R@1,R30
	.ENDM

	.MACRO __ADDB1MN
	SUBI R30,LOW(-@0-(@1))
	.ENDM

	.MACRO __ADDB2MN
	SUBI R26,LOW(-@0-(@1))
	.ENDM

	.MACRO __ADDW1MN
	SUBI R30,LOW(-@0-(@1))
	SBCI R31,HIGH(-@0-(@1))
	.ENDM

	.MACRO __ADDW2MN
	SUBI R26,LOW(-@0-(@1))
	SBCI R27,HIGH(-@0-(@1))
	.ENDM

	.MACRO __ADDW1FN
	SUBI R30,LOW(-2*@0-(@1))
	SBCI R31,HIGH(-2*@0-(@1))
	.ENDM

	.MACRO __ADDD1FN
	SUBI R30,LOW(-2*@0-(@1))
	SBCI R31,HIGH(-2*@0-(@1))
	SBCI R22,BYTE3(-2*@0-(@1))
	.ENDM

	.MACRO __ADDD1N
	SUBI R30,LOW(-@0)
	SBCI R31,HIGH(-@0)
	SBCI R22,BYTE3(-@0)
	SBCI R23,BYTE4(-@0)
	.ENDM

	.MACRO __ADDD2N
	SUBI R26,LOW(-@0)
	SBCI R27,HIGH(-@0)
	SBCI R24,BYTE3(-@0)
	SBCI R25,BYTE4(-@0)
	.ENDM

	.MACRO __SUBD1N
	SUBI R30,LOW(@0)
	SBCI R31,HIGH(@0)
	SBCI R22,BYTE3(@0)
	SBCI R23,BYTE4(@0)
	.ENDM

	.MACRO __SUBD2N
	SUBI R26,LOW(@0)
	SBCI R27,HIGH(@0)
	SBCI R24,BYTE3(@0)
	SBCI R25,BYTE4(@0)
	.ENDM

	.MACRO __ANDBMNN
	LDS  R30,@0+(@1)
	ANDI R30,LOW(@2)
	STS  @0+(@1),R30
	.ENDM

	.MACRO __ANDWMNN
	LDS  R30,@0+(@1)
	ANDI R30,LOW(@2)
	STS  @0+(@1),R30
	LDS  R30,@0+(@1)+1
	ANDI R30,HIGH(@2)
	STS  @0+(@1)+1,R30
	.ENDM

	.MACRO __ANDD1N
	ANDI R30,LOW(@0)
	ANDI R31,HIGH(@0)
	ANDI R22,BYTE3(@0)
	ANDI R23,BYTE4(@0)
	.ENDM

	.MACRO __ANDD2N
	ANDI R26,LOW(@0)
	ANDI R27,HIGH(@0)
	ANDI R24,BYTE3(@0)
	ANDI R25,BYTE4(@0)
	.ENDM

	.MACRO __ORBMNN
	LDS  R30,@0+(@1)
	ORI  R30,LOW(@2)
	STS  @0+(@1),R30
	.ENDM

	.MACRO __ORWMNN
	LDS  R30,@0+(@1)
	ORI  R30,LOW(@2)
	STS  @0+(@1),R30
	LDS  R30,@0+(@1)+1
	ORI  R30,HIGH(@2)
	STS  @0+(@1)+1,R30
	.ENDM

	.MACRO __ORD1N
	ORI  R30,LOW(@0)
	ORI  R31,HIGH(@0)
	ORI  R22,BYTE3(@0)
	ORI  R23,BYTE4(@0)
	.ENDM

	.MACRO __ORD2N
	ORI  R26,LOW(@0)
	ORI  R27,HIGH(@0)
	ORI  R24,BYTE3(@0)
	ORI  R25,BYTE4(@0)
	.ENDM

	.MACRO __DELAY_USB
	LDI  R24,LOW(@0)
__DELAY_USB_LOOP:
	DEC  R24
	BRNE __DELAY_USB_LOOP
	.ENDM

	.MACRO __DELAY_USW
	LDI  R24,LOW(@0)
	LDI  R25,HIGH(@0)
__DELAY_USW_LOOP:
	SBIW R24,1
	BRNE __DELAY_USW_LOOP
	.ENDM

	.MACRO __GETD1S
	LDD  R30,Y+@0
	LDD  R31,Y+@0+1
	LDD  R22,Y+@0+2
	LDD  R23,Y+@0+3
	.ENDM

	.MACRO __GETD2S
	LDD  R26,Y+@0
	LDD  R27,Y+@0+1
	LDD  R24,Y+@0+2
	LDD  R25,Y+@0+3
	.ENDM

	.MACRO __PUTD1S
	STD  Y+@0,R30
	STD  Y+@0+1,R31
	STD  Y+@0+2,R22
	STD  Y+@0+3,R23
	.ENDM

	.MACRO __PUTD2S
	STD  Y+@0,R26
	STD  Y+@0+1,R27
	STD  Y+@0+2,R24
	STD  Y+@0+3,R25
	.ENDM

	.MACRO __PUTDZ2
	STD  Z+@0,R26
	STD  Z+@0+1,R27
	STD  Z+@0+2,R24
	STD  Z+@0+3,R25
	.ENDM

	.MACRO __CLRD1S
	STD  Y+@0,R30
	STD  Y+@0+1,R30
	STD  Y+@0+2,R30
	STD  Y+@0+3,R30
	.ENDM

	.MACRO __POINTB1MN
	LDI  R30,LOW(@0+(@1))
	.ENDM

	.MACRO __POINTW1MN
	LDI  R30,LOW(@0+(@1))
	LDI  R31,HIGH(@0+(@1))
	.ENDM

	.MACRO __POINTD1M
	LDI  R30,LOW(@0)
	LDI  R31,HIGH(@0)
	LDI  R22,BYTE3(@0)
	LDI  R23,BYTE4(@0)
	.ENDM

	.MACRO __POINTW1FN
	LDI  R30,LOW(2*@0+(@1))
	LDI  R31,HIGH(2*@0+(@1))
	.ENDM

	.MACRO __POINTD1FN
	LDI  R30,LOW(2*@0+(@1))
	LDI  R31,HIGH(2*@0+(@1))
	LDI  R22,BYTE3(2*@0+(@1))
	LDI  R23,BYTE4(2*@0+(@1))
	.ENDM

	.MACRO __POINTB2MN
	LDI  R26,LOW(@0+(@1))
	.ENDM

	.MACRO __POINTW2MN
	LDI  R26,LOW(@0+(@1))
	LDI  R27,HIGH(@0+(@1))
	.ENDM

	.MACRO __POINTBRM
	LDI  R@0,LOW(@1)
	.ENDM

	.MACRO __POINTWRM
	LDI  R@0,LOW(@2)
	LDI  R@1,HIGH(@2)
	.ENDM

	.MACRO __POINTBRMN
	LDI  R@0,LOW(@1+(@2))
	.ENDM

	.MACRO __POINTWRMN
	LDI  R@0,LOW(@2+(@3))
	LDI  R@1,HIGH(@2+(@3))
	.ENDM

	.MACRO __POINTWRFN
	LDI  R@0,LOW(@2*2+(@3))
	LDI  R@1,HIGH(@2*2+(@3))
	.ENDM

	.MACRO __GETD1N
	LDI  R30,LOW(@0)
	LDI  R31,HIGH(@0)
	LDI  R22,BYTE3(@0)
	LDI  R23,BYTE4(@0)
	.ENDM

	.MACRO __GETD2N
	LDI  R26,LOW(@0)
	LDI  R27,HIGH(@0)
	LDI  R24,BYTE3(@0)
	LDI  R25,BYTE4(@0)
	.ENDM

	.MACRO __GETB1MN
	LDS  R30,@0+(@1)
	.ENDM

	.MACRO __GETB1HMN
	LDS  R31,@0+(@1)
	.ENDM

	.MACRO __GETW1MN
	LDS  R30,@0+(@1)
	LDS  R31,@0+(@1)+1
	.ENDM

	.MACRO __GETD1MN
	LDS  R30,@0+(@1)
	LDS  R31,@0+(@1)+1
	LDS  R22,@0+(@1)+2
	LDS  R23,@0+(@1)+3
	.ENDM

	.MACRO __GETBRMN
	LDS  R@0,@1+(@2)
	.ENDM

	.MACRO __GETWRMN
	LDS  R@0,@2+(@3)
	LDS  R@1,@2+(@3)+1
	.ENDM

	.MACRO __GETWRZ
	LDD  R@0,Z+@2
	LDD  R@1,Z+@2+1
	.ENDM

	.MACRO __GETD2Z
	LDD  R26,Z+@0
	LDD  R27,Z+@0+1
	LDD  R24,Z+@0+2
	LDD  R25,Z+@0+3
	.ENDM

	.MACRO __GETB2MN
	LDS  R26,@0+(@1)
	.ENDM

	.MACRO __GETW2MN
	LDS  R26,@0+(@1)
	LDS  R27,@0+(@1)+1
	.ENDM

	.MACRO __GETD2MN
	LDS  R26,@0+(@1)
	LDS  R27,@0+(@1)+1
	LDS  R24,@0+(@1)+2
	LDS  R25,@0+(@1)+3
	.ENDM

	.MACRO __PUTB1MN
	STS  @0+(@1),R30
	.ENDM

	.MACRO __PUTW1MN
	STS  @0+(@1),R30
	STS  @0+(@1)+1,R31
	.ENDM

	.MACRO __PUTD1MN
	STS  @0+(@1),R30
	STS  @0+(@1)+1,R31
	STS  @0+(@1)+2,R22
	STS  @0+(@1)+3,R23
	.ENDM

	.MACRO __PUTB1EN
	LDI  R26,LOW(@0+(@1))
	LDI  R27,HIGH(@0+(@1))
	CALL __EEPROMWRB
	.ENDM

	.MACRO __PUTW1EN
	LDI  R26,LOW(@0+(@1))
	LDI  R27,HIGH(@0+(@1))
	CALL __EEPROMWRW
	.ENDM

	.MACRO __PUTD1EN
	LDI  R26,LOW(@0+(@1))
	LDI  R27,HIGH(@0+(@1))
	CALL __EEPROMWRD
	.ENDM

	.MACRO __PUTBR0MN
	STS  @0+(@1),R0
	.ENDM

	.MACRO __PUTBMRN
	STS  @0+(@1),R@2
	.ENDM

	.MACRO __PUTWMRN
	STS  @0+(@1),R@2
	STS  @0+(@1)+1,R@3
	.ENDM

	.MACRO __PUTBZR
	STD  Z+@1,R@0
	.ENDM

	.MACRO __PUTWZR
	STD  Z+@2,R@0
	STD  Z+@2+1,R@1
	.ENDM

	.MACRO __GETW1R
	MOV  R30,R@0
	MOV  R31,R@1
	.ENDM

	.MACRO __GETW2R
	MOV  R26,R@0
	MOV  R27,R@1
	.ENDM

	.MACRO __GETWRN
	LDI  R@0,LOW(@2)
	LDI  R@1,HIGH(@2)
	.ENDM

	.MACRO __PUTW1R
	MOV  R@0,R30
	MOV  R@1,R31
	.ENDM

	.MACRO __PUTW2R
	MOV  R@0,R26
	MOV  R@1,R27
	.ENDM

	.MACRO __ADDWRN
	SUBI R@0,LOW(-@2)
	SBCI R@1,HIGH(-@2)
	.ENDM

	.MACRO __ADDWRR
	ADD  R@0,R@2
	ADC  R@1,R@3
	.ENDM

	.MACRO __SUBWRN
	SUBI R@0,LOW(@2)
	SBCI R@1,HIGH(@2)
	.ENDM

	.MACRO __SUBWRR
	SUB  R@0,R@2
	SBC  R@1,R@3
	.ENDM

	.MACRO __ANDWRN
	ANDI R@0,LOW(@2)
	ANDI R@1,HIGH(@2)
	.ENDM

	.MACRO __ANDWRR
	AND  R@0,R@2
	AND  R@1,R@3
	.ENDM

	.MACRO __ORWRN
	ORI  R@0,LOW(@2)
	ORI  R@1,HIGH(@2)
	.ENDM

	.MACRO __ORWRR
	OR   R@0,R@2
	OR   R@1,R@3
	.ENDM

	.MACRO __EORWRR
	EOR  R@0,R@2
	EOR  R@1,R@3
	.ENDM

	.MACRO __GETWRS
	LDD  R@0,Y+@2
	LDD  R@1,Y+@2+1
	.ENDM

	.MACRO __PUTBSR
	STD  Y+@1,R@0
	.ENDM

	.MACRO __PUTWSR
	STD  Y+@2,R@0
	STD  Y+@2+1,R@1
	.ENDM

	.MACRO __MOVEWRR
	MOV  R@0,R@2
	MOV  R@1,R@3
	.ENDM

	.MACRO __INWR
	IN   R@0,@2
	IN   R@1,@2+1
	.ENDM

	.MACRO __OUTWR
	OUT  @2+1,R@1
	OUT  @2,R@0
	.ENDM

	.MACRO __CALL1MN
	LDS  R30,@0+(@1)
	LDS  R31,@0+(@1)+1
	ICALL
	.ENDM

	.MACRO __CALL1FN
	LDI  R30,LOW(2*@0+(@1))
	LDI  R31,HIGH(2*@0+(@1))
	CALL __GETW1PF
	ICALL
	.ENDM

	.MACRO __CALL2EN
	LDI  R26,LOW(@0+(@1))
	LDI  R27,HIGH(@0+(@1))
	CALL __EEPROMRDW
	ICALL
	.ENDM

	.MACRO __GETW1STACK
	IN   R26,SPL
	IN   R27,SPH
	ADIW R26,@0+1
	LD   R30,X+
	LD   R31,X
	.ENDM

	.MACRO __GETD1STACK
	IN   R26,SPL
	IN   R27,SPH
	ADIW R26,@0+1
	LD   R30,X+
	LD   R31,X+
	LD   R22,X
	.ENDM

	.MACRO __NBST
	BST  R@0,@1
	IN   R30,SREG
	LDI  R31,0x40
	EOR  R30,R31
	OUT  SREG,R30
	.ENDM


	.MACRO __PUTB1SN
	LDD  R26,Y+@0
	LDD  R27,Y+@0+1
	SUBI R26,LOW(-@1)
	SBCI R27,HIGH(-@1)
	ST   X,R30
	.ENDM

	.MACRO __PUTW1SN
	LDD  R26,Y+@0
	LDD  R27,Y+@0+1
	SUBI R26,LOW(-@1)
	SBCI R27,HIGH(-@1)
	ST   X+,R30
	ST   X,R31
	.ENDM

	.MACRO __PUTD1SN
	LDD  R26,Y+@0
	LDD  R27,Y+@0+1
	SUBI R26,LOW(-@1)
	SBCI R27,HIGH(-@1)
	CALL __PUTDP1
	.ENDM

	.MACRO __PUTB1SNS
	LDD  R26,Y+@0
	LDD  R27,Y+@0+1
	ADIW R26,@1
	ST   X,R30
	.ENDM

	.MACRO __PUTW1SNS
	LDD  R26,Y+@0
	LDD  R27,Y+@0+1
	ADIW R26,@1
	ST   X+,R30
	ST   X,R31
	.ENDM

	.MACRO __PUTD1SNS
	LDD  R26,Y+@0
	LDD  R27,Y+@0+1
	ADIW R26,@1
	CALL __PUTDP1
	.ENDM

	.MACRO __PUTB1PMN
	LDS  R26,@0
	LDS  R27,@0+1
	SUBI R26,LOW(-@1)
	SBCI R27,HIGH(-@1)
	ST   X,R30
	.ENDM

	.MACRO __PUTW1PMN
	LDS  R26,@0
	LDS  R27,@0+1
	SUBI R26,LOW(-@1)
	SBCI R27,HIGH(-@1)
	ST   X+,R30
	ST   X,R31
	.ENDM

	.MACRO __PUTD1PMN
	LDS  R26,@0
	LDS  R27,@0+1
	SUBI R26,LOW(-@1)
	SBCI R27,HIGH(-@1)
	CALL __PUTDP1
	.ENDM

	.MACRO __PUTB1PMNS
	LDS  R26,@0
	LDS  R27,@0+1
	ADIW R26,@1
	ST   X,R30
	.ENDM

	.MACRO __PUTW1PMNS
	LDS  R26,@0
	LDS  R27,@0+1
	ADIW R26,@1
	ST   X+,R30
	ST   X,R31
	.ENDM

	.MACRO __PUTD1PMNS
	LDS  R26,@0
	LDS  R27,@0+1
	ADIW R26,@1
	CALL __PUTDP1
	.ENDM

	.MACRO __PUTB1RN
	MOVW R26,R@0
	SUBI R26,LOW(-@1)
	SBCI R27,HIGH(-@1)
	ST   X,R30
	.ENDM

	.MACRO __PUTW1RN
	MOVW R26,R@0
	SUBI R26,LOW(-@1)
	SBCI R27,HIGH(-@1)
	ST   X+,R30
	ST   X,R31
	.ENDM

	.MACRO __PUTD1RN
	MOVW R26,R@0
	SUBI R26,LOW(-@1)
	SBCI R27,HIGH(-@1)
	CALL __PUTDP1
	.ENDM

	.MACRO __PUTB1RNS
	MOVW R26,R@0
	ADIW R26,@1
	ST   X,R30
	.ENDM

	.MACRO __PUTW1RNS
	MOVW R26,R@0
	ADIW R26,@1
	ST   X+,R30
	ST   X,R31
	.ENDM

	.MACRO __PUTD1RNS
	MOVW R26,R@0
	ADIW R26,@1
	CALL __PUTDP1
	.ENDM

	.MACRO __PUTB1RON
	MOV  R26,R@0
	MOV  R27,R@1
	SUBI R26,LOW(-@2)
	SBCI R27,HIGH(-@2)
	ST   X,R30
	.ENDM

	.MACRO __PUTW1RON
	MOV  R26,R@0
	MOV  R27,R@1
	SUBI R26,LOW(-@2)
	SBCI R27,HIGH(-@2)
	ST   X+,R30
	ST   X,R31
	.ENDM

	.MACRO __PUTD1RON
	MOV  R26,R@0
	MOV  R27,R@1
	SUBI R26,LOW(-@2)
	SBCI R27,HIGH(-@2)
	CALL __PUTDP1
	.ENDM

	.MACRO __PUTB1RONS
	MOV  R26,R@0
	MOV  R27,R@1
	ADIW R26,@2
	ST   X,R30
	.ENDM

	.MACRO __PUTW1RONS
	MOV  R26,R@0
	MOV  R27,R@1
	ADIW R26,@2
	ST   X+,R30
	ST   X,R31
	.ENDM

	.MACRO __PUTD1RONS
	MOV  R26,R@0
	MOV  R27,R@1
	ADIW R26,@2
	CALL __PUTDP1
	.ENDM


	.MACRO __GETB1SX
	MOVW R30,R28
	SUBI R30,LOW(-@0)
	SBCI R31,HIGH(-@0)
	LD   R30,Z
	.ENDM

	.MACRO __GETB1HSX
	MOVW R30,R28
	SUBI R30,LOW(-@0)
	SBCI R31,HIGH(-@0)
	LD   R31,Z
	.ENDM

	.MACRO __GETW1SX
	MOVW R30,R28
	SUBI R30,LOW(-@0)
	SBCI R31,HIGH(-@0)
	LD   R0,Z+
	LD   R31,Z
	MOV  R30,R0
	.ENDM

	.MACRO __GETD1SX
	MOVW R30,R28
	SUBI R30,LOW(-@0)
	SBCI R31,HIGH(-@0)
	LD   R0,Z+
	LD   R1,Z+
	LD   R22,Z+
	LD   R23,Z
	MOVW R30,R0
	.ENDM

	.MACRO __GETB2SX
	MOVW R26,R28
	SUBI R26,LOW(-@0)
	SBCI R27,HIGH(-@0)
	LD   R26,X
	.ENDM

	.MACRO __GETW2SX
	MOVW R26,R28
	SUBI R26,LOW(-@0)
	SBCI R27,HIGH(-@0)
	LD   R0,X+
	LD   R27,X
	MOV  R26,R0
	.ENDM

	.MACRO __GETD2SX
	MOVW R26,R28
	SUBI R26,LOW(-@0)
	SBCI R27,HIGH(-@0)
	LD   R0,X+
	LD   R1,X+
	LD   R24,X+
	LD   R25,X
	MOVW R26,R0
	.ENDM

	.MACRO __GETBRSX
	MOVW R30,R28
	SUBI R30,LOW(-@1)
	SBCI R31,HIGH(-@1)
	LD   R@0,Z
	.ENDM

	.MACRO __GETWRSX
	MOVW R30,R28
	SUBI R30,LOW(-@2)
	SBCI R31,HIGH(-@2)
	LD   R@0,Z+
	LD   R@1,Z
	.ENDM

	.MACRO __GETBRSX2
	MOVW R26,R28
	SUBI R26,LOW(-@1)
	SBCI R27,HIGH(-@1)
	LD   R@0,X
	.ENDM

	.MACRO __GETWRSX2
	MOVW R26,R28
	SUBI R26,LOW(-@2)
	SBCI R27,HIGH(-@2)
	LD   R@0,X+
	LD   R@1,X
	.ENDM

	.MACRO __LSLW8SX
	MOVW R30,R28
	SUBI R30,LOW(-@0)
	SBCI R31,HIGH(-@0)
	LD   R31,Z
	CLR  R30
	.ENDM

	.MACRO __PUTB1SX
	MOVW R26,R28
	SUBI R26,LOW(-@0)
	SBCI R27,HIGH(-@0)
	ST   X,R30
	.ENDM

	.MACRO __PUTW1SX
	MOVW R26,R28
	SUBI R26,LOW(-@0)
	SBCI R27,HIGH(-@0)
	ST   X+,R30
	ST   X,R31
	.ENDM

	.MACRO __PUTD1SX
	MOVW R26,R28
	SUBI R26,LOW(-@0)
	SBCI R27,HIGH(-@0)
	ST   X+,R30
	ST   X+,R31
	ST   X+,R22
	ST   X,R23
	.ENDM

	.MACRO __CLRW1SX
	MOVW R26,R28
	SUBI R26,LOW(-@0)
	SBCI R27,HIGH(-@0)
	ST   X+,R30
	ST   X,R30
	.ENDM

	.MACRO __CLRD1SX
	MOVW R26,R28
	SUBI R26,LOW(-@0)
	SBCI R27,HIGH(-@0)
	ST   X+,R30
	ST   X+,R30
	ST   X+,R30
	ST   X,R30
	.ENDM

	.MACRO __PUTB2SX
	MOVW R30,R28
	SUBI R30,LOW(-@0)
	SBCI R31,HIGH(-@0)
	ST   Z,R26
	.ENDM

	.MACRO __PUTW2SX
	MOVW R30,R28
	SUBI R30,LOW(-@0)
	SBCI R31,HIGH(-@0)
	ST   Z+,R26
	ST   Z,R27
	.ENDM

	.MACRO __PUTD2SX
	MOVW R30,R28
	SUBI R30,LOW(-@0)
	SBCI R31,HIGH(-@0)
	ST   Z+,R26
	ST   Z+,R27
	ST   Z+,R24
	ST   Z,R25
	.ENDM

	.MACRO __PUTBSRX
	MOVW R30,R28
	SUBI R30,LOW(-@1)
	SBCI R31,HIGH(-@1)
	ST   Z,R@0
	.ENDM

	.MACRO __PUTWSRX
	MOVW R30,R28
	SUBI R30,LOW(-@2)
	SBCI R31,HIGH(-@2)
	ST   Z+,R@0
	ST   Z,R@1
	.ENDM

	.MACRO __PUTB1SNX
	MOVW R26,R28
	SUBI R26,LOW(-@0)
	SBCI R27,HIGH(-@0)
	LD   R0,X+
	LD   R27,X
	MOV  R26,R0
	SUBI R26,LOW(-@1)
	SBCI R27,HIGH(-@1)
	ST   X,R30
	.ENDM

	.MACRO __PUTW1SNX
	MOVW R26,R28
	SUBI R26,LOW(-@0)
	SBCI R27,HIGH(-@0)
	LD   R0,X+
	LD   R27,X
	MOV  R26,R0
	SUBI R26,LOW(-@1)
	SBCI R27,HIGH(-@1)
	ST   X+,R30
	ST   X,R31
	.ENDM

	.MACRO __PUTD1SNX
	MOVW R26,R28
	SUBI R26,LOW(-@0)
	SBCI R27,HIGH(-@0)
	LD   R0,X+
	LD   R27,X
	MOV  R26,R0
	SUBI R26,LOW(-@1)
	SBCI R27,HIGH(-@1)
	ST   X+,R30
	ST   X+,R31
	ST   X+,R22
	ST   X,R23
	.ENDM

	.MACRO __MULBRR
	MULS R@0,R@1
	MOVW R30,R0
	.ENDM

	.MACRO __MULBRRU
	MUL  R@0,R@1
	MOVW R30,R0
	.ENDM

	.MACRO __MULBRR0
	MULS R@0,R@1
	.ENDM

	.MACRO __MULBRRU0
	MUL  R@0,R@1
	.ENDM

	.MACRO __MULBNWRU
	LDI  R26,@2
	MUL  R26,R@0
	MOVW R30,R0
	MUL  R26,R@1
	ADD  R31,R0
	.ENDM

;NAME DEFINITIONS FOR GLOBAL VARIABLES ALLOCATED TO REGISTERS
	.DEF _TOUCH_X=R4
	.DEF _TOUCH_Y=R6
	.DEF _TOUCH_X_LAST=R8
	.DEF _TOUCH_Y_LAST=R10
	.DEF _rx_wr_index0=R13
	.DEF _rx_rd_index0=R12

	.CSEG
	.ORG 0x00

;START OF CODE MARKER
__START_OF_CODE:

;INTERRUPT VECTORS
	JMP  __RESET
	JMP  0x00
	JMP  0x00
	JMP  0x00
	JMP  0x00
	JMP  0x00
	JMP  0x00
	JMP  0x00
	JMP  0x00
	JMP  0x00
	JMP  0x00
	JMP  0x00
	JMP  0x00
	JMP  0x00
	JMP  0x00
	JMP  0x00
	JMP  _timer0_ovf_isr
	JMP  0x00
	JMP  _usart0_rx_isr
	JMP  0x00
	JMP  _usart0_tx_isr
	JMP  0x00
	JMP  0x00
	JMP  0x00
	JMP  0x00
	JMP  0x00
	JMP  0x00
	JMP  0x00
	JMP  0x00
	JMP  0x00
	JMP  _usart1_rx_isr
	JMP  0x00
	JMP  _usart1_tx_isr
	JMP  0x00
	JMP  0x00

_blank_symb:
	.DB  0x0,0x0,0x0,0x0,0x0,0x0,0x0,0x0
	.DB  0x0,0x0,0x0,0x0,0x0,0x0,0x0,0x0
	.DB  0x0,0x0,0x0,0x0,0x0,0x0,0x0,0x0
	.DB  0x0,0x0,0x0,0x0,0x0,0x0,0x0,0x0
_S_46:
	.DB  0x0,0x0,0x0,0x0,0x0,0x0,0x0,0x0
	.DB  0x0,0x0,0x0,0x0,0x0,0x0,0x0,0x0
	.DB  0x0,0x0,0x0,0x0,0x0,0x0,0x0,0x0
	.DB  0x1,0x80,0x1,0x80,0x0,0x0,0x0,0x0
_S_UP:
	.DB  0x0,0x0,0x1,0x80,0x3,0xC0,0x7,0xE0
	.DB  0x6,0x60,0xC,0x30,0xC,0x30,0x18,0x18
	.DB  0x18,0x18,0x30,0xC,0x30,0xC,0x60,0x6
	.DB  0x60,0x6,0x7F,0xFE,0x7F,0xFE,0x0,0x0
_S_DOWN:
	.DB  0x0,0x0,0x7F,0xFE,0x7F,0xFE,0x60,0x6
	.DB  0x60,0x6,0x30,0xC,0x30,0xC,0x18,0x18
	.DB  0x18,0x18,0xC,0x30,0xC,0x30,0x6,0x60
	.DB  0x7,0xE0,0x3,0xC0,0x1,0x80,0x0,0x0
_S_48:
	.DB  0x0,0x0,0x7,0xE0,0xC,0x30,0x18,0x18
	.DB  0x18,0x18,0x18,0x18,0x18,0x18,0x18,0x18
	.DB  0x18,0x18,0x18,0x18,0x18,0x18,0x18,0x18
	.DB  0xC,0x30,0x7,0xE0,0x0,0x0,0x0,0x0
_S_49:
	.DB  0x0,0x0,0x1,0x80,0x3,0x80,0x7,0x80
	.DB  0x1,0x80,0x1,0x80,0x1,0x80,0x1,0x80
	.DB  0x1,0x80,0x1,0x80,0x1,0x80,0x1,0x80
	.DB  0x1,0x80,0x3,0xC0,0x0,0x0,0x0,0x0
_S_50:
	.DB  0x0,0x0,0x7,0xE0,0xC,0x30,0x18,0x18
	.DB  0x10,0x8,0x0,0x18,0x0,0x30,0x0,0x60
	.DB  0x0,0xC0,0x1,0x80,0x3,0x0,0x6,0x0
	.DB  0xC,0x18,0x1F,0xF8,0x0,0x0,0x0,0x0
_S_51:
	.DB  0x0,0x0,0x7,0xE0,0x8,0x10,0x10,0x8
	.DB  0x10,0x8,0x0,0x10,0x0,0xE0,0x0,0x30
	.DB  0x0,0x18,0x0,0x8,0x0,0x8,0x18,0x18
	.DB  0xC,0x30,0x7,0xE0,0x0,0x0,0x0,0x0
_S_52:
	.DB  0x0,0x0,0x0,0x30,0x0,0x70,0x0,0xF0
	.DB  0x1,0xB0,0x3,0x30,0x6,0x30,0xC,0x30
	.DB  0x18,0x30,0x1F,0xF8,0x0,0x30,0x0,0x30
	.DB  0x0,0x30,0x0,0x78,0x0,0x0,0x0,0x0
_S_53:
	.DB  0x0,0x0,0xF,0xF8,0xF,0xF0,0x8,0x0
	.DB  0x10,0x0,0x10,0x0,0x1F,0xE0,0x0,0x30
	.DB  0x0,0x18,0x0,0x18,0x0,0x18,0x18,0x18
	.DB  0x1C,0x30,0xF,0xE0,0x0,0x0,0x0,0x0
_S_54:
	.DB  0x0,0x0,0x3,0xE0,0x6,0x10,0xC,0x0
	.DB  0x8,0x0,0x18,0x0,0x1F,0xE0,0x1C,0x30
	.DB  0x18,0x18,0x18,0x18,0x18,0x18,0x18,0x18
	.DB  0xC,0x30,0x7,0xE0,0x0,0x0,0x0,0x0
_S_55:
	.DB  0x0,0x0,0x1F,0xF8,0x10,0x18,0x0,0x10
	.DB  0x0,0x20,0x0,0x20,0x0,0x40,0x0,0x40
	.DB  0x0,0x80,0x0,0x80,0x1,0x0,0x1,0x0
	.DB  0x2,0x0,0x2,0x0,0x0,0x0,0x0,0x0
_S_56:
	.DB  0x0,0x0,0x7,0xE0,0xC,0x30,0x8,0x10
	.DB  0x8,0x10,0xC,0x30,0x7,0xE0,0xC,0x30
	.DB  0x18,0x18,0x18,0x18,0x18,0x18,0x18,0x18
	.DB  0xC,0x30,0x7,0xE0,0x0,0x0,0x0,0x0
_S_57:
	.DB  0x0,0x0,0x7,0xE0,0xC,0x30,0x18,0x18
	.DB  0x18,0x18,0x18,0x18,0xC,0x38,0x7,0xF8
	.DB  0x0,0x18,0x0,0x10,0x0,0x20,0x0,0x20
	.DB  0x0,0xC0,0x3,0x0,0x0,0x0,0x0,0x0
_S_32:
	.DB  0x0,0x0,0x0,0x0,0x0,0x0,0x0,0x0
	.DB  0x0,0x0,0x0,0x0,0x0,0x0,0x0,0x0
	.DB  0x0,0x0,0x0,0x0,0x0,0x0,0x0,0x0
	.DB  0x0,0x0,0x0,0x0,0x0,0x0,0x0,0x0
_S_33:
	.DB  0x0,0x0,0x1,0x80,0x1,0x80,0x1,0x80
	.DB  0x1,0x80,0x1,0x80,0x1,0x80,0x1,0x80
	.DB  0x1,0x80,0x1,0x80,0x1,0x80,0x0,0x0
	.DB  0x1,0x80,0x1,0x80,0x0,0x0,0x0,0x0
_S_40:
	.DB  0x0,0x0,0x0,0x60,0x0,0x80,0x1,0x0
	.DB  0x2,0x0,0x2,0x0,0x4,0x0,0x4,0x0
	.DB  0x4,0x0,0x2,0x0,0x2,0x0,0x1,0x0
	.DB  0x0,0x80,0x0,0x60,0x0,0x0,0x0,0x0
_S_41:
	.DB  0x0,0x0,0x6,0x0,0x1,0x0,0x0,0x80
	.DB  0x0,0x40,0x0,0x40,0x0,0x20,0x0,0x20
	.DB  0x0,0x20,0x0,0x40,0x0,0x40,0x0,0x80
	.DB  0x1,0x0,0x6,0x0,0x0,0x0,0x0,0x0
_S_47:
	.DB  0x0,0x0,0x0,0x0,0x0,0x8,0x0,0x18
	.DB  0x0,0x30,0x0,0x60,0x0,0xC0,0x1,0x80
	.DB  0x3,0x0,0x6,0x0,0xC,0x0,0x18,0x0
	.DB  0x10,0x0,0x0,0x0,0x0,0x0,0x0,0x0
_S_43:
	.DB  0x0,0x0,0x0,0x0,0x1,0x80,0x1,0x80
	.DB  0x1,0x80,0x1,0x80,0x1,0x80,0x3F,0xFC
	.DB  0x3F,0xFC,0x1,0x80,0x1,0x80,0x1,0x80
	.DB  0x1,0x80,0x1,0x80,0x0,0x0,0x0,0x0
_S_45:
	.DB  0x0,0x0,0x0,0x0,0x0,0x0,0x0,0x0
	.DB  0x0,0x0,0x0,0x0,0x0,0x0,0x3F,0xFC
	.DB  0x3F,0xFC,0x0,0x0,0x0,0x0,0x0,0x0
	.DB  0x0,0x0,0x0,0x0,0x0,0x0,0x0,0x0
_S_58:
	.DB  0x0,0x0,0x0,0x0,0x0,0x0,0x1,0x80
	.DB  0x1,0x80,0x0,0x0,0x0,0x0,0x0,0x0
	.DB  0x0,0x0,0x0,0x0,0x1,0x80,0x1,0x80
	.DB  0x0,0x0,0x0,0x0,0x0,0x0,0x0,0x0
_S_60:
	.DB  0x0,0x0,0x0,0x30,0x0,0x60,0x0,0xC0
	.DB  0x1,0x80,0x3,0x0,0x6,0x0,0xC,0x0
	.DB  0x6,0x0,0x3,0x0,0x1,0x80,0x0,0xC0
	.DB  0x0,0x60,0x0,0x30,0x0,0x0,0x0,0x0
_S_61:
	.DB  0x0,0x0,0x0,0x0,0x0,0x0,0x0,0x0
	.DB  0xF,0xF0,0xF,0xF0,0x0,0x0,0x0,0x0
	.DB  0x0,0x0,0xF,0xF0,0xF,0xF0,0x0,0x0
	.DB  0x0,0x0,0x0,0x0,0x0,0x0,0x0,0x0
_S_62:
	.DB  0x0,0x0,0xC,0x0,0x6,0x0,0x3,0x0
	.DB  0x1,0x80,0x0,0xC0,0x0,0x60,0x0,0x30
	.DB  0x0,0x60,0x0,0xC0,0x1,0x80,0x3,0x0
	.DB  0x6,0x0,0xC,0x0,0x0,0x0,0x0,0x0
_S_63:
	.DB  0x0,0x0,0x3,0xC0,0x6,0x60,0xC,0x30
	.DB  0xC,0x30,0x4,0x30,0x0,0x60,0x0,0xC0
	.DB  0x1,0x80,0x1,0x80,0x1,0x80,0x0,0x0
	.DB  0x1,0x80,0x1,0x80,0x0,0x0,0x0,0x0
_S_192:
	.DB  0x0,0x0,0x0,0xE0,0x0,0xE0,0x1,0x20
	.DB  0x1,0x20,0x2,0x30,0x2,0x10,0x4,0x10
	.DB  0x4,0x18,0xF,0xF8,0x18,0x18,0x10,0xC
	.DB  0x30,0xC,0x78,0x1E,0x0,0x0,0x0,0x0
_S_193:
	.DB  0x0,0x0,0x7F,0xFE,0x30,0x1E,0x30,0x2
	.DB  0x30,0x0,0x30,0x0,0x3F,0xF8,0x3F,0xFC
	.DB  0x30,0xE,0x30,0x6,0x30,0x6,0x30,0xE
	.DB  0x3F,0xFC,0x7F,0xF8,0x0,0x0,0x0,0x0
_S_194:
	.DB  0x0,0x0,0x7F,0xF0,0x30,0x18,0x30,0xC
	.DB  0x30,0xC,0x30,0x18,0x3F,0xF8,0x3F,0xFC
	.DB  0x30,0xE,0x30,0x6,0x30,0x6,0x30,0xE
	.DB  0x3F,0xFC,0x7F,0xF8,0x0,0x0,0x0,0x0
_S_195:
	.DB  0x0,0x0,0x7F,0xFE,0x30,0x1E,0x30,0x2
	.DB  0x30,0x0,0x30,0x0,0x30,0x0,0x30,0x0
	.DB  0x30,0x0,0x30,0x0,0x30,0x0,0x30,0x0
	.DB  0x30,0x0,0x78,0x0,0x0,0x0,0x0,0x0
_S_196:
	.DB  0x0,0x0,0x3,0xFC,0x1,0x18,0x1,0x18
	.DB  0x1,0x18,0x1,0x18,0x1,0x18,0x1,0x18
	.DB  0x2,0x18,0x4,0x18,0x8,0x18,0x3F,0xFC
	.DB  0x38,0x3C,0x30,0xC,0x20,0x4,0x0,0x0
_S_197:
	.DB  0x0,0x0,0x7F,0xFC,0x30,0x1C,0x30,0x4
	.DB  0x30,0x0,0x30,0x80,0x3F,0x80,0x3F,0x80
	.DB  0x30,0x80,0x30,0x0,0x30,0x0,0x30,0x4
	.DB  0x30,0x1C,0x7F,0xFC,0x0,0x0,0x0,0x0
_S_198:
	.DB  0x0,0x0,0x63,0xC6,0x51,0x8A,0x11,0x88
	.DB  0x9,0x90,0x9,0x90,0x7,0xE0,0x7,0xE0
	.DB  0xD,0xB0,0x19,0x98,0x11,0x88,0x31,0x8C
	.DB  0x21,0x84,0x63,0xC6,0x0,0x0,0x0,0x0
_S_199:
	.DB  0x0,0x0,0xF,0xE0,0x38,0x38,0x60,0xC
	.DB  0x0,0x4,0x0,0xC,0x3,0xF8,0x0,0x8
	.DB  0x0,0x4,0x0,0x6,0x0,0x6,0x60,0xC
	.DB  0x3F,0xF8,0xF,0xE0,0x0,0x0,0x0,0x0
_S_200:
	.DB  0x0,0x0,0x78,0x1E,0x30,0xC,0x30,0x1C
	.DB  0x30,0x3C,0x30,0x6C,0x30,0xCC,0x31,0x8C
	.DB  0x33,0xC,0x36,0xC,0x3C,0xC,0x38,0xC
	.DB  0x30,0xC,0x78,0x1E,0x0,0x0,0x0,0x0
_S_201:
	.DB  0x3,0xC0,0x79,0x9E,0x30,0xC,0x30,0x1C
	.DB  0x30,0x3C,0x30,0x6C,0x30,0xCC,0x31,0x8C
	.DB  0x33,0xC,0x36,0xC,0x3C,0xC,0x38,0xC
	.DB  0x30,0xC,0x78,0x1E,0x0,0x0,0x0,0x0
_S_202:
	.DB  0x0,0x0,0x78,0x3C,0x30,0x6C,0x30,0xC0
	.DB  0x31,0x80,0x33,0x0,0x3F,0x0,0x39,0x80
	.DB  0x30,0xC0,0x30,0x60,0x30,0x30,0x30,0x18
	.DB  0x30,0xC,0x78,0x1E,0x0,0x0,0x0,0x0
_S_203:
	.DB  0x0,0x0,0x1,0xFE,0x0,0x8C,0x0,0x8C
	.DB  0x0,0x8C,0x0,0x8C,0x1,0xC,0x1,0xC
	.DB  0x1,0xC,0x2,0xC,0x2,0xC,0x4,0xC
	.DB  0x68,0xC,0x70,0x1E,0x0,0x0,0x0,0x0
_S_204:
	.DB  0x0,0x0,0x70,0xE,0x38,0x1C,0x38,0x1C
	.DB  0x34,0x2C,0x34,0x2C,0x34,0x2C,0x32,0x4C
	.DB  0x32,0x4C,0x32,0x4C,0x31,0x8C,0x31,0x8C
	.DB  0x31,0x8C,0x78,0x1E,0x0,0x0,0x0,0x0
_S_205:
	.DB  0x0,0x0,0x78,0x1E,0x30,0xC,0x30,0xC
	.DB  0x30,0xC,0x30,0xC,0x3F,0xFC,0x3F,0xFC
	.DB  0x30,0xC,0x30,0xC,0x30,0xC,0x30,0xC
	.DB  0x30,0xC,0x78,0x1E,0x0,0x0,0x0,0x0
_S_206:
	.DB  0x0,0x0,0x7,0xE0,0x1E,0x78,0x38,0x1C
	.DB  0x30,0xC,0x70,0xE,0x70,0xE,0x70,0xE
	.DB  0x70,0xE,0x70,0xE,0x30,0xC,0x38,0x1C
	.DB  0x1E,0x78,0x7,0xE0,0x0,0x0,0x0,0x0
_S_207:
	.DB  0x0,0x0,0x7F,0xFE,0x3F,0xFC,0x30,0xC
	.DB  0x30,0xC,0x30,0xC,0x30,0xC,0x30,0xC
	.DB  0x30,0xC,0x30,0xC,0x30,0xC,0x30,0xC
	.DB  0x30,0xC,0x78,0x1E,0x0,0x0,0x0,0x0
_S_208:
	.DB  0x0,0x0,0x7F,0xF8,0x30,0xC,0x30,0x6
	.DB  0x30,0x6,0x30,0x6,0x30,0xC,0x3F,0xF8
	.DB  0x30,0x0,0x30,0x0,0x30,0x0,0x30,0x0
	.DB  0x30,0x0,0x78,0x0,0x0,0x0,0x0,0x0
_S_209:
	.DB  0x0,0x0,0x7,0xE0,0x1E,0x78,0x38,0x1C
	.DB  0x30,0x4,0x70,0x0,0x70,0x0,0x70,0x0
	.DB  0x70,0x0,0x70,0x0,0x30,0x4,0x38,0x1C
	.DB  0x1E,0x78,0x7,0xE0,0x0,0x0,0x0,0x0
_S_210:
	.DB  0x0,0x0,0x7F,0xFE,0x61,0x86,0x41,0x82
	.DB  0x1,0x80,0x1,0x80,0x1,0x80,0x1,0x80
	.DB  0x1,0x80,0x1,0x80,0x1,0x80,0x1,0x80
	.DB  0x1,0x80,0x3,0xC0,0x0,0x0,0x0,0x0
_S_211:
	.DB  0x0,0x0,0x78,0xE,0x30,0x4,0x18,0x4
	.DB  0xC,0x8,0x6,0x8,0x3,0x10,0x1,0x90
	.DB  0x0,0xE0,0x0,0x60,0x0,0x40,0xC,0x40
	.DB  0xC,0x80,0x7,0x0,0x0,0x0,0x0,0x0
_S_212:
	.DB  0x0,0x0,0x3,0xC0,0x1,0x80,0xF,0xF0
	.DB  0x39,0x9C,0x61,0x86,0x41,0x82,0x41,0x82
	.DB  0x61,0x86,0x39,0x9C,0xF,0xF0,0x1,0x80
	.DB  0x1,0x80,0x3,0xC0,0x0,0x0,0x0,0x0
_S_213:
	.DB  0x0,0x0,0x78,0x1E,0x30,0x4,0x18,0x8
	.DB  0xC,0x10,0x6,0x20,0x3,0x40,0x1,0x80
	.DB  0x2,0xC0,0x4,0x60,0x8,0x30,0x10,0x18
	.DB  0x20,0xC,0x78,0x1E,0x0,0x0,0x0,0x0
_S_214:
	.DB  0x0,0x0,0x78,0x1E,0x30,0xC,0x30,0xC
	.DB  0x30,0xC,0x30,0xC,0x30,0xC,0x30,0xC
	.DB  0x30,0xC,0x30,0xC,0x30,0xC,0x30,0xC
	.DB  0x30,0xC,0x7F,0xFE,0x0,0x6,0x0,0x2
_S_215:
	.DB  0x0,0x0,0x78,0x1E,0x30,0xC,0x30,0xC
	.DB  0x30,0xC,0x30,0xC,0x38,0xC,0x1F,0xFC
	.DB  0x0,0xC,0x0,0xC,0x0,0xC,0x0,0xC
	.DB  0x0,0xC,0x0,0x1E,0x0,0x0,0x0,0x0
_S_216:
	.DB  0x0,0x0,0x7B,0xDE,0x31,0x8C,0x31,0x8C
	.DB  0x31,0x8C,0x31,0x8C,0x31,0x8C,0x31,0x8C
	.DB  0x31,0x8C,0x31,0x8C,0x31,0x8C,0x31,0x8C
	.DB  0x31,0x8C,0x7F,0xFE,0x0,0x0,0x0,0x0
_S_217:
	.DB  0x0,0x0,0x7B,0xDE,0x31,0x8C,0x31,0x8C
	.DB  0x31,0x8C,0x31,0x8C,0x31,0x8C,0x31,0x8C
	.DB  0x31,0x8C,0x31,0x8C,0x31,0x8C,0x31,0x8C
	.DB  0x31,0x8C,0x7F,0xFE,0x0,0x6,0x0,0x2
_S_218:
	.DB  0x0,0x0,0x7C,0x0,0x58,0x0,0x58,0x0
	.DB  0x58,0x0,0x18,0x0,0x18,0x0,0x1F,0xF8
	.DB  0x18,0xC,0x18,0x6,0x18,0x6,0x18,0x6
	.DB  0x18,0xC,0x3F,0xF8,0x0,0x0,0x0,0x0
_S_219:
	.DB  0x0,0x0,0x78,0x1E,0x30,0xC,0x30,0xC
	.DB  0x30,0xC,0x30,0xC,0x30,0xC,0x3F,0x8C
	.DB  0x30,0x4C,0x30,0x2C,0x30,0x2C,0x30,0x2C
	.DB  0x30,0x4C,0x7F,0x9E,0x0,0x0,0x0,0x0
_S_220:
	.DB  0x0,0x0,0x78,0x0,0x30,0x0,0x30,0x0
	.DB  0x30,0x0,0x30,0x0,0x30,0x0,0x3F,0xF8
	.DB  0x30,0xC,0x30,0x6,0x30,0x6,0x30,0x6
	.DB  0x30,0xC,0x7F,0xF8,0x0,0x0,0x0,0x0
_S_221:
	.DB  0x0,0x0,0x7,0xE0,0x1E,0x78,0x38,0x1C
	.DB  0x30,0xC,0x0,0xE,0x0,0xE,0x0,0xFE
	.DB  0x0,0xE,0x0,0xE,0x30,0xC,0x38,0x1C
	.DB  0x1E,0x78,0x7,0xE0,0x0,0x0,0x0,0x0
_S_222:
	.DB  0x0,0x0,0x79,0xF8,0x33,0xC,0x32,0x4
	.DB  0x36,0x6,0x36,0x6,0x36,0x6,0x3E,0x6
	.DB  0x36,0x6,0x36,0x6,0x36,0x6,0x32,0x4
	.DB  0x33,0xC,0x79,0xF8,0x0,0x0,0x0,0x0
_S_223:
	.DB  0x0,0x0,0x3,0xFE,0x6,0xC,0xC,0xC
	.DB  0xC,0xC,0xC,0xC,0x6,0xC,0x3,0xFC
	.DB  0x3,0xC,0x6,0xC,0xC,0xC,0x18,0xC
	.DB  0x30,0xC,0x78,0x1E,0x0,0x0,0x0,0x0
_tbl10_G101:
	.DB  0x10,0x27,0xE8,0x3,0x64,0x0,0xA,0x0
	.DB  0x1,0x0
_tbl16_G101:
	.DB  0x0,0x10,0x0,0x1,0x10,0x0,0x1,0x0

;REGISTER BIT VARIABLES INITIALIZATION
__REG_BIT_VARS:
	.DW  0x0000

_0x116:
	.DB  0xF8,0xFF
_0x117:
	.DB  0x5A,0x0,0x5A,0x0,0x32
_0x0:
	.DB  0x20,0x20,0x20,0x20,0x20,0x0,0xCC,0xC5
	.DB  0xCD,0xDE,0x0,0x20,0x20,0x2B,0x0,0x20
	.DB  0x20,0x2D,0x0,0xCF,0xC0,0xD3,0xC7,0xC0
	.DB  0x0,0x20,0x20,0x20,0x20,0x20,0x20,0x20
	.DB  0x20,0x20,0x20,0x20,0x20,0x20,0x20,0x20
	.DB  0x20,0x0,0xCD,0xC0,0xCF,0xD0,0xDF,0xC6
	.DB  0xC5,0xCD,0xC8,0xC5,0x0,0xD4,0xC0,0xC7
	.DB  0x0,0xD2,0xCE,0xCA,0x0,0xCD,0xC0,0xCF
	.DB  0xD0,0xDF,0xC6,0xC5,0xCD,0xC8,0xC5,0x20
	.DB  0xC8,0x20,0xD2,0xCE,0xCA,0x0,0xC2,0xCE
	.DB  0xC7,0xC1,0xD3,0xC6,0xC4,0xC5,0xCD,0xC8
	.DB  0xDF,0x0,0xC3,0xD6,0x0,0xC4,0xC5,0xD1
	.DB  0xCA,0xCE,0xCC,0x0,0xD1,0xD2,0xC0,0xD0
	.DB  0xD2,0x0

__GLOBAL_INI_TBL:
	.DW  0x01
	.DW  0x02
	.DW  __REG_BIT_VARS*2

	.DW  0x06
	.DW  _0xF1
	.DW  _0x0*2

	.DW  0x06
	.DW  _0xF1+6
	.DW  _0x0*2

	.DW  0x06
	.DW  _0xF1+12
	.DW  _0x0*2

	.DW  0x06
	.DW  _0xF1+18
	.DW  _0x0*2

	.DW  0x05
	.DW  _0xF5
	.DW  _0x0*2+6

	.DW  0x04
	.DW  _0xF5+5
	.DW  _0x0*2+11

	.DW  0x04
	.DW  _0xF5+9
	.DW  _0x0*2+15

	.DW  0x06
	.DW  _0xF5+13
	.DW  _0x0*2+19

	.DW  0x11
	.DW  _0x10F
	.DW  _0x0*2+25

	.DW  0x11
	.DW  _0x10F+17
	.DW  _0x0*2+25

	.DW  0x0B
	.DW  _0x10F+34
	.DW  _0x0*2+42

	.DW  0x04
	.DW  _0x10F+45
	.DW  _0x0*2+53

	.DW  0x04
	.DW  _0x10F+49
	.DW  _0x0*2+57

	.DW  0x04
	.DW  _0x10F+53
	.DW  _0x0*2+53

	.DW  0x11
	.DW  _0x10F+57
	.DW  _0x0*2+61

	.DW  0x0C
	.DW  _0x10F+74
	.DW  _0x0*2+78

	.DW  0x02
	.DW  _Graph_X
	.DW  _0x116*2

	.DW  0x05
	.DW  _Amplitude
	.DW  _0x117*2

	.DW  0x0D
	.DW  _0x118
	.DW  _0x0*2+29

	.DW  0x0D
	.DW  _0x118+13
	.DW  _0x0*2+29

	.DW  0x03
	.DW  _0x118+26
	.DW  _0x0*2+90

	.DW  0x07
	.DW  _0x14B
	.DW  _0x0*2+93

	.DW  0x07
	.DW  _0x14B+7
	.DW  _0x0*2+93

	.DW  0x07
	.DW  _0x14B+14
	.DW  _0x0*2+93

	.DW  0x07
	.DW  _0x14B+21
	.DW  _0x0*2+35

	.DW  0x07
	.DW  _0x14B+28
	.DW  _0x0*2+35

	.DW  0x07
	.DW  _0x14B+35
	.DW  _0x0*2+35

	.DW  0x06
	.DW  _0x14B+42
	.DW  _0x0*2+100

	.DW  0x06
	.DW  _0x14B+48
	.DW  _0x0*2+19

_0xFFFFFFFF:
	.DW  0

__RESET:
	CLI
	CLR  R30
	OUT  EECR,R30

;INTERRUPT VECTORS ARE PLACED
;AT THE START OF FLASH
	LDI  R31,1
	OUT  MCUCR,R31
	OUT  MCUCR,R30
	STS  XMCRB,R30

;DISABLE WATCHDOG
	LDI  R31,0x18
	OUT  WDTCR,R31
	OUT  WDTCR,R30

;CLEAR R2-R14
	LDI  R24,(14-2)+1
	LDI  R26,2
	CLR  R27
__CLEAR_REG:
	ST   X+,R30
	DEC  R24
	BRNE __CLEAR_REG

;CLEAR SRAM
	LDI  R24,LOW(__CLEAR_SRAM_SIZE)
	LDI  R25,HIGH(__CLEAR_SRAM_SIZE)
	LDI  R26,LOW(__SRAM_START)
	LDI  R27,HIGH(__SRAM_START)
__CLEAR_SRAM:
	ST   X+,R30
	SBIW R24,1
	BRNE __CLEAR_SRAM

;GLOBAL VARIABLES INITIALIZATION
	LDI  R30,LOW(__GLOBAL_INI_TBL*2)
	LDI  R31,HIGH(__GLOBAL_INI_TBL*2)
__GLOBAL_INI_NEXT:
	LPM  R24,Z+
	LPM  R25,Z+
	SBIW R24,0
	BREQ __GLOBAL_INI_END
	LPM  R26,Z+
	LPM  R27,Z+
	LPM  R0,Z+
	LPM  R1,Z+
	MOVW R22,R30
	MOVW R30,R0
__GLOBAL_INI_LOOP:
	LPM  R0,Z+
	ST   X+,R0
	SBIW R24,1
	BRNE __GLOBAL_INI_LOOP
	MOVW R30,R22
	RJMP __GLOBAL_INI_NEXT
__GLOBAL_INI_END:

	OUT  RAMPZ,R24

;HARDWARE STACK POINTER INITIALIZATION
	LDI  R30,LOW(__SRAM_END-__HEAP_SIZE)
	OUT  SPL,R30
	LDI  R30,HIGH(__SRAM_END-__HEAP_SIZE)
	OUT  SPH,R30

;DATA STACK POINTER INITIALIZATION
	LDI  R28,LOW(__SRAM_START+__DSTACK_SIZE)
	LDI  R29,HIGH(__SRAM_START+__DSTACK_SIZE)

	JMP  _main

	.ESEG
	.ORG 0

	.DSEG
	.ORG 0x500

	.CSEG
;/*****************************************************
;This program was produced by the
;CodeWizardAVR V2.05.0 Professional
;Automatic Program Generator
;© Copyright 1998-2010 Pavel Haiduc, HP InfoTech s.r.l.
;http://www.hpinfotech.com
;
;Project :
;Version :
;Date    : 29.07.2015
;Author  :
;Company :
;Comments:
;
;
;Chip type               : ATmega128
;Program type            : Application
;AVR Core Clock frequency: 16,000000 MHz
;Memory model            : Small
;External RAM size       : 0
;Data Stack size         : 1024
;*****************************************************/
;
;#include <mega128.h>
	#ifndef __SLEEP_DEFINED__
	#define __SLEEP_DEFINED__
	.EQU __se_bit=0x20
	.EQU __sm_mask=0x1C
	.EQU __sm_powerdown=0x10
	.EQU __sm_powersave=0x18
	.EQU __sm_standby=0x14
	.EQU __sm_ext_standby=0x1C
	.EQU __sm_adc_noise_red=0x08
	.SET power_ctrl_reg=mcucr
	#endif
;#include <delay.h>
;#include "Font16x16.c"
;flash char blank_symb[32] =
;{
;0b00000000, 0b00000000,
;0b00000000, 0b00000000,
;0b00000000, 0b00000000,
;0b00000000, 0b00000000,
;0b00000000, 0b00000000,
;0b00000000, 0b00000000,
;0b00000000, 0b00000000,
;0b00000000, 0b00000000,
;0b00000000, 0b00000000,
;0b00000000, 0b00000000,
;0b00000000, 0b00000000,
;0b00000000, 0b00000000,
;0b00000000, 0b00000000,
;0b00000000, 0b00000000,
;0b00000000, 0b00000000,
;0b00000000, 0b00000000,
;};
;
;flash char S_46[32] =
;{
;0b00000000, 0b00000000,
;0b00000000, 0b00000000,
;0b00000000, 0b00000000,
;0b00000000, 0b00000000,
;0b00000000, 0b00000000,
;0b00000000, 0b00000000,
;0b00000000, 0b00000000,
;0b00000000, 0b00000000,
;0b00000000, 0b00000000,
;0b00000000, 0b00000000,
;0b00000000, 0b00000000,
;0b00000000, 0b00000000,
;0b00000001, 0b10000000,
;0b00000001, 0b10000000,
;0b00000000, 0b00000000,
;0b00000000, 0b00000000,
;};
;
;flash char S_UP[32] =
;{
;0b00000000, 0b00000000,
;0b00000001, 0b10000000,
;0b00000011, 0b11000000,
;0b00000111, 0b11100000,
;0b00000110, 0b01100000,
;0b00001100, 0b00110000,
;0b00001100, 0b00110000,
;0b00011000, 0b00011000,
;0b00011000, 0b00011000,
;0b00110000, 0b00001100,
;0b00110000, 0b00001100,
;0b01100000, 0b00000110,
;0b01100000, 0b00000110,
;0b01111111, 0b11111110,
;0b01111111, 0b11111110,
;0b00000000, 0b00000000,
;};
;
;flash char S_DOWN[32] =
;{
;0b00000000, 0b00000000,
;0b01111111, 0b11111110,
;0b01111111, 0b11111110,
;0b01100000, 0b00000110,
;0b01100000, 0b00000110,
;0b00110000, 0b00001100,
;0b00110000, 0b00001100,
;0b00011000, 0b00011000,
;0b00011000, 0b00011000,
;0b00001100, 0b00110000,
;0b00001100, 0b00110000,
;0b00000110, 0b01100000,
;0b00000111, 0b11100000,
;0b00000011, 0b11000000,
;0b00000001, 0b10000000,
;0b00000000, 0b00000000,
;};
;
;// цифры
;flash char S_48[32] =
;{
;0b00000000, 0b00000000,
;0b00000111, 0b11100000,
;0b00001100, 0b00110000,
;0b00011000, 0b00011000,
;0b00011000, 0b00011000,
;0b00011000, 0b00011000,
;0b00011000, 0b00011000,
;0b00011000, 0b00011000,
;0b00011000, 0b00011000,
;0b00011000, 0b00011000,
;0b00011000, 0b00011000,
;0b00011000, 0b00011000,
;0b00001100, 0b00110000,
;0b00000111, 0b11100000,
;0b00000000, 0b00000000,
;0b00000000, 0b00000000,
;};
;
;flash char S_49[32] =
;{
;0b00000000, 0b00000000,
;0b00000001, 0b10000000,
;0b00000011, 0b10000000,
;0b00000111, 0b10000000,
;0b00000001, 0b10000000,
;0b00000001, 0b10000000,
;0b00000001, 0b10000000,
;0b00000001, 0b10000000,
;0b00000001, 0b10000000,
;0b00000001, 0b10000000,
;0b00000001, 0b10000000,
;0b00000001, 0b10000000,
;0b00000001, 0b10000000,
;0b00000011, 0b11000000,
;0b00000000, 0b00000000,
;0b00000000, 0b00000000,
;};
;
;flash char S_50[32] =
;{
;0b00000000, 0b00000000,
;0b00000111, 0b11100000,
;0b00001100, 0b00110000,
;0b00011000, 0b00011000,
;0b00010000, 0b00001000,
;0b00000000, 0b00011000,
;0b00000000, 0b00110000,
;0b00000000, 0b01100000,
;0b00000000, 0b11000000,
;0b00000001, 0b10000000,
;0b00000011, 0b00000000,
;0b00000110, 0b00000000,
;0b00001100, 0b00011000,
;0b00011111, 0b11111000,
;0b00000000, 0b00000000,
;0b00000000, 0b00000000,
;};
;
;flash char S_51[32] =
;{
;0b00000000, 0b00000000,
;0b00000111, 0b11100000,
;0b00001000, 0b00010000,
;0b00010000, 0b00001000,
;0b00010000, 0b00001000,
;0b00000000, 0b00010000,
;0b00000000, 0b11100000,
;0b00000000, 0b00110000,
;0b00000000, 0b00011000,
;0b00000000, 0b00001000,
;0b00000000, 0b00001000,
;0b00011000, 0b00011000,
;0b00001100, 0b00110000,
;0b00000111, 0b11100000,
;0b00000000, 0b00000000,
;0b00000000, 0b00000000,
;};
;
;flash char S_52[32] =
;{
;0b00000000, 0b00000000,
;0b00000000, 0b00110000,
;0b00000000, 0b01110000,
;0b00000000, 0b11110000,
;0b00000001, 0b10110000,
;0b00000011, 0b00110000,
;0b00000110, 0b00110000,
;0b00001100, 0b00110000,
;0b00011000, 0b00110000,
;0b00011111, 0b11111000,
;0b00000000, 0b00110000,
;0b00000000, 0b00110000,
;0b00000000, 0b00110000,
;0b00000000, 0b01111000,
;0b00000000, 0b00000000,
;0b00000000, 0b00000000,
;};
;
;flash char S_53[32] =
;{
;0b00000000, 0b00000000,
;0b00001111, 0b11111000,
;0b00001111, 0b11110000,
;0b00001000, 0b00000000,
;0b00010000, 0b00000000,
;0b00010000, 0b00000000,
;0b00011111, 0b11100000,
;0b00000000, 0b00110000,
;0b00000000, 0b00011000,
;0b00000000, 0b00011000,
;0b00000000, 0b00011000,
;0b00011000, 0b00011000,
;0b00011100, 0b00110000,
;0b00001111, 0b11100000,
;0b00000000, 0b00000000,
;0b00000000, 0b00000000,
;};
;
;flash char S_54[32] =
;{
;0b00000000, 0b00000000,
;0b00000011, 0b11100000,
;0b00000110, 0b00010000,
;0b00001100, 0b00000000,
;0b00001000, 0b00000000,
;0b00011000, 0b00000000,
;0b00011111, 0b11100000,
;0b00011100, 0b00110000,
;0b00011000, 0b00011000,
;0b00011000, 0b00011000,
;0b00011000, 0b00011000,
;0b00011000, 0b00011000,
;0b00001100, 0b00110000,
;0b00000111, 0b11100000,
;0b00000000, 0b00000000,
;0b00000000, 0b00000000,
;};
;
;flash char S_55[32] =
;{
;0b00000000, 0b00000000,
;0b00011111, 0b11111000,
;0b00010000, 0b00011000,
;0b00000000, 0b00010000,
;0b00000000, 0b00100000,
;0b00000000, 0b00100000,
;0b00000000, 0b01000000,
;0b00000000, 0b01000000,
;0b00000000, 0b10000000,
;0b00000000, 0b10000000,
;0b00000001, 0b00000000,
;0b00000001, 0b00000000,
;0b00000010, 0b00000000,
;0b00000010, 0b00000000,
;0b00000000, 0b00000000,
;0b00000000, 0b00000000,
;};
;
;flash char S_56[32] =
;{
;0b00000000, 0b00000000,
;0b00000111, 0b11100000,
;0b00001100, 0b00110000,
;0b00001000, 0b00010000,
;0b00001000, 0b00010000,
;0b00001100, 0b00110000,
;0b00000111, 0b11100000,
;0b00001100, 0b00110000,
;0b00011000, 0b00011000,
;0b00011000, 0b00011000,
;0b00011000, 0b00011000,
;0b00011000, 0b00011000,
;0b00001100, 0b00110000,
;0b00000111, 0b11100000,
;0b00000000, 0b00000000,
;0b00000000, 0b00000000,
;};
;
;flash char S_57[32] =
;{
;0b00000000, 0b00000000,
;0b00000111, 0b11100000,
;0b00001100, 0b00110000,
;0b00011000, 0b00011000,
;0b00011000, 0b00011000,
;0b00011000, 0b00011000,
;0b00001100, 0b00111000,
;0b00000111, 0b11111000,
;0b00000000, 0b00011000,
;0b00000000, 0b00010000,
;0b00000000, 0b00100000,
;0b00000000, 0b00100000,
;0b00000000, 0b11000000,
;0b00000011, 0b00000000,
;0b00000000, 0b00000000,
;0b00000000, 0b00000000,
;};
;
;// спец символы
;flash char S_32[32] =
;{
;0b00000000, 0b00000000,
;0b00000000, 0b00000000,
;0b00000000, 0b00000000,
;0b00000000, 0b00000000,
;0b00000000, 0b00000000,
;0b00000000, 0b00000000,
;0b00000000, 0b00000000,
;0b00000000, 0b00000000,
;0b00000000, 0b00000000,
;0b00000000, 0b00000000,
;0b00000000, 0b00000000,
;0b00000000, 0b00000000,
;0b00000000, 0b00000000,
;0b00000000, 0b00000000,
;0b00000000, 0b00000000,
;0b00000000, 0b00000000,
;};
;
;flash char S_33[32] =
;{
;0b00000000, 0b00000000,
;0b00000001, 0b10000000,
;0b00000001, 0b10000000,
;0b00000001, 0b10000000,
;0b00000001, 0b10000000,
;0b00000001, 0b10000000,
;0b00000001, 0b10000000,
;0b00000001, 0b10000000,
;0b00000001, 0b10000000,
;0b00000001, 0b10000000,
;0b00000001, 0b10000000,
;0b00000000, 0b00000000,
;0b00000001, 0b10000000,
;0b00000001, 0b10000000,
;0b00000000, 0b00000000,
;0b00000000, 0b00000000,
;};
;
;flash char S_40[32] =
;{
;0b00000000, 0b00000000,
;0b00000000, 0b01100000,
;0b00000000, 0b10000000,
;0b00000001, 0b00000000,
;0b00000010, 0b00000000,
;0b00000010, 0b00000000,
;0b00000100, 0b00000000,
;0b00000100, 0b00000000,
;0b00000100, 0b00000000,
;0b00000010, 0b00000000,
;0b00000010, 0b00000000,
;0b00000001, 0b00000000,
;0b00000000, 0b10000000,
;0b00000000, 0b01100000,
;0b00000000, 0b00000000,
;0b00000000, 0b00000000,
;};
;
;flash char S_41[32] =
;{
;0b00000000, 0b00000000,
;0b00000110, 0b00000000,
;0b00000001, 0b00000000,
;0b00000000, 0b10000000,
;0b00000000, 0b01000000,
;0b00000000, 0b01000000,
;0b00000000, 0b00100000,
;0b00000000, 0b00100000,
;0b00000000, 0b00100000,
;0b00000000, 0b01000000,
;0b00000000, 0b01000000,
;0b00000000, 0b10000000,
;0b00000001, 0b00000000,
;0b00000110, 0b00000000,
;0b00000000, 0b00000000,
;0b00000000, 0b00000000,
;};
;
;flash char S_47[32] =
;{
;0b00000000, 0b00000000,
;0b00000000, 0b00000000,
;0b00000000, 0b00001000,
;0b00000000, 0b00011000,
;0b00000000, 0b00110000,
;0b00000000, 0b01100000,
;0b00000000, 0b11000000,
;0b00000001, 0b10000000,
;0b00000011, 0b00000000,
;0b00000110, 0b00000000,
;0b00001100, 0b00000000,
;0b00011000, 0b00000000,
;0b00010000, 0b00000000,
;0b00000000, 0b00000000,
;0b00000000, 0b00000000,
;0b00000000, 0b00000000,
;};
;
;flash char S_43[32] =
;{
;0b00000000, 0b00000000,
;0b00000000, 0b00000000,
;0b00000001, 0b10000000,
;0b00000001, 0b10000000,
;0b00000001, 0b10000000,
;0b00000001, 0b10000000,
;0b00000001, 0b10000000,
;0b00111111, 0b11111100,
;0b00111111, 0b11111100,
;0b00000001, 0b10000000,
;0b00000001, 0b10000000,
;0b00000001, 0b10000000,
;0b00000001, 0b10000000,
;0b00000001, 0b10000000,
;0b00000000, 0b00000000,
;0b00000000, 0b00000000,
;};
;
;flash char S_45[32] =
;{
;0b00000000, 0b00000000,
;0b00000000, 0b00000000,
;0b00000000, 0b00000000,
;0b00000000, 0b00000000,
;0b00000000, 0b00000000,
;0b00000000, 0b00000000,
;0b00000000, 0b00000000,
;0b00111111, 0b11111100,
;0b00111111, 0b11111100,
;0b00000000, 0b00000000,
;0b00000000, 0b00000000,
;0b00000000, 0b00000000,
;0b00000000, 0b00000000,
;0b00000000, 0b00000000,
;0b00000000, 0b00000000,
;0b00000000, 0b00000000,
;};
;
;flash char S_58[32] =
;{
;0b00000000, 0b00000000,
;0b00000000, 0b00000000,
;0b00000000, 0b00000000,
;0b00000001, 0b10000000,
;0b00000001, 0b10000000,
;0b00000000, 0b00000000,
;0b00000000, 0b00000000,
;0b00000000, 0b00000000,
;0b00000000, 0b00000000,
;0b00000000, 0b00000000,
;0b00000001, 0b10000000,
;0b00000001, 0b10000000,
;0b00000000, 0b00000000,
;0b00000000, 0b00000000,
;0b00000000, 0b00000000,
;0b00000000, 0b00000000,
;};
;
;flash char S_60[32] =
;{
;0b00000000, 0b00000000,
;0b00000000, 0b00110000,
;0b00000000, 0b01100000,
;0b00000000, 0b11000000,
;0b00000001, 0b10000000,
;0b00000011, 0b00000000,
;0b00000110, 0b00000000,
;0b00001100, 0b00000000,
;0b00000110, 0b00000000,
;0b00000011, 0b00000000,
;0b00000001, 0b10000000,
;0b00000000, 0b11000000,
;0b00000000, 0b01100000,
;0b00000000, 0b00110000,
;0b00000000, 0b00000000,
;0b00000000, 0b00000000,
;};
;
;flash char S_61[32] =
;{
;0b00000000, 0b00000000,
;0b00000000, 0b00000000,
;0b00000000, 0b00000000,
;0b00000000, 0b00000000,
;0b00001111, 0b11110000,
;0b00001111, 0b11110000,
;0b00000000, 0b00000000,
;0b00000000, 0b00000000,
;0b00000000, 0b00000000,
;0b00001111, 0b11110000,
;0b00001111, 0b11110000,
;0b00000000, 0b00000000,
;0b00000000, 0b00000000,
;0b00000000, 0b00000000,
;0b00000000, 0b00000000,
;0b00000000, 0b00000000,
;};
;
;flash char S_62[32] =
;{
;0b00000000, 0b00000000,
;0b00001100, 0b00000000,
;0b00000110, 0b00000000,
;0b00000011, 0b00000000,
;0b00000001, 0b10000000,
;0b00000000, 0b11000000,
;0b00000000, 0b01100000,
;0b00000000, 0b00110000,
;0b00000000, 0b01100000,
;0b00000000, 0b11000000,
;0b00000001, 0b10000000,
;0b00000011, 0b00000000,
;0b00000110, 0b00000000,
;0b00001100, 0b00000000,
;0b00000000, 0b00000000,
;0b00000000, 0b00000000,
;};
;
;flash char S_63[32] =
;{
;0b00000000, 0b00000000,
;0b00000011, 0b11000000,
;0b00000110, 0b01100000,
;0b00001100, 0b00110000,
;0b00001100, 0b00110000,
;0b00000100, 0b00110000,
;0b00000000, 0b01100000,
;0b00000000, 0b11000000,
;0b00000001, 0b10000000,
;0b00000001, 0b10000000,
;0b00000001, 0b10000000,
;0b00000000, 0b00000000,
;0b00000001, 0b10000000,
;0b00000001, 0b10000000,
;0b00000000, 0b00000000,
;0b00000000, 0b00000000,
;};
;
;// русские заглавные буквы
;flash char S_192[32] =
;{
;0b00000000, 0b00000000,
;0b00000000, 0b11100000,
;0b00000000, 0b11100000,
;0b00000001, 0b00100000,
;0b00000001, 0b00100000,
;0b00000010, 0b00110000,
;0b00000010, 0b00010000,
;0b00000100, 0b00010000,
;0b00000100, 0b00011000,
;0b00001111, 0b11111000,
;0b00011000, 0b00011000,
;0b00010000, 0b00001100,
;0b00110000, 0b00001100,
;0b01111000, 0b00011110,
;0b00000000, 0b00000000,
;0b00000000, 0b00000000,
;};
;
;flash char S_193[32] =
;{
;0b00000000, 0b00000000,
;0b01111111, 0b11111110,
;0b00110000, 0b00011110,
;0b00110000, 0b00000010,
;0b00110000, 0b00000000,
;0b00110000, 0b00000000,
;0b00111111, 0b11111000,
;0b00111111, 0b11111100,
;0b00110000, 0b00001110,
;0b00110000, 0b00000110,
;0b00110000, 0b00000110,
;0b00110000, 0b00001110,
;0b00111111, 0b11111100,
;0b01111111, 0b11111000,
;0b00000000, 0b00000000,
;0b00000000, 0b00000000,
;};
;
;flash char S_194[32] =
;{
;0b00000000, 0b00000000,
;0b01111111, 0b11110000,
;0b00110000, 0b00011000,
;0b00110000, 0b00001100,
;0b00110000, 0b00001100,
;0b00110000, 0b00011000,
;0b00111111, 0b11111000,
;0b00111111, 0b11111100,
;0b00110000, 0b00001110,
;0b00110000, 0b00000110,
;0b00110000, 0b00000110,
;0b00110000, 0b00001110,
;0b00111111, 0b11111100,
;0b01111111, 0b11111000,
;0b00000000, 0b00000000,
;0b00000000, 0b00000000,
;};
;
;flash char S_195[32] =
;{
;0b00000000, 0b00000000,
;0b01111111, 0b11111110,
;0b00110000, 0b00011110,
;0b00110000, 0b00000010,
;0b00110000, 0b00000000,
;0b00110000, 0b00000000,
;0b00110000, 0b00000000,
;0b00110000, 0b00000000,
;0b00110000, 0b00000000,
;0b00110000, 0b00000000,
;0b00110000, 0b00000000,
;0b00110000, 0b00000000,
;0b00110000, 0b00000000,
;0b01111000, 0b00000000,
;0b00000000, 0b00000000,
;0b00000000, 0b00000000,
;};
;
;flash char S_196[32] =
;{
;0b00000000, 0b00000000,
;0b00000011, 0b11111100,
;0b00000001, 0b00011000,
;0b00000001, 0b00011000,
;0b00000001, 0b00011000,
;0b00000001, 0b00011000,
;0b00000001, 0b00011000,
;0b00000001, 0b00011000,
;0b00000010, 0b00011000,
;0b00000100, 0b00011000,
;0b00001000, 0b00011000,
;0b00111111, 0b11111100,
;0b00111000, 0b00111100,
;0b00110000, 0b00001100,
;0b00100000, 0b00000100,
;0b00000000, 0b00000000,
;};
;
;flash char S_197[32] =
;{
;0b00000000, 0b00000000,
;0b01111111, 0b11111100,
;0b00110000, 0b00011100,
;0b00110000, 0b00000100,
;0b00110000, 0b00000000,
;0b00110000, 0b10000000,
;0b00111111, 0b10000000,
;0b00111111, 0b10000000,
;0b00110000, 0b10000000,
;0b00110000, 0b00000000,
;0b00110000, 0b00000000,
;0b00110000, 0b00000100,
;0b00110000, 0b00011100,
;0b01111111, 0b11111100,
;0b00000000, 0b00000000,
;0b00000000, 0b00000000,
;};
;
;flash char S_198[32] =
;{
;0b00000000, 0b00000000,
;0b01100011, 0b11000110,
;0b01010001, 0b10001010,
;0b00010001, 0b10001000,
;0b00001001, 0b10010000,
;0b00001001, 0b10010000,
;0b00000111, 0b11100000,
;0b00000111, 0b11100000,
;0b00001101, 0b10110000,
;0b00011001, 0b10011000,
;0b00010001, 0b10001000,
;0b00110001, 0b10001100,
;0b00100001, 0b10000100,
;0b01100011, 0b11000110,
;0b00000000, 0b00000000,
;0b00000000, 0b00000000,
;};
;
;flash char S_199[32] =
;{
;0b00000000, 0b00000000,
;0b00001111, 0b11100000,
;0b00111000, 0b00111000,
;0b01100000, 0b00001100,
;0b00000000, 0b00000100,
;0b00000000, 0b00001100,
;0b00000011, 0b11111000,
;0b00000000, 0b00001000,
;0b00000000, 0b00000100,
;0b00000000, 0b00000110,
;0b00000000, 0b00000110,
;0b01100000, 0b00001100,
;0b00111111, 0b11111000,
;0b00001111, 0b11100000,
;0b00000000, 0b00000000,
;0b00000000, 0b00000000,
;};
;
;flash char S_200[32] =
;{
;0b00000000, 0b00000000,
;0b01111000, 0b00011110,
;0b00110000, 0b00001100,
;0b00110000, 0b00011100,
;0b00110000, 0b00111100,
;0b00110000, 0b01101100,
;0b00110000, 0b11001100,
;0b00110001, 0b10001100,
;0b00110011, 0b00001100,
;0b00110110, 0b00001100,
;0b00111100, 0b00001100,
;0b00111000, 0b00001100,
;0b00110000, 0b00001100,
;0b01111000, 0b00011110,
;0b00000000, 0b00000000,
;0b00000000, 0b00000000,
;};
;
;flash char S_201[32] =
;{
;0b00000011, 0b11000000,
;0b01111001, 0b10011110,
;0b00110000, 0b00001100,
;0b00110000, 0b00011100,
;0b00110000, 0b00111100,
;0b00110000, 0b01101100,
;0b00110000, 0b11001100,
;0b00110001, 0b10001100,
;0b00110011, 0b00001100,
;0b00110110, 0b00001100,
;0b00111100, 0b00001100,
;0b00111000, 0b00001100,
;0b00110000, 0b00001100,
;0b01111000, 0b00011110,
;0b00000000, 0b00000000,
;0b00000000, 0b00000000,
;};
;
;flash char S_202[32] =
;{
;0b00000000, 0b00000000,
;0b01111000, 0b00111100,
;0b00110000, 0b01101100,
;0b00110000, 0b11000000,
;0b00110001, 0b10000000,
;0b00110011, 0b00000000,
;0b00111111, 0b00000000,
;0b00111001, 0b10000000,
;0b00110000, 0b11000000,
;0b00110000, 0b01100000,
;0b00110000, 0b00110000,
;0b00110000, 0b00011000,
;0b00110000, 0b00001100,
;0b01111000, 0b00011110,
;0b00000000, 0b00000000,
;0b00000000, 0b00000000,
;};
;
;flash char S_203[32] =
;{
;0b00000000, 0b00000000,
;0b00000001, 0b11111110,
;0b00000000, 0b10001100,
;0b00000000, 0b10001100,
;0b00000000, 0b10001100,
;0b00000000, 0b10001100,
;0b00000001, 0b00001100,
;0b00000001, 0b00001100,
;0b00000001, 0b00001100,
;0b00000010, 0b00001100,
;0b00000010, 0b00001100,
;0b00000100, 0b00001100,
;0b01101000, 0b00001100,
;0b01110000, 0b00011110,
;0b00000000, 0b00000000,
;0b00000000, 0b00000000,
;};
;
;flash char S_204[32] =
;{
;0b00000000, 0b00000000,
;0b01110000, 0b00001110,
;0b00111000, 0b00011100,
;0b00111000, 0b00011100,
;0b00110100, 0b00101100,
;0b00110100, 0b00101100,
;0b00110100, 0b00101100,
;0b00110010, 0b01001100,
;0b00110010, 0b01001100,
;0b00110010, 0b01001100,
;0b00110001, 0b10001100,
;0b00110001, 0b10001100,
;0b00110001, 0b10001100,
;0b01111000, 0b00011110,
;0b00000000, 0b00000000,
;0b00000000, 0b00000000,
;};
;
;flash char S_205[32] =
;{
;0b00000000, 0b00000000,
;0b01111000, 0b00011110,
;0b00110000, 0b00001100,
;0b00110000, 0b00001100,
;0b00110000, 0b00001100,
;0b00110000, 0b00001100,
;0b00111111, 0b11111100,
;0b00111111, 0b11111100,
;0b00110000, 0b00001100,
;0b00110000, 0b00001100,
;0b00110000, 0b00001100,
;0b00110000, 0b00001100,
;0b00110000, 0b00001100,
;0b01111000, 0b00011110,
;0b00000000, 0b00000000,
;0b00000000, 0b00000000,
;};
;
;flash char S_206[32] =
;{
;0b00000000, 0b00000000,
;0b00000111, 0b11100000,
;0b00011110, 0b01111000,
;0b00111000, 0b00011100,
;0b00110000, 0b00001100,
;0b01110000, 0b00001110,
;0b01110000, 0b00001110,
;0b01110000, 0b00001110,
;0b01110000, 0b00001110,
;0b01110000, 0b00001110,
;0b00110000, 0b00001100,
;0b00111000, 0b00011100,
;0b00011110, 0b01111000,
;0b00000111, 0b11100000,
;0b00000000, 0b00000000,
;0b00000000, 0b00000000,
;};
;
;flash char S_207[32] =
;{
;0b00000000, 0b00000000,
;0b01111111, 0b11111110,
;0b00111111, 0b11111100,
;0b00110000, 0b00001100,
;0b00110000, 0b00001100,
;0b00110000, 0b00001100,
;0b00110000, 0b00001100,
;0b00110000, 0b00001100,
;0b00110000, 0b00001100,
;0b00110000, 0b00001100,
;0b00110000, 0b00001100,
;0b00110000, 0b00001100,
;0b00110000, 0b00001100,
;0b01111000, 0b00011110,
;0b00000000, 0b00000000,
;0b00000000, 0b00000000,
;};
;
;flash char S_208[32] =
;{
;0b00000000, 0b00000000,
;0b01111111, 0b11111000,
;0b00110000, 0b00001100,
;0b00110000, 0b00000110,
;0b00110000, 0b00000110,
;0b00110000, 0b00000110,
;0b00110000, 0b00001100,
;0b00111111, 0b11111000,
;0b00110000, 0b00000000,
;0b00110000, 0b00000000,
;0b00110000, 0b00000000,
;0b00110000, 0b00000000,
;0b00110000, 0b00000000,
;0b01111000, 0b00000000,
;0b00000000, 0b00000000,
;0b00000000, 0b00000000,
;};
;
;flash char S_209[32] =
;{
;0b00000000, 0b00000000,
;0b00000111, 0b11100000,
;0b00011110, 0b01111000,
;0b00111000, 0b00011100,
;0b00110000, 0b00000100,
;0b01110000, 0b00000000,
;0b01110000, 0b00000000,
;0b01110000, 0b00000000,
;0b01110000, 0b00000000,
;0b01110000, 0b00000000,
;0b00110000, 0b00000100,
;0b00111000, 0b00011100,
;0b00011110, 0b01111000,
;0b00000111, 0b11100000,
;0b00000000, 0b00000000,
;0b00000000, 0b00000000,
;};
;
;flash char S_210[32] =
;{
;0b00000000, 0b00000000,
;0b01111111, 0b11111110,
;0b01100001, 0b10000110,
;0b01000001, 0b10000010,
;0b00000001, 0b10000000,
;0b00000001, 0b10000000,
;0b00000001, 0b10000000,
;0b00000001, 0b10000000,
;0b00000001, 0b10000000,
;0b00000001, 0b10000000,
;0b00000001, 0b10000000,
;0b00000001, 0b10000000,
;0b00000001, 0b10000000,
;0b00000011, 0b11000000,
;0b00000000, 0b00000000,
;0b00000000, 0b00000000,
;};
;
;flash char S_211[32] =
;{
;0b00000000, 0b00000000,
;0b01111000, 0b00001110,
;0b00110000, 0b00000100,
;0b00011000, 0b00000100,
;0b00001100, 0b00001000,
;0b00000110, 0b00001000,
;0b00000011, 0b00010000,
;0b00000001, 0b10010000,
;0b00000000, 0b11100000,
;0b00000000, 0b01100000,
;0b00000000, 0b01000000,
;0b00001100, 0b01000000,
;0b00001100, 0b10000000,
;0b00000111, 0b00000000,
;0b00000000, 0b00000000,
;0b00000000, 0b00000000,
;};
;
;flash char S_212[32] =
;{
;0b00000000, 0b00000000,
;0b00000011, 0b11000000,
;0b00000001, 0b10000000,
;0b00001111, 0b11110000,
;0b00111001, 0b10011100,
;0b01100001, 0b10000110,
;0b01000001, 0b10000010,
;0b01000001, 0b10000010,
;0b01100001, 0b10000110,
;0b00111001, 0b10011100,
;0b00001111, 0b11110000,
;0b00000001, 0b10000000,
;0b00000001, 0b10000000,
;0b00000011, 0b11000000,
;0b00000000, 0b00000000,
;0b00000000, 0b00000000,
;};
;
;flash char S_213[32] =
;{
;0b00000000, 0b00000000,
;0b01111000, 0b00011110,
;0b00110000, 0b00000100,
;0b00011000, 0b00001000,
;0b00001100, 0b00010000,
;0b00000110, 0b00100000,
;0b00000011, 0b01000000,
;0b00000001, 0b10000000,
;0b00000010, 0b11000000,
;0b00000100, 0b01100000,
;0b00001000, 0b00110000,
;0b00010000, 0b00011000,
;0b00100000, 0b00001100,
;0b01111000, 0b00011110,
;0b00000000, 0b00000000,
;0b00000000, 0b00000000,
;};
;
;flash char S_214[32] =
;{
;0b00000000, 0b00000000,
;0b01111000, 0b00011110,
;0b00110000, 0b00001100,
;0b00110000, 0b00001100,
;0b00110000, 0b00001100,
;0b00110000, 0b00001100,
;0b00110000, 0b00001100,
;0b00110000, 0b00001100,
;0b00110000, 0b00001100,
;0b00110000, 0b00001100,
;0b00110000, 0b00001100,
;0b00110000, 0b00001100,
;0b00110000, 0b00001100,
;0b01111111, 0b11111110,
;0b00000000, 0b00000110,
;0b00000000, 0b00000010,
;};
;
;flash char S_215[32] =
;{
;0b00000000, 0b00000000,
;0b01111000, 0b00011110,
;0b00110000, 0b00001100,
;0b00110000, 0b00001100,
;0b00110000, 0b00001100,
;0b00110000, 0b00001100,
;0b00111000, 0b00001100,
;0b00011111, 0b11111100,
;0b00000000, 0b00001100,
;0b00000000, 0b00001100,
;0b00000000, 0b00001100,
;0b00000000, 0b00001100,
;0b00000000, 0b00001100,
;0b00000000, 0b00011110,
;0b00000000, 0b00000000,
;0b00000000, 0b00000000,
;};
;
;flash char S_216[32] =
;{
;0b00000000, 0b00000000,
;0b01111011, 0b11011110,
;0b00110001, 0b10001100,
;0b00110001, 0b10001100,
;0b00110001, 0b10001100,
;0b00110001, 0b10001100,
;0b00110001, 0b10001100,
;0b00110001, 0b10001100,
;0b00110001, 0b10001100,
;0b00110001, 0b10001100,
;0b00110001, 0b10001100,
;0b00110001, 0b10001100,
;0b00110001, 0b10001100,
;0b01111111, 0b11111110,
;0b00000000, 0b00000000,
;0b00000000, 0b00000000,
;};
;
;flash char S_217[32] =
;{
;0b00000000, 0b00000000,
;0b01111011, 0b11011110,
;0b00110001, 0b10001100,
;0b00110001, 0b10001100,
;0b00110001, 0b10001100,
;0b00110001, 0b10001100,
;0b00110001, 0b10001100,
;0b00110001, 0b10001100,
;0b00110001, 0b10001100,
;0b00110001, 0b10001100,
;0b00110001, 0b10001100,
;0b00110001, 0b10001100,
;0b00110001, 0b10001100,
;0b01111111, 0b11111110,
;0b00000000, 0b00000110,
;0b00000000, 0b00000010,
;};
;
;flash char S_218[32] =
;{
;0b00000000, 0b00000000,
;0b01111100, 0b00000000,
;0b01011000, 0b00000000,
;0b01011000, 0b00000000,
;0b01011000, 0b00000000,
;0b00011000, 0b00000000,
;0b00011000, 0b00000000,
;0b00011111, 0b11111000,
;0b00011000, 0b00001100,
;0b00011000, 0b00000110,
;0b00011000, 0b00000110,
;0b00011000, 0b00000110,
;0b00011000, 0b00001100,
;0b00111111, 0b11111000,
;0b00000000, 0b00000000,
;0b00000000, 0b00000000,
;};
;
;flash char S_219[32] =
;{
;0b00000000, 0b00000000,
;0b01111000, 0b00011110,
;0b00110000, 0b00001100,
;0b00110000, 0b00001100,
;0b00110000, 0b00001100,
;0b00110000, 0b00001100,
;0b00110000, 0b00001100,
;0b00111111, 0b10001100,
;0b00110000, 0b01001100,
;0b00110000, 0b00101100,
;0b00110000, 0b00101100,
;0b00110000, 0b00101100,
;0b00110000, 0b01001100,
;0b01111111, 0b10011110,
;0b00000000, 0b00000000,
;0b00000000, 0b00000000,
;};
;
;flash char S_220[32] =
;{
;0b00000000, 0b00000000,
;0b01111000, 0b00000000,
;0b00110000, 0b00000000,
;0b00110000, 0b00000000,
;0b00110000, 0b00000000,
;0b00110000, 0b00000000,
;0b00110000, 0b00000000,
;0b00111111, 0b11111000,
;0b00110000, 0b00001100,
;0b00110000, 0b00000110,
;0b00110000, 0b00000110,
;0b00110000, 0b00000110,
;0b00110000, 0b00001100,
;0b01111111, 0b11111000,
;0b00000000, 0b00000000,
;0b00000000, 0b00000000,
;};
;
;flash char S_221[32] =
;{
;0b00000000, 0b00000000,
;0b00000111, 0b11100000,
;0b00011110, 0b01111000,
;0b00111000, 0b00011100,
;0b00110000, 0b00001100,
;0b00000000, 0b00001110,
;0b00000000, 0b00001110,
;0b00000000, 0b11111110,
;0b00000000, 0b00001110,
;0b00000000, 0b00001110,
;0b00110000, 0b00001100,
;0b00111000, 0b00011100,
;0b00011110, 0b01111000,
;0b00000111, 0b11100000,
;0b00000000, 0b00000000,
;0b00000000, 0b00000000,
;};
;
;flash char S_222[32] =
;{
;0b00000000, 0b00000000,
;0b01111001, 0b11111000,
;0b00110011, 0b00001100,
;0b00110010, 0b00000100,
;0b00110110, 0b00000110,
;0b00110110, 0b00000110,
;0b00110110, 0b00000110,
;0b00111110, 0b00000110,
;0b00110110, 0b00000110,
;0b00110110, 0b00000110,
;0b00110110, 0b00000110,
;0b00110010, 0b00000100,
;0b00110011, 0b00001100,
;0b01111001, 0b11111000,
;0b00000000, 0b00000000,
;0b00000000, 0b00000000,
;};
;
;flash char S_223[32] =
;{
;0b00000000, 0b00000000,
;0b00000011, 0b11111110,
;0b00000110, 0b00001100,
;0b00001100, 0b00001100,
;0b00001100, 0b00001100,
;0b00001100, 0b00001100,
;0b00000110, 0b00001100,
;0b00000011, 0b11111100,
;0b00000011, 0b00001100,
;0b00000110, 0b00001100,
;0b00001100, 0b00001100,
;0b00011000, 0b00001100,
;0b00110000, 0b00001100,
;0b01111000, 0b00011110,
;0b00000000, 0b00000000,
;0b00000000, 0b00000000,
;};
;
;
;
;#include "SSD1963.c"
;#define flipState       0x03
;#define DISP_WIDTH      480
;#define DISP_HEIGHT     272
;
;#define HDP    (DISP_WIDTH - 1)
;#define HT     900
;#define HPS    90
;#define LPS    8
;#define HPW    10
;
;#define VDP    (DISP_HEIGHT - 1)
;#define VT     300
;#define VPS    12
;#define FPS    4
;#define VPW    10
;
;#define SSD1963_SET_COLUMN_ADDRESS 0x2A
;#define SSD1963_SET_PAGE_ADDRESS 0x2B
;
;// цвет определяется по системе RGB565
;// у пульта лебёдчика идёт всё запутанно
;// вместо 0bRRRRRGGGGGGBBBBB
;// 0bGGGRRRRRBBBBBGGG
;
;// 0bRRRRR GGGGGG BBBBB
;// 0b01111 011111 01111
;
;// 0bGGGRRRRRBBBBBGGG
;// 0b0010000100001000
;#define   BLACK        0x0000
;#define   NAVY         0b111100000000000
;#define   DGREEN       0x03E0
;#define   DCYAN        0x03EF
;#define   MAROON       0x7800
;#define   PURPLE       0x780F
;#define   OLIVE        0x7BE0
;#define   GREY         0xF7DE
;#define   LGRAY        0xC618
;#define   DGRAY        0b0010000100001000
;#define   BLUE         0b0000000011111000
;#define   GREEN        0b1110000000000111
;#define   CYAN         0x07FF
;#define   RED          0b0001111100000000
;#define   MAGENTA      0xF81F
;#define   YELLOW       0b1111111100000111
;#define   WHITE        0xFFFF
;
;#define  SSD1963_RS     PORTD.7
;#define  SSD1963_WR     PORTD.6
;#define  SSD1963_RD     PORTD.5
;#define  SSD1963_CS     PORTE.7
;#define  SSD1963_RESET  PORTE.5
;#define  SSD1963_PORT1  PORTA
;#define  SSD1963_PORT2  PORTC
;
;#define  BACKGROUND_COLOR 0x0000
;#define  FONT_WIDTH 16
;#define  FONT_HEIGHT 16
;
;void SSD1963_PortInit(void)
; 0000 001B {

	.CSEG
_SSD1963_PortInit:
;    //SSD1963_PORT
;    DDRA = 0xFF;
	LDI  R30,LOW(255)
	OUT  0x1A,R30
;    DDRC = 0xFF;
	OUT  0x14,R30
;    //SSD1963 76543210
;    DDRD |= 0b11100000;
	IN   R30,0x11
	ORI  R30,LOW(0xE0)
	OUT  0x11,R30
;    DDRE |= 0b10100000;
	IN   R30,0x2
	ORI  R30,LOW(0xA0)
	OUT  0x2,R30
;}
	RET
;
;#pragma used+
;
;unsigned char RotateByte(unsigned char Value)
;{
_RotateByte:
;  //Value = RotationByte[Value];
;  Value = ((Value >> 1) & 0x55) | ((Value << 1) & 0xaa);
;	Value -> Y+0
	CALL SUBOPT_0x0
	ASR  R31
	ROR  R30
	ANDI R30,LOW(0x55)
	MOV  R26,R30
	LD   R30,Y
	LSL  R30
	ANDI R30,LOW(0xAA)
	OR   R30,R26
	ST   Y,R30
;  Value = ((Value >> 2) & 0x33) | ((Value << 2) & 0xcc);
	CALL SUBOPT_0x0
	CALL __ASRW2
	ANDI R30,LOW(0x33)
	MOV  R26,R30
	LD   R30,Y
	LSL  R30
	LSL  R30
	ANDI R30,LOW(0xCC)
	OR   R30,R26
	ST   Y,R30
;  Value = ((Value >> 4) & 0x0f) | ((Value << 4) & 0xf0);
	CALL SUBOPT_0x0
	CALL __ASRW4
	ANDI R30,LOW(0xF)
	MOV  R26,R30
	LD   R30,Y
	SWAP R30
	ANDI R30,LOW(0xF0)
	OR   R30,R26
	ST   Y,R30
;  return Value;
	RJMP _0x2080008
;}
;
;void SSD1963_Reset(void)
;{
_SSD1963_Reset:
;  SSD1963_RD = 0;
	CBI  0x12,5
;  SSD1963_RESET = 1;
	SBI  0x3,5
;  delay_ms(100);
	CALL SUBOPT_0x1
;  SSD1963_RESET = 0;
	CBI  0x3,5
;  delay_ms(100);
	CALL SUBOPT_0x1
;  SSD1963_RESET = 1;
	SBI  0x3,5
;  SSD1963_RD = 1;
	SBI  0x12,5
;  delay_ms(100);
	CALL SUBOPT_0x1
;}
	RET
;
;// Запись команды в SSD1963
;inline void SSD1963_WriteCmd(unsigned char cmd)
;{
_SSD1963_WriteCmd:
;  SSD1963_RD = 1;
;	cmd -> Y+0
	SBI  0x12,5
;  SSD1963_RS = 0;                                                  //запись команды
	CBI  0x12,7
;  SSD1963_PORT1 = RotateByte(cmd);
	CALL SUBOPT_0x2
;  SSD1963_PORT2 = 0x00;
;  #asm("nop")
	nop
;  //delay_us(5);
;  SSD1963_CS = 0;
	CBI  0x3,7
;  SSD1963_WR = 0;
	CBI  0x12,6
;  #asm("nop")
	nop
;  //delay_us(5);
;  SSD1963_CS = 1;
	SBI  0x3,7
;  SSD1963_WR = 1;
	SBI  0x12,6
;  #asm("nop")
	nop
	RJMP _0x2080007
;} // SSD1963_WriteCmd
;
;// Запись данных в SSD1963
;inline void SSD1963_WriteData_b8(unsigned char data)
;{
_SSD1963_WriteData_b8:
;  SSD1963_RD = 1;
;	data -> Y+0
	SBI  0x12,5
;  SSD1963_RS = 1;                                                  //запись ДАННЫХ
	SBI  0x12,7
;  SSD1963_PORT1 = RotateByte(data);
	CALL SUBOPT_0x2
;  SSD1963_PORT2 = 0x00;
;  #asm("nop")
	nop
;  //delay_us(5);
;  SSD1963_CS = 0;
	CBI  0x3,7
;  SSD1963_WR = 0;
	CBI  0x12,6
;  #asm("nop")
	nop
;  //delay_us(5);
;  SSD1963_CS = 1;
	SBI  0x3,7
;  SSD1963_WR = 1;
	SBI  0x12,6
;  #asm("nop")
	nop
_0x2080007:
;} // SSD1963_Writedata
_0x2080008:
	ADIW R28,1
	RET
;
;// Запись данных в SSD1963
;inline void SSD1963_WriteData_b16(unsigned int data)
;{
_SSD1963_WriteData_b16:
;  char a, b;
;  a = data;
	ST   -Y,R17
	ST   -Y,R16
;	data -> Y+2
;	a -> R17
;	b -> R16
	LDD  R17,Y+2
;  b = data >> 8;
	LDD  R16,Y+3
;  SSD1963_RD = 1;
	SBI  0x12,5
;  SSD1963_RS = 1;                                                  //запись ДАННЫХ
	SBI  0x12,7
;  SSD1963_PORT1 = a;
	OUT  0x1B,R17
;  SSD1963_PORT2 = b;
	OUT  0x15,R16
;  #asm("nop")
	nop
;  //delay_us(5);
;  SSD1963_CS = 0;
	CBI  0x3,7
;  SSD1963_WR = 0;
	CBI  0x12,6
;  #asm("nop")
	nop
;  //delay_us(5);
;  SSD1963_CS = 1;
	SBI  0x3,7
;  SSD1963_WR = 1;
	SBI  0x12,6
;  #asm("nop")
	nop
;} // SSD1963_Writedata
	LDD  R17,Y+1
	LDD  R16,Y+0
	ADIW R28,4
	RET
;
;// Инициализация дисплея
;void SSD1963_Init(void)
;{
_SSD1963_Init:
;  SSD1963_PortInit();
	RCALL _SSD1963_PortInit
;  SSD1963_Reset();
	RCALL _SSD1963_Reset
;  // Soft reset
;  SSD1963_WriteCmd(0x01); //software reset
	CALL SUBOPT_0x3
;  SSD1963_WriteCmd(0x01); //software reset
	CALL SUBOPT_0x3
;  SSD1963_WriteCmd(0x01); //software reset
	CALL SUBOPT_0x3
;  delay_ms(200); //задержка
	CALL SUBOPT_0x4
;
;  SSD1963_WriteCmd(0xE2); //PLLmultiplier, set PLL clock to 120M
	LDI  R30,LOW(226)
	ST   -Y,R30
	RCALL _SSD1963_WriteCmd
;  SSD1963_WriteData_b8(0x23); // множительPLL(M)// N=0x36 for 6.5M, 0x23 for 10M crystal
	LDI  R30,LOW(35)
	ST   -Y,R30
	RCALL _SSD1963_WriteData_b8
;  SSD1963_WriteData_b8(0x02); // делительPLL(N)
	LDI  R30,LOW(2)
	CALL SUBOPT_0x5
;  SSD1963_WriteData_b8(0x04); // команда на использование умножителя и делителя PLL
;  /*SSD1963_WriteData_b8(0x23); // множительPLL(M)// N=0x36 for 6.5M, 0x23 for 10M crystal
;  SSD1963_WriteData_b8(0x02); // делительPLL(N)
;  SSD1963_WriteData_b8(0x04); // команда на использование умножителя и делителя PLL*/
;  SSD1963_WriteCmd(0xE0); // запуск PLL
	LDI  R30,LOW(224)
	CALL SUBOPT_0x6
;  SSD1963_WriteData_b8(0x01); // PLL включена и использовать внутренний генератор как системный
;  delay_ms(1);//ожидание запуска PLL
	CALL SUBOPT_0x7
;
;  SSD1963_WriteCmd(0xE0); // Переключение системы с внутреннего генератора на PLL
	LDI  R30,LOW(224)
	CALL SUBOPT_0x8
;  SSD1963_WriteData_b8(0x03);
;  SSD1963_WriteCmd(0x01); //software reset
	CALL SUBOPT_0x3
;  delay_ms(120); //а здесь лучше сделать 120 вместо 5
	LDI  R30,LOW(120)
	LDI  R31,HIGH(120)
	CALL SUBOPT_0x9
;
;  SSD1963_WriteCmd(0xE6); //Установка частоты переключения пикселя
	LDI  R30,LOW(230)
	CALL SUBOPT_0x6
;  //PLL setting for PCLK, depends on resolution
;  SSD1963_WriteData_b8(0x01); //5,3мГц = PLLfreqx ((частотапереключения+1)/2^20)
;  SSD1963_WriteData_b8(0xDA); // для 100мГц должно быть 0х00D916
	LDI  R30,LOW(218)
	ST   -Y,R30
	RCALL _SSD1963_WriteData_b8
;  SSD1963_WriteData_b8(0x73);
	LDI  R30,LOW(115)
	ST   -Y,R30
	RCALL _SSD1963_WriteData_b8
;
;  SSD1963_WriteCmd(0xB0); //Set LCD mode
	LDI  R30,LOW(176)
	ST   -Y,R30
	RCALL _SSD1963_WriteCmd
;  SSD1963_WriteData_b8(0x24); //24bit
	LDI  R30,LOW(36)
	CALL SUBOPT_0xA
;  SSD1963_WriteData_b8(0x00); //0x0000 и 20 - TFT режим, 40 serial RGB режим
;  SSD1963_WriteData_b8((HDP>>8)&0xFF); //Разрешение по горизонтали //SetHDP
	CALL SUBOPT_0xB
;  SSD1963_WriteData_b8(HDP&0xFF);
	LDI  R30,LOW(223)
	CALL SUBOPT_0xC
;  SSD1963_WriteData_b8((VDP>>8)&0xFF); // Разрешение по вертикали //SetVDP
;  SSD1963_WriteData_b8(VDP&0xFF);
	LDI  R30,LOW(15)
	CALL SUBOPT_0xA
;  SSD1963_WriteData_b8(0x00); // а здесь попробуй поставить 0х2D и тогда не надо мучать 36 регистр
;  //00101101-G[5..3]=101
;  //G[2..0]=101-BGR
;
;  //В4 и В6 частота обновления по горизонтали и вертикали (этовкратце)
;  SSD1963_WriteCmd(0xB4); //Sethorizontalperiod
	LDI  R30,LOW(180)
	CALL SUBOPT_0x8
;  SSD1963_WriteData_b8((HT>>8)&0xFF); //SetHT
;  SSD1963_WriteData_b8(HT&0xFF);
	LDI  R30,LOW(132)
	CALL SUBOPT_0xA
;  SSD1963_WriteData_b8((HPS>>8)&0XFF); //SetHPS
;  SSD1963_WriteData_b8(HPS&0xFF);
	LDI  R30,LOW(90)
	ST   -Y,R30
	RCALL _SSD1963_WriteData_b8
;  SSD1963_WriteData_b8(HPW); //SetHPW
	LDI  R30,LOW(10)
	CALL SUBOPT_0xA
;  SSD1963_WriteData_b8((LPS>>8)&0XFF); //SetHPS
;  SSD1963_WriteData_b8(LPS&0XFF);
	LDI  R30,LOW(8)
	CALL SUBOPT_0xA
;  SSD1963_WriteData_b8(0x00);
;
;  SSD1963_WriteCmd(0xB6); //Set vertical period
	LDI  R30,LOW(182)
	CALL SUBOPT_0x6
;  SSD1963_WriteData_b8((VT>>8)&0xFF); //SetVT
;  SSD1963_WriteData_b8(VT&0xFF);
	LDI  R30,LOW(44)
	CALL SUBOPT_0xA
;  SSD1963_WriteData_b8((VPS>>8)&0xFF); //SetVPS
;  SSD1963_WriteData_b8(VPS&0xFF);
	LDI  R30,LOW(12)
	ST   -Y,R30
	RCALL _SSD1963_WriteData_b8
;  SSD1963_WriteData_b8(VPW); //SetVPW
	LDI  R30,LOW(10)
	ST   -Y,R30
	RCALL _SSD1963_WriteData_b8
;  SSD1963_WriteData_b8((FPS>>8)&0xFF); //SetFPS
	LDI  R30,LOW(0)
	CALL SUBOPT_0x5
;  SSD1963_WriteData_b8(FPS&0xFF);
;
;  //ВА и В8 конфигурация портов между SSD1963 и дисплеем
;  SSD1963_WriteCmd(0xBA);
	LDI  R30,LOW(186)
	ST   -Y,R30
	RCALL _SSD1963_WriteCmd
;  SSD1963_WriteData_b8(0x0F); //GPIO[3:0]out1
	LDI  R30,LOW(15)
	ST   -Y,R30
	RCALL _SSD1963_WriteData_b8
;  SSD1963_WriteCmd(0xB8);
	LDI  R30,LOW(184)
	ST   -Y,R30
	RCALL _SSD1963_WriteCmd
;  SSD1963_WriteData_b8(0x07); //0x07 GPIO3 = input, GPIO[2:0] = output
	LDI  R30,LOW(7)
	CALL SUBOPT_0xC
;  SSD1963_WriteData_b8(0x01); //0x01 GPIO0 normal
;
;  SSD1963_WriteCmd(0x36); //Set Address mode - rotation
	LDI  R30,LOW(54)
	CALL SUBOPT_0x8
;  SSD1963_WriteData_b8(flipState); //бит0 - flipvertical бит1 - fliphorizontal
;
;  SSD1963_WriteCmd(0xBC); //настройка яркости и тд
	LDI  R30,LOW(188)
	ST   -Y,R30
	RCALL _SSD1963_WriteCmd
;  SSD1963_WriteData_b8(0x50); //контраст
	LDI  R30,LOW(80)
	ST   -Y,R30
	RCALL _SSD1963_WriteData_b8
;  SSD1963_WriteData_b8(0x90); //яркость
	LDI  R30,LOW(144)
	ST   -Y,R30
	RCALL _SSD1963_WriteData_b8
;  SSD1963_WriteData_b8(0x50); //насыщеность цвета
	LDI  R30,LOW(80)
	CALL SUBOPT_0xC
;  SSD1963_WriteData_b8(0x01); //постпроцессор (1 - вкл параметры, 0 - выкл)
;
;  SSD1963_WriteCmd(0xF0); //pixel data interface
	LDI  R30,LOW(240)
	CALL SUBOPT_0x8
;  SSD1963_WriteData_b8(0x03); //03h - RGB565
;
;  delay_ms(5);
	LDI  R30,LOW(5)
	LDI  R31,HIGH(5)
	CALL SUBOPT_0x9
;
;  SSD1963_WriteCmd(0x29); //display on
	LDI  R30,LOW(41)
	ST   -Y,R30
	RCALL _SSD1963_WriteCmd
;
;  SSD1963_WriteCmd(0xD0); //отключено ручное управление яркостью //Dynamic Bright Control
	LDI  R30,LOW(208)
	ST   -Y,R30
	RCALL _SSD1963_WriteCmd
;  SSD1963_WriteData_b8(0x0D); //режим энергосбережения - агрессивный
	LDI  R30,LOW(13)
	ST   -Y,R30
	RCALL _SSD1963_WriteData_b8
;} // SSD1963_Init
	RET
;
;void SSD1963_SetArea(unsigned int StartX, unsigned int EndX, unsigned int StartY, unsigned int EndY)
;{
_SSD1963_SetArea:
;  SSD1963_WriteCmd(SSD1963_SET_COLUMN_ADDRESS);
;	StartX -> Y+6
;	EndX -> Y+4
;	StartY -> Y+2
;	EndY -> Y+0
	LDI  R30,LOW(42)
	ST   -Y,R30
	RCALL _SSD1963_WriteCmd
;  SSD1963_WriteData_b8(StartX >> 8);
	LDD  R30,Y+7
	ST   -Y,R30
	RCALL _SSD1963_WriteData_b8
;  SSD1963_WriteData_b8(StartX);
	LDD  R30,Y+6
	ST   -Y,R30
	RCALL _SSD1963_WriteData_b8
;  SSD1963_WriteData_b8((EndX >> 8));
	LDD  R30,Y+5
	ST   -Y,R30
	RCALL _SSD1963_WriteData_b8
;  SSD1963_WriteData_b8(EndX);
	LDD  R30,Y+4
	ST   -Y,R30
	RCALL _SSD1963_WriteData_b8
;
;  SSD1963_WriteCmd(SSD1963_SET_PAGE_ADDRESS);
	LDI  R30,LOW(43)
	ST   -Y,R30
	RCALL _SSD1963_WriteCmd
;  SSD1963_WriteData_b8((StartY >> 8));
	LDD  R30,Y+3
	ST   -Y,R30
	RCALL _SSD1963_WriteData_b8
;  SSD1963_WriteData_b8(StartY);
	LDD  R30,Y+2
	ST   -Y,R30
	RCALL _SSD1963_WriteData_b8
;  SSD1963_WriteData_b8((EndY >> 8));
	LDD  R30,Y+1
	ST   -Y,R30
	RCALL _SSD1963_WriteData_b8
;  SSD1963_WriteData_b8(EndY);
	LD   R30,Y
	ST   -Y,R30
	RCALL _SSD1963_WriteData_b8
;}
	ADIW R28,8
	RET
;
;void SSD1963_ClearScreen(unsigned int color)
;{
_SSD1963_ClearScreen:
;  unsigned int x,y;
;  SSD1963_WriteCmd(0x28);
	CALL __SAVELOCR4
;	color -> Y+4
;	x -> R16,R17
;	y -> R18,R19
	LDI  R30,LOW(40)
	ST   -Y,R30
	RCALL _SSD1963_WriteCmd
;  SSD1963_SetArea(0, HDP , 0, VDP);
	CALL SUBOPT_0xD
	LDI  R30,LOW(479)
	LDI  R31,HIGH(479)
	CALL SUBOPT_0xE
	LDI  R30,LOW(271)
	LDI  R31,HIGH(271)
	CALL SUBOPT_0xF
;  SSD1963_WriteCmd(0x2c);
;  x=0;
	__GETWRN 16,17,0
;  while(x <= VDP)
_0x31:
	__CPWRN 16,17,272
	BRSH _0x33
;  {
;    y=0;
	__GETWRN 18,19,0
;    while(y <= HDP)
_0x34:
	__CPWRN 18,19,480
	BRSH _0x36
;    {
;      SSD1963_WriteData_b16(color);
	LDD  R30,Y+4
	LDD  R31,Y+4+1
	CALL SUBOPT_0x10
;      y++;
	__ADDWRN 18,19,1
;    }
	RJMP _0x34
_0x36:
;  x++;
	__ADDWRN 16,17,1
;  }
	RJMP _0x31
_0x33:
;  SSD1963_WriteCmd(0x29);
	LDI  R30,LOW(41)
	ST   -Y,R30
	RCALL _SSD1963_WriteCmd
;}
	CALL __LOADLOCR4
	ADIW R28,6
	RET
;
;void SSD1963_PrintSymbol16(flash char Symb[32], unsigned int X, unsigned int Y, unsigned int Color, unsigned int BackColor)
;{
_SSD1963_PrintSymbol16:
;  char i, j;
;  SSD1963_SetArea(X, X + FONT_WIDTH - 1, Y, Y + FONT_HEIGHT - 1);
	ST   -Y,R17
	ST   -Y,R16
;	X -> Y+8
;	Y -> Y+6
;	Color -> Y+4
;	BackColor -> Y+2
;	i -> R17
;	j -> R16
	CALL SUBOPT_0x11
	LDD  R26,Y+10
	LDD  R27,Y+10+1
	ADIW R26,16
	SBIW R26,1
	ST   -Y,R27
	ST   -Y,R26
	CALL SUBOPT_0x12
	LDD  R26,Y+12
	LDD  R27,Y+12+1
	ADIW R26,16
	SBIW R26,1
	ST   -Y,R27
	ST   -Y,R26
	RCALL _SSD1963_SetArea
;  SSD1963_WriteCmd(0x2c);
	LDI  R30,LOW(44)
	ST   -Y,R30
	RCALL _SSD1963_WriteCmd
;  for (i = 0; i < 32; i++)
	LDI  R17,LOW(0)
_0x38:
	CPI  R17,32
	BRSH _0x39
;  {
;    for (j = 0; j < 8; j++)
	LDI  R16,LOW(0)
_0x3B:
	CPI  R16,8
	BRSH _0x3C
;    {
;      if ((Symb[i] & (0b10000000 >> j)) > 0) SSD1963_WriteData_b16(Color);
	MOV  R30,R17
	LDD  R26,Y+10
	LDD  R27,Y+10+1
	LDI  R31,0
	ADD  R30,R26
	ADC  R31,R27
	LPM  R1,Z
	MOV  R30,R16
	LDI  R26,LOW(128)
	CALL __LSRB12
	AND  R30,R1
	CPI  R30,LOW(0x1)
	BRLO _0x3D
	LDD  R30,Y+4
	LDD  R31,Y+4+1
	RJMP _0x16D
;      else SSD1963_WriteData_b16(BackColor);
_0x3D:
	LDD  R30,Y+2
	LDD  R31,Y+2+1
_0x16D:
	ST   -Y,R31
	ST   -Y,R30
	RCALL _SSD1963_WriteData_b16
;    }
	SUBI R16,-1
	RJMP _0x3B
_0x3C:
;  }
	SUBI R17,-1
	RJMP _0x38
_0x39:
;}
	LDD  R17,Y+1
	LDD  R16,Y+0
	RJMP _0x2080006
;
;void SSD1963_PutChar16(char Value, unsigned int X, unsigned int Y, unsigned int Color, unsigned int BackColor)
;{
_SSD1963_PutChar16:
;  switch(Value)
;	Value -> Y+8
;	X -> Y+6
;	Y -> Y+4
;	Color -> Y+2
;	BackColor -> Y+0
	CALL SUBOPT_0x13
;  {
;    case '0' : SSD1963_PrintSymbol16(S_48, X, Y, Color, BackColor);
	CPI  R30,LOW(0x30)
	LDI  R26,HIGH(0x30)
	CPC  R31,R26
	BRNE _0x42
	LDI  R30,LOW(_S_48*2)
	LDI  R31,HIGH(_S_48*2)
	RJMP _0x16E
;    break;
;    case '1' : SSD1963_PrintSymbol16(S_49, X, Y, Color, BackColor);
_0x42:
	CPI  R30,LOW(0x31)
	LDI  R26,HIGH(0x31)
	CPC  R31,R26
	BRNE _0x43
	LDI  R30,LOW(_S_49*2)
	LDI  R31,HIGH(_S_49*2)
	RJMP _0x16E
;    break;
;    case '2' : SSD1963_PrintSymbol16(S_50, X, Y, Color, BackColor);
_0x43:
	CPI  R30,LOW(0x32)
	LDI  R26,HIGH(0x32)
	CPC  R31,R26
	BRNE _0x44
	LDI  R30,LOW(_S_50*2)
	LDI  R31,HIGH(_S_50*2)
	RJMP _0x16E
;    break;
;    case '3' : SSD1963_PrintSymbol16(S_51, X, Y, Color, BackColor);
_0x44:
	CPI  R30,LOW(0x33)
	LDI  R26,HIGH(0x33)
	CPC  R31,R26
	BRNE _0x45
	LDI  R30,LOW(_S_51*2)
	LDI  R31,HIGH(_S_51*2)
	RJMP _0x16E
;    break;
;    case '4' : SSD1963_PrintSymbol16(S_52, X, Y, Color, BackColor);
_0x45:
	CPI  R30,LOW(0x34)
	LDI  R26,HIGH(0x34)
	CPC  R31,R26
	BRNE _0x46
	LDI  R30,LOW(_S_52*2)
	LDI  R31,HIGH(_S_52*2)
	RJMP _0x16E
;    break;
;    case '5' : SSD1963_PrintSymbol16(S_53, X, Y, Color, BackColor);
_0x46:
	CPI  R30,LOW(0x35)
	LDI  R26,HIGH(0x35)
	CPC  R31,R26
	BRNE _0x47
	LDI  R30,LOW(_S_53*2)
	LDI  R31,HIGH(_S_53*2)
	RJMP _0x16E
;    break;
;    case '6' : SSD1963_PrintSymbol16(S_54, X, Y, Color, BackColor);
_0x47:
	CPI  R30,LOW(0x36)
	LDI  R26,HIGH(0x36)
	CPC  R31,R26
	BRNE _0x48
	LDI  R30,LOW(_S_54*2)
	LDI  R31,HIGH(_S_54*2)
	RJMP _0x16E
;    break;
;    case '7' : SSD1963_PrintSymbol16(S_55, X, Y, Color, BackColor);
_0x48:
	CPI  R30,LOW(0x37)
	LDI  R26,HIGH(0x37)
	CPC  R31,R26
	BRNE _0x49
	LDI  R30,LOW(_S_55*2)
	LDI  R31,HIGH(_S_55*2)
	RJMP _0x16E
;    break;
;    case '8' : SSD1963_PrintSymbol16(S_56, X, Y, Color, BackColor);
_0x49:
	CPI  R30,LOW(0x38)
	LDI  R26,HIGH(0x38)
	CPC  R31,R26
	BRNE _0x4A
	LDI  R30,LOW(_S_56*2)
	LDI  R31,HIGH(_S_56*2)
	RJMP _0x16E
;    break;
;    case '9' : SSD1963_PrintSymbol16(S_57, X, Y, Color, BackColor);
_0x4A:
	CPI  R30,LOW(0x39)
	LDI  R26,HIGH(0x39)
	CPC  R31,R26
	BRNE _0x4B
	LDI  R30,LOW(_S_57*2)
	LDI  R31,HIGH(_S_57*2)
	RJMP _0x16E
;    break;
;
;    case '!' : SSD1963_PrintSymbol16(S_33, X, Y, Color, BackColor);
_0x4B:
	CPI  R30,LOW(0x21)
	LDI  R26,HIGH(0x21)
	CPC  R31,R26
	BRNE _0x4C
	LDI  R30,LOW(_S_33*2)
	LDI  R31,HIGH(_S_33*2)
	RJMP _0x16E
;    break;
;    case '(' : SSD1963_PrintSymbol16(S_40, X, Y, Color, BackColor);
_0x4C:
	CPI  R30,LOW(0x28)
	LDI  R26,HIGH(0x28)
	CPC  R31,R26
	BRNE _0x4D
	LDI  R30,LOW(_S_40*2)
	LDI  R31,HIGH(_S_40*2)
	RJMP _0x16E
;    break;
;    case ')' : SSD1963_PrintSymbol16(S_41, X, Y, Color, BackColor);
_0x4D:
	CPI  R30,LOW(0x29)
	LDI  R26,HIGH(0x29)
	CPC  R31,R26
	BRNE _0x4E
	LDI  R30,LOW(_S_41*2)
	LDI  R31,HIGH(_S_41*2)
	RJMP _0x16E
;    break;
;    case '/' : SSD1963_PrintSymbol16(S_47, X, Y, Color, BackColor);
_0x4E:
	CPI  R30,LOW(0x2F)
	LDI  R26,HIGH(0x2F)
	CPC  R31,R26
	BRNE _0x4F
	LDI  R30,LOW(_S_47*2)
	LDI  R31,HIGH(_S_47*2)
	RJMP _0x16E
;    break;
;    case ':' : SSD1963_PrintSymbol16(S_58, X, Y, Color, BackColor);
_0x4F:
	CPI  R30,LOW(0x3A)
	LDI  R26,HIGH(0x3A)
	CPC  R31,R26
	BRNE _0x50
	LDI  R30,LOW(_S_58*2)
	LDI  R31,HIGH(_S_58*2)
	RJMP _0x16E
;    break;
;    case '<' : SSD1963_PrintSymbol16(S_60, X, Y, Color, BackColor);
_0x50:
	CPI  R30,LOW(0x3C)
	LDI  R26,HIGH(0x3C)
	CPC  R31,R26
	BRNE _0x51
	LDI  R30,LOW(_S_60*2)
	LDI  R31,HIGH(_S_60*2)
	RJMP _0x16E
;    break;
;    case '=' : SSD1963_PrintSymbol16(S_61, X, Y, Color, BackColor);
_0x51:
	CPI  R30,LOW(0x3D)
	LDI  R26,HIGH(0x3D)
	CPC  R31,R26
	BRNE _0x52
	LDI  R30,LOW(_S_61*2)
	LDI  R31,HIGH(_S_61*2)
	RJMP _0x16E
;    break;
;    case '>' : SSD1963_PrintSymbol16(S_62, X, Y, Color, BackColor);
_0x52:
	CPI  R30,LOW(0x3E)
	LDI  R26,HIGH(0x3E)
	CPC  R31,R26
	BRNE _0x53
	LDI  R30,LOW(_S_62*2)
	LDI  R31,HIGH(_S_62*2)
	RJMP _0x16E
;    break;
;    case '?' : SSD1963_PrintSymbol16(S_63, X, Y, Color, BackColor);
_0x53:
	CPI  R30,LOW(0x3F)
	LDI  R26,HIGH(0x3F)
	CPC  R31,R26
	BRNE _0x54
	LDI  R30,LOW(_S_63*2)
	LDI  R31,HIGH(_S_63*2)
	RJMP _0x16E
;    break;
;    case '+' : SSD1963_PrintSymbol16(S_43, X, Y, Color, BackColor);
_0x54:
	CPI  R30,LOW(0x2B)
	LDI  R26,HIGH(0x2B)
	CPC  R31,R26
	BRNE _0x55
	LDI  R30,LOW(_S_43*2)
	LDI  R31,HIGH(_S_43*2)
	RJMP _0x16E
;    break;
;    case '-' : SSD1963_PrintSymbol16(S_45, X, Y, Color, BackColor);
_0x55:
	CPI  R30,LOW(0x2D)
	LDI  R26,HIGH(0x2D)
	CPC  R31,R26
	BRNE _0x56
	LDI  R30,LOW(_S_45*2)
	LDI  R31,HIGH(_S_45*2)
	RJMP _0x16E
;    break;
;
;    case 'А' : SSD1963_PrintSymbol16(S_192, X, Y, Color, BackColor);
_0x56:
	CPI  R30,LOW(0xC0)
	LDI  R26,HIGH(0xC0)
	CPC  R31,R26
	BRNE _0x57
	LDI  R30,LOW(_S_192*2)
	LDI  R31,HIGH(_S_192*2)
	RJMP _0x16E
;    break;
;    case 'Б' : SSD1963_PrintSymbol16(S_193, X, Y, Color, BackColor);
_0x57:
	CPI  R30,LOW(0xC1)
	LDI  R26,HIGH(0xC1)
	CPC  R31,R26
	BRNE _0x58
	LDI  R30,LOW(_S_193*2)
	LDI  R31,HIGH(_S_193*2)
	RJMP _0x16E
;    break;
;    case 'В' : SSD1963_PrintSymbol16(S_194, X, Y, Color, BackColor);
_0x58:
	CPI  R30,LOW(0xC2)
	LDI  R26,HIGH(0xC2)
	CPC  R31,R26
	BRNE _0x59
	LDI  R30,LOW(_S_194*2)
	LDI  R31,HIGH(_S_194*2)
	RJMP _0x16E
;    break;
;    case 'Г' : SSD1963_PrintSymbol16(S_195, X, Y, Color, BackColor);
_0x59:
	CPI  R30,LOW(0xC3)
	LDI  R26,HIGH(0xC3)
	CPC  R31,R26
	BRNE _0x5A
	LDI  R30,LOW(_S_195*2)
	LDI  R31,HIGH(_S_195*2)
	RJMP _0x16E
;    break;
;    case 'Д' : SSD1963_PrintSymbol16(S_196, X, Y, Color, BackColor);
_0x5A:
	CPI  R30,LOW(0xC4)
	LDI  R26,HIGH(0xC4)
	CPC  R31,R26
	BRNE _0x5B
	LDI  R30,LOW(_S_196*2)
	LDI  R31,HIGH(_S_196*2)
	RJMP _0x16E
;    break;
;    case 'Е' : SSD1963_PrintSymbol16(S_197, X, Y, Color, BackColor);
_0x5B:
	CPI  R30,LOW(0xC5)
	LDI  R26,HIGH(0xC5)
	CPC  R31,R26
	BRNE _0x5C
	LDI  R30,LOW(_S_197*2)
	LDI  R31,HIGH(_S_197*2)
	RJMP _0x16E
;    break;
;    case 'Ж' : SSD1963_PrintSymbol16(S_198, X, Y, Color, BackColor);
_0x5C:
	CPI  R30,LOW(0xC6)
	LDI  R26,HIGH(0xC6)
	CPC  R31,R26
	BRNE _0x5D
	LDI  R30,LOW(_S_198*2)
	LDI  R31,HIGH(_S_198*2)
	RJMP _0x16E
;    break;
;    case 'З' : SSD1963_PrintSymbol16(S_199, X, Y, Color, BackColor);
_0x5D:
	CPI  R30,LOW(0xC7)
	LDI  R26,HIGH(0xC7)
	CPC  R31,R26
	BRNE _0x5E
	LDI  R30,LOW(_S_199*2)
	LDI  R31,HIGH(_S_199*2)
	RJMP _0x16E
;    break;
;    case 'И' : SSD1963_PrintSymbol16(S_200, X, Y, Color, BackColor);
_0x5E:
	CPI  R30,LOW(0xC8)
	LDI  R26,HIGH(0xC8)
	CPC  R31,R26
	BRNE _0x5F
	LDI  R30,LOW(_S_200*2)
	LDI  R31,HIGH(_S_200*2)
	RJMP _0x16E
;    break;
;    case 'Й' : SSD1963_PrintSymbol16(S_201, X, Y, Color, BackColor);
_0x5F:
	CPI  R30,LOW(0xC9)
	LDI  R26,HIGH(0xC9)
	CPC  R31,R26
	BRNE _0x60
	LDI  R30,LOW(_S_201*2)
	LDI  R31,HIGH(_S_201*2)
	RJMP _0x16E
;    break;
;    case 'К' : SSD1963_PrintSymbol16(S_202, X, Y, Color, BackColor);
_0x60:
	CPI  R30,LOW(0xCA)
	LDI  R26,HIGH(0xCA)
	CPC  R31,R26
	BRNE _0x61
	LDI  R30,LOW(_S_202*2)
	LDI  R31,HIGH(_S_202*2)
	RJMP _0x16E
;    break;
;    case 'Л' : SSD1963_PrintSymbol16(S_203, X, Y, Color, BackColor);
_0x61:
	CPI  R30,LOW(0xCB)
	LDI  R26,HIGH(0xCB)
	CPC  R31,R26
	BRNE _0x62
	LDI  R30,LOW(_S_203*2)
	LDI  R31,HIGH(_S_203*2)
	RJMP _0x16E
;    break;
;    case 'М' : SSD1963_PrintSymbol16(S_204, X, Y, Color, BackColor);
_0x62:
	CPI  R30,LOW(0xCC)
	LDI  R26,HIGH(0xCC)
	CPC  R31,R26
	BRNE _0x63
	LDI  R30,LOW(_S_204*2)
	LDI  R31,HIGH(_S_204*2)
	RJMP _0x16E
;    break;
;    case 'Н' : SSD1963_PrintSymbol16(S_205, X, Y, Color, BackColor);
_0x63:
	CPI  R30,LOW(0xCD)
	LDI  R26,HIGH(0xCD)
	CPC  R31,R26
	BRNE _0x64
	LDI  R30,LOW(_S_205*2)
	LDI  R31,HIGH(_S_205*2)
	RJMP _0x16E
;    break;
;    case 'О' : SSD1963_PrintSymbol16(S_206, X, Y, Color, BackColor);
_0x64:
	CPI  R30,LOW(0xCE)
	LDI  R26,HIGH(0xCE)
	CPC  R31,R26
	BRNE _0x65
	LDI  R30,LOW(_S_206*2)
	LDI  R31,HIGH(_S_206*2)
	RJMP _0x16E
;    break;
;    case 'П' : SSD1963_PrintSymbol16(S_207, X, Y, Color, BackColor);
_0x65:
	CPI  R30,LOW(0xCF)
	LDI  R26,HIGH(0xCF)
	CPC  R31,R26
	BRNE _0x66
	LDI  R30,LOW(_S_207*2)
	LDI  R31,HIGH(_S_207*2)
	RJMP _0x16E
;    break;
;    case 'Р' : SSD1963_PrintSymbol16(S_208, X, Y, Color, BackColor);
_0x66:
	CPI  R30,LOW(0xD0)
	LDI  R26,HIGH(0xD0)
	CPC  R31,R26
	BRNE _0x67
	LDI  R30,LOW(_S_208*2)
	LDI  R31,HIGH(_S_208*2)
	RJMP _0x16E
;    break;
;    case 'С' : SSD1963_PrintSymbol16(S_209, X, Y, Color, BackColor);
_0x67:
	CPI  R30,LOW(0xD1)
	LDI  R26,HIGH(0xD1)
	CPC  R31,R26
	BRNE _0x68
	LDI  R30,LOW(_S_209*2)
	LDI  R31,HIGH(_S_209*2)
	RJMP _0x16E
;    break;
;    case 'Т' : SSD1963_PrintSymbol16(S_210, X, Y, Color, BackColor);
_0x68:
	CPI  R30,LOW(0xD2)
	LDI  R26,HIGH(0xD2)
	CPC  R31,R26
	BRNE _0x69
	LDI  R30,LOW(_S_210*2)
	LDI  R31,HIGH(_S_210*2)
	RJMP _0x16E
;    break;
;    case 'У' : SSD1963_PrintSymbol16(S_211, X, Y, Color, BackColor);
_0x69:
	CPI  R30,LOW(0xD3)
	LDI  R26,HIGH(0xD3)
	CPC  R31,R26
	BRNE _0x6A
	LDI  R30,LOW(_S_211*2)
	LDI  R31,HIGH(_S_211*2)
	RJMP _0x16E
;    break;
;    case 'Ф' : SSD1963_PrintSymbol16(S_212, X, Y, Color, BackColor);
_0x6A:
	CPI  R30,LOW(0xD4)
	LDI  R26,HIGH(0xD4)
	CPC  R31,R26
	BRNE _0x6B
	LDI  R30,LOW(_S_212*2)
	LDI  R31,HIGH(_S_212*2)
	RJMP _0x16E
;    break;
;    case 'Х' : SSD1963_PrintSymbol16(S_213, X, Y, Color, BackColor);
_0x6B:
	CPI  R30,LOW(0xD5)
	LDI  R26,HIGH(0xD5)
	CPC  R31,R26
	BRNE _0x6C
	LDI  R30,LOW(_S_213*2)
	LDI  R31,HIGH(_S_213*2)
	RJMP _0x16E
;    break;
;    case 'Ц' : SSD1963_PrintSymbol16(S_214, X, Y, Color, BackColor);
_0x6C:
	CPI  R30,LOW(0xD6)
	LDI  R26,HIGH(0xD6)
	CPC  R31,R26
	BRNE _0x6D
	LDI  R30,LOW(_S_214*2)
	LDI  R31,HIGH(_S_214*2)
	RJMP _0x16E
;    break;
;    case 'Ч' : SSD1963_PrintSymbol16(S_215, X, Y, Color, BackColor);
_0x6D:
	CPI  R30,LOW(0xD7)
	LDI  R26,HIGH(0xD7)
	CPC  R31,R26
	BRNE _0x6E
	LDI  R30,LOW(_S_215*2)
	LDI  R31,HIGH(_S_215*2)
	RJMP _0x16E
;    break;
;    case 'Ш' : SSD1963_PrintSymbol16(S_216, X, Y, Color, BackColor);
_0x6E:
	CPI  R30,LOW(0xD8)
	LDI  R26,HIGH(0xD8)
	CPC  R31,R26
	BRNE _0x6F
	LDI  R30,LOW(_S_216*2)
	LDI  R31,HIGH(_S_216*2)
	RJMP _0x16E
;    break;
;    case 'Щ' : SSD1963_PrintSymbol16(S_217, X, Y, Color, BackColor);
_0x6F:
	CPI  R30,LOW(0xD9)
	LDI  R26,HIGH(0xD9)
	CPC  R31,R26
	BRNE _0x70
	LDI  R30,LOW(_S_217*2)
	LDI  R31,HIGH(_S_217*2)
	RJMP _0x16E
;    break;
;    case 'Ъ' : SSD1963_PrintSymbol16(S_218, X, Y, Color, BackColor);
_0x70:
	CPI  R30,LOW(0xDA)
	LDI  R26,HIGH(0xDA)
	CPC  R31,R26
	BRNE _0x71
	LDI  R30,LOW(_S_218*2)
	LDI  R31,HIGH(_S_218*2)
	RJMP _0x16E
;    break;
;    case 'Ы' : SSD1963_PrintSymbol16(S_219, X, Y, Color, BackColor);
_0x71:
	CPI  R30,LOW(0xDB)
	LDI  R26,HIGH(0xDB)
	CPC  R31,R26
	BRNE _0x72
	LDI  R30,LOW(_S_219*2)
	LDI  R31,HIGH(_S_219*2)
	RJMP _0x16E
;    break;
;    case 'Ь' : SSD1963_PrintSymbol16(S_220, X, Y, Color, BackColor);
_0x72:
	CPI  R30,LOW(0xDC)
	LDI  R26,HIGH(0xDC)
	CPC  R31,R26
	BRNE _0x73
	LDI  R30,LOW(_S_220*2)
	LDI  R31,HIGH(_S_220*2)
	RJMP _0x16E
;    break;
;    case 'Э' : SSD1963_PrintSymbol16(S_221, X, Y, Color, BackColor);
_0x73:
	CPI  R30,LOW(0xDD)
	LDI  R26,HIGH(0xDD)
	CPC  R31,R26
	BRNE _0x74
	LDI  R30,LOW(_S_221*2)
	LDI  R31,HIGH(_S_221*2)
	RJMP _0x16E
;    break;
;    case 'Ю' : SSD1963_PrintSymbol16(S_222, X, Y, Color, BackColor);
_0x74:
	CPI  R30,LOW(0xDE)
	LDI  R26,HIGH(0xDE)
	CPC  R31,R26
	BRNE _0x75
	LDI  R30,LOW(_S_222*2)
	LDI  R31,HIGH(_S_222*2)
	RJMP _0x16E
;    break;
;    case 'Я' : SSD1963_PrintSymbol16(S_223, X, Y, Color, BackColor);
_0x75:
	CPI  R30,LOW(0xDF)
	LDI  R26,HIGH(0xDF)
	CPC  R31,R26
	BRNE _0x76
	LDI  R30,LOW(_S_223*2)
	LDI  R31,HIGH(_S_223*2)
	RJMP _0x16E
;    break;
;
;    case '.' : SSD1963_PrintSymbol16(S_46, X, Y, Color, BackColor);
_0x76:
	CPI  R30,LOW(0x2E)
	LDI  R26,HIGH(0x2E)
	CPC  R31,R26
	BRNE _0x77
	LDI  R30,LOW(_S_46*2)
	LDI  R31,HIGH(_S_46*2)
	RJMP _0x16E
;    break;
;    case ' ' : SSD1963_PrintSymbol16(S_32, X, Y, Color, BackColor);
_0x77:
	CPI  R30,LOW(0x20)
	LDI  R26,HIGH(0x20)
	CPC  R31,R26
	BRNE _0x78
	LDI  R30,LOW(_S_32*2)
	LDI  R31,HIGH(_S_32*2)
	RJMP _0x16E
;    break;
;    case 1 : SSD1963_PrintSymbol16(S_UP, X, Y, Color, BackColor);
_0x78:
	CPI  R30,LOW(0x1)
	LDI  R26,HIGH(0x1)
	CPC  R31,R26
	BRNE _0x79
	LDI  R30,LOW(_S_UP*2)
	LDI  R31,HIGH(_S_UP*2)
	RJMP _0x16E
;    break;
;    case 2 : SSD1963_PrintSymbol16(S_DOWN, X, Y, Color, BackColor);
_0x79:
	CPI  R30,LOW(0x2)
	LDI  R26,HIGH(0x2)
	CPC  R31,R26
	BRNE _0x7A
	LDI  R30,LOW(_S_DOWN*2)
	LDI  R31,HIGH(_S_DOWN*2)
	RJMP _0x16E
;    break;
;    case 3 : SSD1963_PrintSymbol16(blank_symb, X, Y, Color, BackColor);
_0x7A:
	CPI  R30,LOW(0x3)
	LDI  R26,HIGH(0x3)
	CPC  R31,R26
	BRNE _0x41
	LDI  R30,LOW(_blank_symb*2)
	LDI  R31,HIGH(_blank_symb*2)
_0x16E:
	ST   -Y,R31
	ST   -Y,R30
	CALL SUBOPT_0x11
	CALL SUBOPT_0x11
	CALL SUBOPT_0x11
	CALL SUBOPT_0x11
	RCALL _SSD1963_PrintSymbol16
;    break;
;  }
_0x41:
;}
	ADIW R28,9
	RET
;
;void SSD1963_PutString16(unsigned char* string, unsigned int X, unsigned int Y, unsigned int Color, unsigned int BackColor)
;{
_SSD1963_PutString16:
;  while (*string) {SSD1963_PutChar16(*string++, X, Y, Color, BackColor); X += FONT_WIDTH;}
;	*string -> Y+8
;	X -> Y+6
;	Y -> Y+4
;	Color -> Y+2
;	BackColor -> Y+0
_0x7C:
	LDD  R26,Y+8
	LDD  R27,Y+8+1
	LD   R30,X
	CPI  R30,0
	BREQ _0x7E
	LD   R30,X+
	STD  Y+8,R26
	STD  Y+8+1,R27
	ST   -Y,R30
	CALL SUBOPT_0x14
	CALL SUBOPT_0x14
	CALL SUBOPT_0x14
	CALL SUBOPT_0x14
	RCALL _SSD1963_PutChar16
	LDD  R30,Y+6
	LDD  R31,Y+6+1
	ADIW R30,16
	STD  Y+6,R30
	STD  Y+6+1,R31
	RJMP _0x7C
_0x7E:
;}
	ADIW R28,10
	RET
;
;void SSD1963_PutValue16(unsigned int Value, unsigned int X, unsigned int Y, char N, unsigned int Color, unsigned int BackColor)
;{
_SSD1963_PutValue16:
;  switch(N)
;	Value -> Y+9
;	X -> Y+7
;	Y -> Y+5
;	N -> Y+4
;	Color -> Y+2
;	BackColor -> Y+0
	LDD  R30,Y+4
	LDI  R31,0
;  {
;    case 5 :
	CPI  R30,LOW(0x5)
	LDI  R26,HIGH(0x5)
	CPC  R31,R26
	BRNE _0x82
;      SSD1963_PutChar16(Value / 10000 + 48, X, Y, Color, BackColor);
	LDD  R26,Y+9
	LDD  R27,Y+9+1
	LDI  R30,LOW(10000)
	LDI  R31,HIGH(10000)
	CALL SUBOPT_0x15
	CALL SUBOPT_0x11
	CALL SUBOPT_0x14
	CALL SUBOPT_0x14
	CALL SUBOPT_0x16
;      Value %= 10000;
	LDI  R30,LOW(10000)
	LDI  R31,HIGH(10000)
	CALL SUBOPT_0x17
;      X += FONT_WIDTH;
;    case 4 :
	RJMP _0x83
_0x82:
	CPI  R30,LOW(0x4)
	LDI  R26,HIGH(0x4)
	CPC  R31,R26
	BRNE _0x84
_0x83:
;      SSD1963_PutChar16(Value / 1000 + 48, X, Y, Color, BackColor);
	LDD  R26,Y+9
	LDD  R27,Y+9+1
	LDI  R30,LOW(1000)
	LDI  R31,HIGH(1000)
	CALL SUBOPT_0x15
	CALL SUBOPT_0x11
	CALL SUBOPT_0x14
	CALL SUBOPT_0x14
	CALL SUBOPT_0x16
;      Value %= 1000;
	LDI  R30,LOW(1000)
	LDI  R31,HIGH(1000)
	CALL SUBOPT_0x17
;      X += FONT_WIDTH;
;    case 3 :
	RJMP _0x85
_0x84:
	CPI  R30,LOW(0x3)
	LDI  R26,HIGH(0x3)
	CPC  R31,R26
	BRNE _0x86
_0x85:
;      SSD1963_PutChar16(Value / 100 + 48, X, Y, Color, BackColor);
	LDD  R26,Y+9
	LDD  R27,Y+9+1
	LDI  R30,LOW(100)
	LDI  R31,HIGH(100)
	CALL SUBOPT_0x15
	CALL SUBOPT_0x11
	CALL SUBOPT_0x14
	CALL SUBOPT_0x14
	CALL SUBOPT_0x16
;      Value %= 100;
	LDI  R30,LOW(100)
	LDI  R31,HIGH(100)
	CALL SUBOPT_0x17
;      X += FONT_WIDTH;
;    case 2 :
	RJMP _0x87
_0x86:
	CPI  R30,LOW(0x2)
	LDI  R26,HIGH(0x2)
	CPC  R31,R26
	BRNE _0x88
_0x87:
;      SSD1963_PutChar16(Value / 10 + 48, X, Y, Color, BackColor);
	LDD  R26,Y+9
	LDD  R27,Y+9+1
	LDI  R30,LOW(10)
	LDI  R31,HIGH(10)
	CALL SUBOPT_0x15
	CALL SUBOPT_0x11
	CALL SUBOPT_0x14
	CALL SUBOPT_0x14
	CALL SUBOPT_0x16
;      Value %= 10;
	LDI  R30,LOW(10)
	LDI  R31,HIGH(10)
	CALL SUBOPT_0x17
;      X += FONT_WIDTH;
;    case 1 :
	RJMP _0x89
_0x88:
	CPI  R30,LOW(0x1)
	LDI  R26,HIGH(0x1)
	CPC  R31,R26
	BRNE _0x81
_0x89:
;      SSD1963_PutChar16(Value + 48, X, Y, Color, BackColor);
	LDD  R30,Y+9
	SUBI R30,-LOW(48)
	ST   -Y,R30
	CALL SUBOPT_0x11
	CALL SUBOPT_0x11
	CALL SUBOPT_0x14
	CALL SUBOPT_0x14
	RCALL _SSD1963_PutChar16
;    break;
;  }
_0x81:
;}
	ADIW R28,11
	RET
;
;void SSD1963_DrawFastLine(unsigned int StartX, unsigned int StopX, unsigned int StartY, unsigned int StopY, unsigned int Color)
;{
_SSD1963_DrawFastLine:
;  signed int j;
;  long i, k;
;  SSD1963_SetArea(StartX, StopX, StartY, StopY);
	CALL SUBOPT_0x18
;	StartX -> Y+18
;	StopX -> Y+16
;	StartY -> Y+14
;	StopY -> Y+12
;	Color -> Y+10
;	j -> R16,R17
;	i -> Y+6
;	k -> Y+2
;  SSD1963_WriteCmd(0x2c);
;  j = StopX - StartX + 1;
	CALL SUBOPT_0x19
;  if (j < 0) j *= -1;
	BRPL _0x8B
	CALL SUBOPT_0x1A
;  k = StopY - StartY + 1;
_0x8B:
	CALL SUBOPT_0x1B
;  if (k < 0) k *= -1;
	BRPL _0x8C
	CALL SUBOPT_0x1C
	CALL SUBOPT_0x1D
;  k = k * j;
_0x8C:
	CALL SUBOPT_0x1E
;  for (i = 0; i < k; i++) SSD1963_WriteData_b16(Color);
_0x8E:
	CALL SUBOPT_0x1F
	BRGE _0x8F
	LDD  R30,Y+10
	LDD  R31,Y+10+1
	CALL SUBOPT_0x10
	CALL SUBOPT_0x20
	RJMP _0x8E
_0x8F:
	RJMP _0x2080005
;
;void SSD1963_DrawLine (unsigned int StartX, unsigned int StopX, unsigned int StartY, unsigned int StopY, unsigned int Color, char Width)
;{
_SSD1963_DrawLine:
;	int i, k;
;  int deltaX, deltaY, signX, signY, error, error2;
;  deltaX = (StopX - StartX);
	SBIW R28,10
	CALL __SAVELOCR6
;	StartX -> Y+25
;	StopX -> Y+23
;	StartY -> Y+21
;	StopY -> Y+19
;	Color -> Y+17
;	Width -> Y+16
;	i -> R16,R17
;	k -> R18,R19
;	deltaX -> R20,R21
;	deltaY -> Y+14
;	signX -> Y+12
;	signY -> Y+10
;	error -> Y+8
;	error2 -> Y+6
	LDD  R26,Y+25
	LDD  R27,Y+25+1
	LDD  R30,Y+23
	LDD  R31,Y+23+1
	SUB  R30,R26
	SBC  R31,R27
	MOVW R20,R30
;  if (deltaX < 0) deltaX *= -1;
	TST  R21
	BRPL _0x90
	MOVW R30,R20
	LDI  R26,LOW(65535)
	LDI  R27,HIGH(65535)
	CALL __MULW12
	MOVW R20,R30
;	deltaY = (StopY - StartY);
_0x90:
	LDD  R26,Y+21
	LDD  R27,Y+21+1
	LDD  R30,Y+19
	LDD  R31,Y+19+1
	SUB  R30,R26
	SBC  R31,R27
	STD  Y+14,R30
	STD  Y+14+1,R31
;  if (deltaY < 0) deltaY *= -1;
	LDD  R26,Y+15
	TST  R26
	BRPL _0x91
	LDI  R26,LOW(65535)
	LDI  R27,HIGH(65535)
	CALL __MULW12
	STD  Y+14,R30
	STD  Y+14+1,R31
;	signX = StartX < StopX ? 1 : -1;
_0x91:
	LDD  R30,Y+23
	LDD  R31,Y+23+1
	LDD  R26,Y+25
	LDD  R27,Y+25+1
	CP   R26,R30
	CPC  R27,R31
	BRSH _0x92
	LDI  R30,LOW(1)
	LDI  R31,HIGH(1)
	RJMP _0x93
_0x92:
	LDI  R30,LOW(65535)
	LDI  R31,HIGH(65535)
_0x93:
	STD  Y+12,R30
	STD  Y+12+1,R31
;	signY = StartY < StopY ? 1 : -1;
	LDD  R30,Y+19
	LDD  R31,Y+19+1
	LDD  R26,Y+21
	LDD  R27,Y+21+1
	CP   R26,R30
	CPC  R27,R31
	BRSH _0x95
	LDI  R30,LOW(1)
	LDI  R31,HIGH(1)
	RJMP _0x96
_0x95:
	LDI  R30,LOW(65535)
	LDI  R31,HIGH(65535)
_0x96:
	STD  Y+10,R30
	STD  Y+10+1,R31
;	error = deltaX - deltaY;
	LDD  R26,Y+14
	LDD  R27,Y+14+1
	MOVW R30,R20
	SUB  R30,R26
	SBC  R31,R27
	STD  Y+8,R30
	STD  Y+8+1,R31
;
;	while(1)
_0x98:
;	{
;	  SSD1963_SetArea(StartX, StartX + Width, StartY, StartY + Width);
	LDD  R30,Y+25
	LDD  R31,Y+25+1
	ST   -Y,R31
	ST   -Y,R30
	LDD  R30,Y+18
	CALL SUBOPT_0x21
	ST   -Y,R31
	ST   -Y,R30
	LDD  R30,Y+25
	LDD  R31,Y+25+1
	ST   -Y,R31
	ST   -Y,R30
	LDD  R30,Y+22
	CALL SUBOPT_0x21
	CALL SUBOPT_0xF
;    SSD1963_WriteCmd(0x2c);
;    k = Width * Width;
	LDD  R26,Y+16
	CLR  R27
	LDD  R30,Y+16
	LDI  R31,0
	CALL __MULW12
	MOVW R18,R30
;    for (i = 0; i <= k; i++) SSD1963_WriteData_b16(Color);
	__GETWRN 16,17,0
_0x9C:
	__CPWRR 18,19,16,17
	BRLT _0x9D
	LDD  R30,Y+17
	LDD  R31,Y+17+1
	CALL SUBOPT_0x10
	__ADDWRN 16,17,1
	RJMP _0x9C
_0x9D:
	LDD  R30,Y+23
	LDD  R31,Y+23+1
	LDD  R26,Y+25
	LDD  R27,Y+25+1
	CP   R30,R26
	CPC  R31,R27
	BRNE _0x9F
	LDD  R30,Y+19
	LDD  R31,Y+19+1
	LDD  R26,Y+21
	LDD  R27,Y+21+1
	CP   R30,R26
	CPC  R31,R27
	BREQ _0xA0
_0x9F:
	RJMP _0x9E
_0xA0:
;		break;
	RJMP _0x9A
;
;		error2 = error * 2;
_0x9E:
	LDD  R30,Y+8
	LDD  R31,Y+8+1
	LSL  R30
	ROL  R31
	STD  Y+6,R30
	STD  Y+6+1,R31
;
;		if(error2 > -deltaY)
	LDD  R30,Y+14
	LDD  R31,Y+14+1
	CALL __ANEGW1
	LDD  R26,Y+6
	LDD  R27,Y+6+1
	CP   R30,R26
	CPC  R31,R27
	BRGE _0xA1
;		{
;			error -= deltaY;
	LDD  R26,Y+14
	LDD  R27,Y+14+1
	CALL SUBOPT_0x22
	STD  Y+8,R30
	STD  Y+8+1,R31
;			StartX += signX;
	LDD  R30,Y+12
	LDD  R31,Y+12+1
	LDD  R26,Y+25
	LDD  R27,Y+25+1
	ADD  R30,R26
	ADC  R31,R27
	STD  Y+25,R30
	STD  Y+25+1,R31
;		}
;
;		if(error2 < deltaX)
_0xA1:
	LDD  R26,Y+6
	LDD  R27,Y+6+1
	CP   R26,R20
	CPC  R27,R21
	BRGE _0xA2
;		{
;			error += deltaX;
	MOVW R30,R20
	LDD  R26,Y+8
	LDD  R27,Y+8+1
	ADD  R30,R26
	ADC  R31,R27
	STD  Y+8,R30
	STD  Y+8+1,R31
;			StartY += signY;
	LDD  R30,Y+10
	LDD  R31,Y+10+1
	LDD  R26,Y+21
	LDD  R27,Y+21+1
	ADD  R30,R26
	ADC  R31,R27
	STD  Y+21,R30
	STD  Y+21+1,R31
;		}
;	}
_0xA2:
	RJMP _0x98
_0x9A:
;}
	CALL __LOADLOCR6
	ADIW R28,27
	RET
;
;void SSD1963_DrawRect(unsigned int StartX, unsigned int StopX, unsigned int StartY, unsigned int StopY, unsigned int Width, unsigned int Color)
;{
_SSD1963_DrawRect:
;  SSD1963_DrawFastLine(StartX, StopX, StartY, StartY + Width, Color);
;	StartX -> Y+10
;	StopX -> Y+8
;	StartY -> Y+6
;	StopY -> Y+4
;	Width -> Y+2
;	Color -> Y+0
	CALL SUBOPT_0x12
	CALL SUBOPT_0x12
	CALL SUBOPT_0x12
	LDD  R30,Y+8
	LDD  R31,Y+8+1
	CALL SUBOPT_0x23
	CALL SUBOPT_0x11
	RCALL _SSD1963_DrawFastLine
;  SSD1963_DrawFastLine(StartX, StartX + Width, StartY, StopY, Color);
	CALL SUBOPT_0x12
	LDD  R30,Y+4
	LDD  R31,Y+4+1
	CALL SUBOPT_0x23
	CALL SUBOPT_0x12
	CALL SUBOPT_0x12
	CALL SUBOPT_0x11
	RCALL _SSD1963_DrawFastLine
;  SSD1963_DrawFastLine(StartX, StopX, StopY - Width, StopY, Color);
	CALL SUBOPT_0x12
	CALL SUBOPT_0x12
	LDD  R26,Y+6
	LDD  R27,Y+6+1
	CALL SUBOPT_0x22
	ST   -Y,R31
	ST   -Y,R30
	CALL SUBOPT_0x12
	CALL SUBOPT_0x11
	RCALL _SSD1963_DrawFastLine
;  SSD1963_DrawFastLine(StopX - Width, StopX, StartY, StopY, Color);
	LDD  R26,Y+2
	LDD  R27,Y+2+1
	CALL SUBOPT_0x22
	ST   -Y,R31
	ST   -Y,R30
	CALL SUBOPT_0x12
	CALL SUBOPT_0x12
	CALL SUBOPT_0x12
	CALL SUBOPT_0x11
	RCALL _SSD1963_DrawFastLine
;}
_0x2080006:
	ADIW R28,12
	RET
;
;void SSD1963_DrawFillRect(unsigned int StartX, unsigned int StopX, unsigned int StartY, unsigned int StopY, unsigned int Color)
;{
_SSD1963_DrawFillRect:
;  signed int j;
;  long i, k;
;  SSD1963_SetArea(StartX, StopX, StartY, StopY);
	CALL SUBOPT_0x18
;	StartX -> Y+18
;	StopX -> Y+16
;	StartY -> Y+14
;	StopY -> Y+12
;	Color -> Y+10
;	j -> R16,R17
;	i -> Y+6
;	k -> Y+2
;  SSD1963_WriteCmd(0x2c);
;  j = StopX - StartX + 1;
	CALL SUBOPT_0x19
;  if (j < 0) j *= -1;
	BRPL _0xA3
	CALL SUBOPT_0x1A
;  k = StopY - StartY + 1;
_0xA3:
	CALL SUBOPT_0x1B
;  if (k < 0) k *= -1;
	BRPL _0xA4
	CALL SUBOPT_0x1C
	CALL SUBOPT_0x1D
;  k = k * j;
_0xA4:
	CALL SUBOPT_0x1E
;  for (i = 0; i < k; i++) SSD1963_WriteData_b16(Color);
_0xA6:
	CALL SUBOPT_0x1F
	BRGE _0xA7
	LDD  R30,Y+10
	LDD  R31,Y+10+1
	CALL SUBOPT_0x10
	CALL SUBOPT_0x20
	RJMP _0xA6
_0xA7:
_0x2080005:
	LDD  R17,Y+1
	LDD  R16,Y+0
	ADIW R28,20
	RET
;
;void SSD1963_PutFloatValue16(unsigned int Value, unsigned int X, unsigned int Y, unsigned int Color, unsigned int BackColor)
;{
;  SSD1963_PutChar16(Value / 10000 + 48, X, Y, Color, BackColor);
;	Value -> Y+8
;	X -> Y+6
;	Y -> Y+4
;	Color -> Y+2
;	BackColor -> Y+0
;  Value %= 10000;
;  X += FONT_WIDTH;
;  SSD1963_PutChar16(Value / 1000 + 48, X, Y, Color, BackColor);
;  Value %= 1000;
;  X += FONT_WIDTH;
;  SSD1963_PutChar16('.', X, Y, Color, BackColor);
;  X += FONT_WIDTH;
;  SSD1963_PutChar16(Value / 100 + 48, X, Y, Color, BackColor);
;  Value %= 100;
;  X += FONT_WIDTH;
;  SSD1963_PutChar16(Value / 10 + 48, X, Y, Color, BackColor);
;  Value %= 10;
;  X += FONT_WIDTH;
;  SSD1963_PutChar16(Value + 48, X, Y, Color, BackColor);
;}
;
;#pragma used-
;
;#include "TSC2046.c"
;#include <spi.h>
;#include <delay.h>
;
;#define TOUCH_CS PORTE.2
;#define TOUCH_IRQ_PORT PORTE.3
;#define TOUCH_IRQ PINE.3
;
;#define ADC_X_MIN 1300
;#define ADC_Y_MIN 2100
;#define ADC_X_K 61.458333333333333333333333333333
;#define ADC_Y_K 103.30882352941176470588235294118
;
;#define TOUCH_Calc_Max 16
;
;void TSC2046_PortInit(void)
; 0000 001C {
_TSC2046_PortInit:
;  DDRE |= 0b00000100;
	SBI  0x2,2
;  DDRE &= 0b11110111;
	CBI  0x2,3
;}
	RET
;
;#pragma used+
;long tempX, tempY;
;unsigned int TOUCH_X, TOUCH_Y, TOUCH_X_LAST, TOUCH_Y_LAST;
;
;unsigned int TSC2046_getADC_Bat(void)
;{
;  unsigned int res;
;  TOUCH_CS = 0;
;	res -> R16,R17
;  delay_ms(1);
;  spi(0b10100011);
;  delay_us(100);
;  res = spi(0x00);
;  res = res << 8;
;  res += spi(0x00);
;  //res = res >> 3;
;  TOUCH_CS = 1;
;  return res;
;}
;
;unsigned int TSC2046_getADC_X(void)
;{
_TSC2046_getADC_X:
;  unsigned int res;
;  TOUCH_CS = 0;
	ST   -Y,R17
	ST   -Y,R16
;	res -> R16,R17
	CBI  0x3,2
;  delay_ms(1);
	CALL SUBOPT_0x7
;  spi(0b11010011);
	LDI  R30,LOW(211)
	CALL SUBOPT_0x24
;  delay_us(100);
;  res = spi(0x00);
;  res = res << 8;
;  res += spi(0x00);
;  //res = res >> 3;
;  TOUCH_CS = 1;
;  return res;
	RJMP _0x2080004
;}
;
;unsigned int TSC2046_getADC_Y(void)
;{
_TSC2046_getADC_Y:
;  unsigned int res;
;  TOUCH_CS = 0;
	ST   -Y,R17
	ST   -Y,R16
;	res -> R16,R17
	CBI  0x3,2
;  delay_ms(1);
	CALL SUBOPT_0x7
;  spi(0b10010011);
	LDI  R30,LOW(147)
	CALL SUBOPT_0x24
;  delay_us(100);
;  res = spi(0x00);
;  res = res << 8;
;  res += spi(0x00);
;  //res = res >> 3;
;  TOUCH_CS = 1;
;  return res;
	RJMP _0x2080004
;}
;
;void TSC2046_Stop()
;{
_TSC2046_Stop:
;  TOUCH_CS = 0;
	CBI  0x3,2
;  delay_ms(5);
	LDI  R30,LOW(5)
	LDI  R31,HIGH(5)
	CALL SUBOPT_0x9
;  spi(0b10010000);
	LDI  R30,LOW(144)
	ST   -Y,R30
	CALL _spi
;  delay_us(100);
	__DELAY_USW 400
;  spi(0x00);
	LDI  R30,LOW(0)
	ST   -Y,R30
	CALL _spi
;  spi(0x00);
	LDI  R30,LOW(0)
	ST   -Y,R30
	CALL _spi
;  TOUCH_CS = 1;
	SBI  0x3,2
;}
	RET
;
;unsigned int TSC2046_getX(void)
;{
_TSC2046_getX:
;  signed int res;
;  res = TSC2046_getADC_X() - ADC_X_MIN;
	ST   -Y,R17
	ST   -Y,R16
;	res -> R16,R17
	RCALL _TSC2046_getADC_X
	SUBI R30,LOW(1300)
	SBCI R31,HIGH(1300)
	MOVW R16,R30
;  if (res < 0) res = 0;
	TST  R17
	BRPL _0xB8
	__GETWRN 16,17,0
;  res = res / ADC_X_K;
_0xB8:
	CALL SUBOPT_0x25
	__GETD1N 0x4275D555
	CALL SUBOPT_0x26
;  return res;
	RJMP _0x2080004
;}
;
;unsigned int TSC2046_getY(void)
;{
_TSC2046_getY:
;  signed int res;
;  res = TSC2046_getADC_Y() - ADC_Y_MIN;
	ST   -Y,R17
	ST   -Y,R16
;	res -> R16,R17
	RCALL _TSC2046_getADC_Y
	SUBI R30,LOW(2100)
	SBCI R31,HIGH(2100)
	MOVW R16,R30
;  if (res < 0) res = 0;
	TST  R17
	BRPL _0xB9
	__GETWRN 16,17,0
;  res = res / ADC_Y_K;
_0xB9:
	CALL SUBOPT_0x25
	__GETD1N 0x42CE9E1E
	CALL SUBOPT_0x26
;  return res;
	RJMP _0x2080004
;}
;
;char TSC2046_GetCoordinates(void)
;{
_TSC2046_GetCoordinates:
;  char res = 0, i;
;
;  if (TOUCH_IRQ < 1)
	ST   -Y,R17
	ST   -Y,R16
;	res -> R17
;	i -> R16
	LDI  R17,0
	LDI  R26,0
	SBIC 0x1,3
	LDI  R26,1
	CPI  R26,LOW(0x1)
	BRLO PC+3
	JMP _0xBA
;  {
;    tempX = 0;
	CALL SUBOPT_0x27
;    tempY = 0;
	CALL SUBOPT_0x28
;    for (i = 0; i < TOUCH_Calc_Max; i++)
	LDI  R16,LOW(0)
_0xBC:
	CPI  R16,16
	BRSH _0xBD
;    {
;        tempX += TSC2046_getADC_X() - ADC_X_MIN;
	RCALL _TSC2046_getADC_X
	SUBI R30,LOW(1300)
	SBCI R31,HIGH(1300)
	CALL SUBOPT_0x29
;        tempY += TSC2046_getADC_Y() - ADC_Y_MIN;
	RCALL _TSC2046_getADC_Y
	SUBI R30,LOW(2100)
	SBCI R31,HIGH(2100)
	CALL SUBOPT_0x2A
;    }
	SUBI R16,-1
	RJMP _0xBC
_0xBD:
;    if (tempX < 0) tempX = 0;
	LDS  R26,_tempX+3
	TST  R26
	BRPL _0xBE
	CALL SUBOPT_0x27
;    if (tempY < 0) tempY = 0;
_0xBE:
	LDS  R26,_tempY+3
	TST  R26
	BRPL _0xBF
	CALL SUBOPT_0x28
;
;    TOUCH_X = tempX / (TOUCH_Calc_Max * ADC_X_K);
_0xBF:
	LDS  R30,_tempX
	LDS  R31,_tempX+1
	LDS  R22,_tempX+2
	LDS  R23,_tempX+3
	CALL __CDF1
	MOVW R26,R30
	MOVW R24,R22
	__GETD1N 0x4475D555
	CALL __DIVF21
	CALL __CFD1U
	MOVW R4,R30
;    TOUCH_Y = tempY / (TOUCH_Calc_Max * ADC_Y_K);
	LDS  R30,_tempY
	LDS  R31,_tempY+1
	LDS  R22,_tempY+2
	LDS  R23,_tempY+3
	CALL __CDF1
	MOVW R26,R30
	MOVW R24,R22
	__GETD1N 0x44CE9E1E
	CALL __DIVF21
	CALL __CFD1U
	MOVW R6,R30
;
;    TSC2046_Stop();
	RCALL _TSC2046_Stop
;    res = 1;
	LDI  R17,LOW(1)
;  }
;
;  return res;
_0xBA:
	MOV  R30,R17
_0x2080004:
	LD   R16,Y+
	LD   R17,Y+
	RET
;}
;
;void TSC2046_Init(void)
;{
_TSC2046_Init:
;  char i;
;  TSC2046_PortInit();
	ST   -Y,R17
;	i -> R17
	RCALL _TSC2046_PortInit
;  TOUCH_CS = 0;
	CBI  0x3,2
;  TOUCH_IRQ_PORT = 0;
	CBI  0x3,3
;  delay_us(10);
	__DELAY_USB 53
;  TOUCH_CS = 1;
	SBI  0x3,2
;  TOUCH_IRQ_PORT = 1;
	SBI  0x3,3
;  tempX = 0;
	CALL SUBOPT_0x27
;    tempY = 0;
	CALL SUBOPT_0x28
;    for (i = 0; i < TOUCH_Calc_Max; i++)
	LDI  R17,LOW(0)
_0xC9:
	CPI  R17,16
	BRSH _0xCA
;    {
;      tempX += TSC2046_getX();
	RCALL _TSC2046_getX
	CALL SUBOPT_0x29
;      tempY += TSC2046_getY();
	RCALL _TSC2046_getY
	CALL SUBOPT_0x2A
;    }
	SUBI R17,-1
	RJMP _0xC9
_0xCA:
;    TOUCH_X = tempX / TOUCH_Calc_Max;
	LDS  R26,_tempX
	LDS  R27,_tempX+1
	LDS  R24,_tempX+2
	LDS  R25,_tempX+3
	CALL SUBOPT_0x2B
	MOVW R4,R30
;    TOUCH_Y = tempY / TOUCH_Calc_Max;
	LDS  R26,_tempY
	LDS  R27,_tempY+1
	LDS  R24,_tempY+2
	LDS  R25,_tempY+3
	CALL SUBOPT_0x2B
	MOVW R6,R30
;    TSC2046_Stop();
	RCALL _TSC2046_Stop
;}
	RJMP _0x2080001
;
;#pragma used-
;
;#ifndef RXB8
;#define RXB8 1
;#endif
;
;#ifndef TXB8
;#define TXB8 0
;#endif
;
;#ifndef UPE
;#define UPE 2
;#endif
;
;#ifndef DOR
;#define DOR 3
;#endif
;
;#ifndef FE
;#define FE 4
;#endif
;
;#ifndef UDRE
;#define UDRE 5
;#endif
;
;#ifndef RXC
;#define RXC 7
;#endif
;
;#define FRAMING_ERROR (1<<FE)
;#define PARITY_ERROR (1<<UPE)
;#define DATA_OVERRUN (1<<DOR)
;#define DATA_REGISTER_EMPTY (1<<UDRE)
;#define RX_COMPLETE (1<<RXC)
;
;// USART0 Receiver buffer
;#define RX_BUFFER_SIZE0 250
;char rx_buffer0[RX_BUFFER_SIZE0];
;
;#if RX_BUFFER_SIZE0 <= 256
;unsigned char rx_wr_index0,rx_rd_index0,rx_counter0;
;#else
;unsigned int rx_wr_index0,rx_rd_index0,rx_counter0;
;#endif
;
;// This flag is set on USART0 Receiver buffer overflow
;bit rx_buffer_overflow0;
;
;// USART0 Receiver interrupt service routine
;interrupt [USART0_RXC] void usart0_rx_isr(void)
; 0000 004F {
_usart0_rx_isr:
	CALL SUBOPT_0x2C
; 0000 0050 char status,data;
; 0000 0051 status=UCSR0A;
	ST   -Y,R17
	ST   -Y,R16
;	status -> R17
;	data -> R16
	IN   R17,11
; 0000 0052 data=UDR0;
	IN   R16,12
; 0000 0053 if ((status & (FRAMING_ERROR | PARITY_ERROR | DATA_OVERRUN))==0)
	MOV  R30,R17
	ANDI R30,LOW(0x1C)
	BRNE _0xCB
; 0000 0054    {
; 0000 0055    rx_buffer0[rx_wr_index0++]=data;
	MOV  R30,R13
	INC  R13
	LDI  R31,0
	SUBI R30,LOW(-_rx_buffer0)
	SBCI R31,HIGH(-_rx_buffer0)
	ST   Z,R16
; 0000 0056 #if RX_BUFFER_SIZE0 == 256
; 0000 0057    // special case for receiver buffer size=256
; 0000 0058    if (++rx_counter0 == 0)
; 0000 0059       {
; 0000 005A #else
; 0000 005B    if (rx_wr_index0 == RX_BUFFER_SIZE0) rx_wr_index0=0;
	LDI  R30,LOW(250)
	CP   R30,R13
	BRNE _0xCC
	CLR  R13
; 0000 005C    if (++rx_counter0 == RX_BUFFER_SIZE0)
_0xCC:
	LDS  R26,_rx_counter0
	SUBI R26,-LOW(1)
	STS  _rx_counter0,R26
	CPI  R26,LOW(0xFA)
	BRNE _0xCD
; 0000 005D       {
; 0000 005E       rx_counter0=0;
	LDI  R30,LOW(0)
	STS  _rx_counter0,R30
; 0000 005F #endif
; 0000 0060       rx_buffer_overflow0=1;
	SET
	BLD  R2,0
; 0000 0061       }
; 0000 0062    }
_0xCD:
; 0000 0063 }
_0xCB:
	LD   R16,Y+
	LD   R17,Y+
	RJMP _0x175
;
;#ifndef _DEBUG_TERMINAL_IO_
;// Get a character from the USART0 Receiver buffer
;#define _ALTERNATE_GETCHAR_
;#pragma used+
;char getchar0(void)
; 0000 006A {
_getchar0:
; 0000 006B char data;
; 0000 006C while (rx_counter0==0);
	ST   -Y,R17
;	data -> R17
_0xCE:
	LDS  R30,_rx_counter0
	CPI  R30,0
	BREQ _0xCE
; 0000 006D data=rx_buffer0[rx_rd_index0++];
	MOV  R30,R12
	INC  R12
	LDI  R31,0
	SUBI R30,LOW(-_rx_buffer0)
	SBCI R31,HIGH(-_rx_buffer0)
	LD   R17,Z
; 0000 006E #if RX_BUFFER_SIZE0 != 256
; 0000 006F if (rx_rd_index0 == RX_BUFFER_SIZE0) rx_rd_index0=0;
	LDI  R30,LOW(250)
	CP   R30,R12
	BRNE _0xD1
	CLR  R12
; 0000 0070 #endif
; 0000 0071 #asm("cli")
_0xD1:
	cli
; 0000 0072 --rx_counter0;
	LDS  R30,_rx_counter0
	SUBI R30,LOW(1)
	STS  _rx_counter0,R30
; 0000 0073 #asm("sei")
	sei
; 0000 0074 return data;
	MOV  R30,R17
	RJMP _0x2080001
; 0000 0075 }
;#pragma used-
;#endif
;
;// USART0 Transmitter buffer
;#define TX_BUFFER_SIZE0 8
;char tx_buffer0[TX_BUFFER_SIZE0];
;
;#if TX_BUFFER_SIZE0 <= 256
;unsigned char tx_wr_index0,tx_rd_index0,tx_counter0;
;#else
;unsigned int tx_wr_index0,tx_rd_index0,tx_counter0;
;#endif
;
;// USART0 Transmitter interrupt service routine
;interrupt [USART0_TXC] void usart0_tx_isr(void)
; 0000 0085 {
_usart0_tx_isr:
	CALL SUBOPT_0x2C
; 0000 0086 if (tx_counter0)
	LDS  R30,_tx_counter0
	CPI  R30,0
	BREQ _0xD2
; 0000 0087    {
; 0000 0088    --tx_counter0;
	SUBI R30,LOW(1)
	STS  _tx_counter0,R30
; 0000 0089    UDR0=tx_buffer0[tx_rd_index0++];
	LDS  R30,_tx_rd_index0
	SUBI R30,-LOW(1)
	STS  _tx_rd_index0,R30
	CALL SUBOPT_0x2D
	LD   R30,Z
	OUT  0xC,R30
; 0000 008A #if TX_BUFFER_SIZE0 != 256
; 0000 008B    if (tx_rd_index0 == TX_BUFFER_SIZE0) tx_rd_index0=0;
	LDS  R26,_tx_rd_index0
	CPI  R26,LOW(0x8)
	BRNE _0xD3
	LDI  R30,LOW(0)
	STS  _tx_rd_index0,R30
; 0000 008C #endif
; 0000 008D    }
_0xD3:
; 0000 008E }
_0xD2:
	RJMP _0x175
;
;#ifndef _DEBUG_TERMINAL_IO_
;// Write a character to the USART0 Transmitter buffer
;#define _ALTERNATE_PUTCHAR_
;#pragma used+
;void putchar0(char c)
; 0000 0095 {
_putchar0:
; 0000 0096 while (tx_counter0 == TX_BUFFER_SIZE0);
;	c -> Y+0
_0xD4:
	LDS  R26,_tx_counter0
	CPI  R26,LOW(0x8)
	BREQ _0xD4
; 0000 0097 #asm("cli")
	cli
; 0000 0098 if (tx_counter0 || ((UCSR0A & DATA_REGISTER_EMPTY)==0))
	LDS  R30,_tx_counter0
	CPI  R30,0
	BRNE _0xD8
	SBIC 0xB,5
	RJMP _0xD7
_0xD8:
; 0000 0099    {
; 0000 009A    tx_buffer0[tx_wr_index0++]=c;
	LDS  R30,_tx_wr_index0
	SUBI R30,-LOW(1)
	STS  _tx_wr_index0,R30
	CALL SUBOPT_0x2D
	LD   R26,Y
	STD  Z+0,R26
; 0000 009B #if TX_BUFFER_SIZE0 != 256
; 0000 009C    if (tx_wr_index0 == TX_BUFFER_SIZE0) tx_wr_index0=0;
	LDS  R26,_tx_wr_index0
	CPI  R26,LOW(0x8)
	BRNE _0xDA
	LDI  R30,LOW(0)
	STS  _tx_wr_index0,R30
; 0000 009D #endif
; 0000 009E    ++tx_counter0;
_0xDA:
	LDS  R30,_tx_counter0
	SUBI R30,-LOW(1)
	STS  _tx_counter0,R30
; 0000 009F    }
; 0000 00A0 else
	RJMP _0xDB
_0xD7:
; 0000 00A1    UDR0=c;
	LD   R30,Y
	OUT  0xC,R30
; 0000 00A2 #asm("sei")
_0xDB:
	sei
; 0000 00A3 }
	ADIW R28,1
	RET
;#pragma used-
;#endif
;
;// USART1 Receiver buffer
;#define RX_BUFFER_SIZE1 32
;char rx_buffer1[RX_BUFFER_SIZE1];
;
;#if RX_BUFFER_SIZE1 <= 256
;unsigned char rx_wr_index1,rx_rd_index1,rx_counter1;
;#else
;unsigned int rx_wr_index1,rx_rd_index1,rx_counter1;
;#endif
;
;// This flag is set on USART1 Receiver buffer overflow
;bit rx_buffer_overflow1;
;
;// USART1 Receiver interrupt service routine
;interrupt [USART1_RXC] void usart1_rx_isr(void)
; 0000 00B6 {
_usart1_rx_isr:
	CALL SUBOPT_0x2C
; 0000 00B7 char status,data;
; 0000 00B8 status=UCSR1A;
	ST   -Y,R17
	ST   -Y,R16
;	status -> R17
;	data -> R16
	LDS  R17,155
; 0000 00B9 data=UDR1;
	LDS  R16,156
; 0000 00BA if ((status & (FRAMING_ERROR | PARITY_ERROR | DATA_OVERRUN))==0)
	MOV  R30,R17
	ANDI R30,LOW(0x1C)
	BRNE _0xDC
; 0000 00BB    {
; 0000 00BC    rx_buffer1[rx_wr_index1++]=data;
	LDS  R30,_rx_wr_index1
	SUBI R30,-LOW(1)
	STS  _rx_wr_index1,R30
	SUBI R30,LOW(1)
	LDI  R31,0
	SUBI R30,LOW(-_rx_buffer1)
	SBCI R31,HIGH(-_rx_buffer1)
	ST   Z,R16
; 0000 00BD #if RX_BUFFER_SIZE1 == 256
; 0000 00BE    // special case for receiver buffer size=256
; 0000 00BF    if (++rx_counter1 == 0)
; 0000 00C0       {
; 0000 00C1 #else
; 0000 00C2    if (rx_wr_index1 == RX_BUFFER_SIZE1) rx_wr_index1=0;
	LDS  R26,_rx_wr_index1
	CPI  R26,LOW(0x20)
	BRNE _0xDD
	LDI  R30,LOW(0)
	STS  _rx_wr_index1,R30
; 0000 00C3    if (++rx_counter1 == RX_BUFFER_SIZE1)
_0xDD:
	LDS  R26,_rx_counter1
	SUBI R26,-LOW(1)
	STS  _rx_counter1,R26
	CPI  R26,LOW(0x20)
	BRNE _0xDE
; 0000 00C4       {
; 0000 00C5       rx_counter1=0;
	LDI  R30,LOW(0)
	STS  _rx_counter1,R30
; 0000 00C6 #endif
; 0000 00C7       rx_buffer_overflow1=1;
	SET
	BLD  R2,1
; 0000 00C8       }
; 0000 00C9    }
_0xDE:
; 0000 00CA }
_0xDC:
	LD   R16,Y+
	LD   R17,Y+
	RJMP _0x175
;
;// Get a character from the USART1 Receiver buffer
;#pragma used+
;char getchar(void)
; 0000 00CF {
; 0000 00D0 char data;
; 0000 00D1 while (rx_counter1==0);
;	data -> R17
; 0000 00D2 data=rx_buffer1[rx_rd_index1++];
; 0000 00D3 #if RX_BUFFER_SIZE1 != 256
; 0000 00D4 if (rx_rd_index1 == RX_BUFFER_SIZE1) rx_rd_index1=0;
; 0000 00D5 #endif
; 0000 00D6 #asm("cli")
; 0000 00D7 --rx_counter1;
; 0000 00D8 #asm("sei")
; 0000 00D9 return data;
; 0000 00DA }
;#pragma used-
;// USART1 Transmitter buffer
;#define TX_BUFFER_SIZE1 32
;char tx_buffer1[TX_BUFFER_SIZE1];
;
;#if TX_BUFFER_SIZE1 <= 256
;unsigned char tx_wr_index1,tx_rd_index1,tx_counter1;
;#else
;unsigned int tx_wr_index1,tx_rd_index1,tx_counter1;
;#endif
;
;// USART1 Transmitter interrupt service routine
;interrupt [USART1_TXC] void usart1_tx_isr(void)
; 0000 00E8 {
_usart1_tx_isr:
	CALL SUBOPT_0x2C
; 0000 00E9 if (tx_counter1)
	LDS  R30,_tx_counter1
	CPI  R30,0
	BREQ _0xE3
; 0000 00EA    {
; 0000 00EB    --tx_counter1;
	SUBI R30,LOW(1)
	STS  _tx_counter1,R30
; 0000 00EC    UDR1=tx_buffer1[tx_rd_index1++];
	LDS  R30,_tx_rd_index1
	SUBI R30,-LOW(1)
	STS  _tx_rd_index1,R30
	SUBI R30,LOW(1)
	LDI  R31,0
	SUBI R30,LOW(-_tx_buffer1)
	SBCI R31,HIGH(-_tx_buffer1)
	LD   R30,Z
	STS  156,R30
; 0000 00ED #if TX_BUFFER_SIZE1 != 256
; 0000 00EE    if (tx_rd_index1 == TX_BUFFER_SIZE1) tx_rd_index1=0;
	LDS  R26,_tx_rd_index1
	CPI  R26,LOW(0x20)
	BRNE _0xE4
	LDI  R30,LOW(0)
	STS  _tx_rd_index1,R30
; 0000 00EF #endif
; 0000 00F0    }
_0xE4:
; 0000 00F1 }
_0xE3:
_0x175:
	LD   R30,Y+
	OUT  SREG,R30
	LD   R31,Y+
	LD   R30,Y+
	LD   R26,Y+
	RETI
;
;// Write a character to the USART1 Transmitter buffer
;#pragma used+
;void putchar(char c)
; 0000 00F6 {
; 0000 00F7 while (tx_counter1 == TX_BUFFER_SIZE1);
;	c -> Y+0
; 0000 00F8 #asm("cli")
; 0000 00F9 if (tx_counter1 || ((UCSR1A & DATA_REGISTER_EMPTY)==0))
; 0000 00FA    {
; 0000 00FB    tx_buffer1[tx_wr_index1++]=c;
; 0000 00FC #if TX_BUFFER_SIZE1 != 256
; 0000 00FD    if (tx_wr_index1 == TX_BUFFER_SIZE1) tx_wr_index1=0;
; 0000 00FE #endif
; 0000 00FF    ++tx_counter1;
; 0000 0100    }
; 0000 0101 else
; 0000 0102    UDR1=c;
; 0000 0103 #asm("sei")
; 0000 0104 }
;#pragma used-
;
;// Standard Input/Output functions
;#include <stdio.h>
;
;
;/////////////////////////////////////////////////////////////////////////////////
;/////////////////////////////////////////////////////////////////////////////////
;#define RS485 PORTD.4
;#define BACKLIGHT PORTB.7
;
;#define Graph_X_Min 0
;#define Graph_X_Max 479
;#define Graph_Y_Min 52
;#define Graph_Y_Max 232
;
;#define Graph_X_Step ((Graph_X_Max-Graph_X_Min+1)/60)
;#define Graph_Y_Mid ((Graph_Y_Max-Graph_Y_Min)/2 + Graph_Y_Min)
;
;#define Text_StartX 30
;#define Text_StartY 16
;
;#define Value_StartX 290
;#define Value_StartY 16
;#define Value_Lenght (16*4)
;
;#define BTN_StartX 6
;#define BTN_StartY 240
;#define BTN_Width 100
;#define BTN_Height 30
;#define BTN_Between 20
;
;flash unsigned int BTN1_Y_Begin = BTN_StartY;
;flash unsigned int BTN1_Y_End = BTN_StartY + BTN_Height;
;flash unsigned int BTN1_X_Begin = BTN_StartX;
;flash unsigned int BTN1_X_End = BTN_StartX + BTN_Width;
;
;flash unsigned int BTN2_Y_Begin = BTN_StartY;
;flash unsigned int BTN2_Y_End = BTN_StartY + BTN_Height;
;flash unsigned int BTN2_X_Begin = BTN_StartX + BTN_Width + BTN_Between;
;flash unsigned int BTN2_X_End = BTN_StartX + (BTN_Width * 2) + BTN_Between;
;
;flash unsigned int BTN3_Y_Begin = BTN_StartY;
;flash unsigned int BTN3_Y_End = BTN_StartY + BTN_Height;
;flash unsigned int BTN3_X_Begin = BTN_StartX + (BTN_Width * 2) + (BTN_Between * 2);
;flash unsigned int BTN3_X_End = BTN_StartX + (BTN_Width * 3) + (BTN_Between * 2);
;
;flash unsigned int BTN4_Y_Begin = BTN_StartY;
;flash unsigned int BTN4_Y_End = BTN_StartY + BTN_Height;
;flash unsigned int BTN4_X_Begin = BTN_StartX + (BTN_Width * 3) + (BTN_Between * 3);
;flash unsigned int BTN4_X_End = BTN_StartX + (BTN_Width * 4) + (BTN_Between * 3);
;
;void Repaint_Button(unsigned char* String, char Number, unsigned int Color, unsigned int BackColor)
; 0000 013A {
_Repaint_Button:
; 0000 013B   switch(Number)
;	*String -> Y+5
;	Number -> Y+4
;	Color -> Y+2
;	BackColor -> Y+0
	LDD  R30,Y+4
	LDI  R31,0
; 0000 013C   {
; 0000 013D     case 1 :
	CPI  R30,LOW(0x1)
	LDI  R26,HIGH(0x1)
	CPC  R31,R26
	BRNE _0xF0
; 0000 013E       SSD1963_PutString16("     ", BTN1_X_Begin + 10, BTN1_Y_Begin + (BTN_Height / 2) - (FONT_HEIGHT / 2), Color, BackColor);
	__POINTW1MN _0xF1,0
	ST   -Y,R31
	ST   -Y,R30
	LDI  R30,LOW(16)
	LDI  R31,HIGH(16)
	CALL SUBOPT_0x2E
	CALL SUBOPT_0x11
	CALL SUBOPT_0x2F
; 0000 013F       SSD1963_PutString16(String, BTN1_X_Begin + 10, BTN1_Y_Begin + (BTN_Height / 2) - (FONT_HEIGHT / 2), Color, BackColor);
	LDI  R30,LOW(16)
	LDI  R31,HIGH(16)
	RJMP _0x16F
; 0000 0140     break;
; 0000 0141     case 2 :
_0xF0:
	CPI  R30,LOW(0x2)
	LDI  R26,HIGH(0x2)
	CPC  R31,R26
	BRNE _0xF2
; 0000 0142       SSD1963_PutString16("     ", BTN2_X_Begin + 10, BTN2_Y_Begin + (BTN_Height / 2) - (FONT_HEIGHT / 2), Color, BackColor);
	__POINTW1MN _0xF1,6
	ST   -Y,R31
	ST   -Y,R30
	LDI  R30,LOW(136)
	LDI  R31,HIGH(136)
	CALL SUBOPT_0x2E
	CALL SUBOPT_0x11
	CALL SUBOPT_0x2F
; 0000 0143       SSD1963_PutString16(String, BTN2_X_Begin + 10, BTN2_Y_Begin + (BTN_Height / 2) - (FONT_HEIGHT / 2), Color, BackColor);
	LDI  R30,LOW(136)
	LDI  R31,HIGH(136)
	RJMP _0x16F
; 0000 0144     break;
; 0000 0145     case 3 :
_0xF2:
	CPI  R30,LOW(0x3)
	LDI  R26,HIGH(0x3)
	CPC  R31,R26
	BRNE _0xF3
; 0000 0146       SSD1963_PutString16("     ", BTN3_X_Begin + 10, BTN3_Y_Begin + (BTN_Height / 2) - (FONT_HEIGHT / 2), Color, BackColor);
	__POINTW1MN _0xF1,12
	ST   -Y,R31
	ST   -Y,R30
	LDI  R30,LOW(256)
	LDI  R31,HIGH(256)
	CALL SUBOPT_0x2E
	CALL SUBOPT_0x11
	CALL SUBOPT_0x2F
; 0000 0147       SSD1963_PutString16(String, BTN3_X_Begin + 10, BTN3_Y_Begin + (BTN_Height / 2) - (FONT_HEIGHT / 2), Color, BackColor);
	LDI  R30,LOW(256)
	LDI  R31,HIGH(256)
	RJMP _0x16F
; 0000 0148     break;
; 0000 0149     case 4 :
_0xF3:
	CPI  R30,LOW(0x4)
	LDI  R26,HIGH(0x4)
	CPC  R31,R26
	BRNE _0xEF
; 0000 014A       SSD1963_PutString16("     ", BTN4_X_Begin + 10, BTN4_Y_Begin + (BTN_Height / 2) - (FONT_HEIGHT / 2), Color, BackColor);
	__POINTW1MN _0xF1,18
	ST   -Y,R31
	ST   -Y,R30
	LDI  R30,LOW(376)
	LDI  R31,HIGH(376)
	CALL SUBOPT_0x2E
	CALL SUBOPT_0x11
	CALL SUBOPT_0x2F
; 0000 014B       SSD1963_PutString16(String, BTN4_X_Begin + 10, BTN4_Y_Begin + (BTN_Height / 2) - (FONT_HEIGHT / 2), Color, BackColor);
	LDI  R30,LOW(376)
	LDI  R31,HIGH(376)
_0x16F:
	ST   -Y,R31
	ST   -Y,R30
	LDI  R30,LOW(247)
	LDI  R31,HIGH(247)
	ST   -Y,R31
	ST   -Y,R30
	CALL SUBOPT_0x11
	CALL SUBOPT_0x11
	RCALL _SSD1963_PutString16
; 0000 014C     break;
; 0000 014D   }
_0xEF:
; 0000 014E }
	RJMP _0x2080003

	.DSEG
_0xF1:
	.BYTE 0x18
;
;void Prepare_Screen(void)
; 0000 0151 {

	.CSEG
_Prepare_Screen:
; 0000 0152   // рисуем кнопки
; 0000 0153   SSD1963_DrawFillRect(BTN1_X_Begin, BTN1_X_End, BTN1_Y_Begin, BTN1_Y_End, WHITE);
	LDI  R30,LOW(6)
	LDI  R31,HIGH(6)
	ST   -Y,R31
	ST   -Y,R30
	LDI  R30,LOW(106)
	LDI  R31,HIGH(106)
	CALL SUBOPT_0x30
; 0000 0154   SSD1963_DrawFillRect(BTN2_X_Begin, BTN2_X_End, BTN2_Y_Begin, BTN2_Y_End, WHITE);
	LDI  R30,LOW(126)
	LDI  R31,HIGH(126)
	ST   -Y,R31
	ST   -Y,R30
	LDI  R30,LOW(226)
	LDI  R31,HIGH(226)
	CALL SUBOPT_0x30
; 0000 0155   SSD1963_DrawFillRect(BTN3_X_Begin, BTN3_X_End, BTN3_Y_Begin, BTN3_Y_End, WHITE);
	LDI  R30,LOW(246)
	LDI  R31,HIGH(246)
	ST   -Y,R31
	ST   -Y,R30
	LDI  R30,LOW(346)
	LDI  R31,HIGH(346)
	CALL SUBOPT_0x30
; 0000 0156   SSD1963_DrawFillRect(BTN4_X_Begin, BTN4_X_End, BTN4_Y_Begin, BTN4_Y_End, WHITE);
	LDI  R30,LOW(366)
	LDI  R31,HIGH(366)
	ST   -Y,R31
	ST   -Y,R30
	LDI  R30,LOW(466)
	LDI  R31,HIGH(466)
	CALL SUBOPT_0x30
; 0000 0157   // рисуем окантовку
; 0000 0158   SSD1963_DrawRect(BTN1_X_Begin + 1, BTN1_X_End - 1, BTN1_Y_Begin + 1, BTN1_Y_End - 1, 1, BLACK);
	LDI  R30,LOW(7)
	LDI  R31,HIGH(7)
	ST   -Y,R31
	ST   -Y,R30
	LDI  R30,LOW(105)
	LDI  R31,HIGH(105)
	CALL SUBOPT_0x31
	RCALL _SSD1963_DrawRect
; 0000 0159   SSD1963_DrawRect(BTN2_X_Begin + 1, BTN2_X_End - 1, BTN2_Y_Begin + 1, BTN2_Y_End - 1, 1, BLACK);
	LDI  R30,LOW(127)
	LDI  R31,HIGH(127)
	ST   -Y,R31
	ST   -Y,R30
	LDI  R30,LOW(225)
	LDI  R31,HIGH(225)
	CALL SUBOPT_0x31
	RCALL _SSD1963_DrawRect
; 0000 015A   SSD1963_DrawRect(BTN3_X_Begin + 1, BTN3_X_End - 1, BTN3_Y_Begin + 1, BTN3_Y_End - 1, 1, BLACK);
	LDI  R30,LOW(247)
	LDI  R31,HIGH(247)
	ST   -Y,R31
	ST   -Y,R30
	LDI  R30,LOW(345)
	LDI  R31,HIGH(345)
	CALL SUBOPT_0x31
	RCALL _SSD1963_DrawRect
; 0000 015B   SSD1963_DrawRect(BTN4_X_Begin + 1, BTN4_X_End - 1, BTN4_Y_Begin + 1, BTN4_Y_End - 1, 1, BLACK);
	LDI  R30,LOW(367)
	LDI  R31,HIGH(367)
	ST   -Y,R31
	ST   -Y,R30
	LDI  R30,LOW(465)
	LDI  R31,HIGH(465)
	CALL SUBOPT_0x31
	RCALL _SSD1963_DrawRect
; 0000 015C 
; 0000 015D   Repaint_Button("МЕНЮ", 1, BLACK, WHITE);
	__POINTW1MN _0xF5,0
	ST   -Y,R31
	ST   -Y,R30
	LDI  R30,LOW(1)
	ST   -Y,R30
	CALL SUBOPT_0xD
	CALL SUBOPT_0x32
; 0000 015E   Repaint_Button("  +", 2, BLACK, WHITE);
	__POINTW1MN _0xF5,5
	ST   -Y,R31
	ST   -Y,R30
	LDI  R30,LOW(2)
	ST   -Y,R30
	CALL SUBOPT_0xD
	CALL SUBOPT_0x32
; 0000 015F   Repaint_Button("  -", 3, BLACK, WHITE);
	__POINTW1MN _0xF5,9
	ST   -Y,R31
	ST   -Y,R30
	LDI  R30,LOW(3)
	ST   -Y,R30
	CALL SUBOPT_0xD
	CALL SUBOPT_0x32
; 0000 0160   Repaint_Button("ПАУЗА", 4, BLACK, WHITE);
	__POINTW1MN _0xF5,13
	CALL SUBOPT_0x33
	CALL SUBOPT_0x32
; 0000 0161 }
	RET

	.DSEG
_0xF5:
	.BYTE 0x13
;
;char GetButton(void)
; 0000 0164 {

	.CSEG
_GetButton:
; 0000 0165   char res = 0;
; 0000 0166   if (TSC2046_GetCoordinates())
	ST   -Y,R17
;	res -> R17
	LDI  R17,0
	RCALL _TSC2046_GetCoordinates
	CPI  R30,0
	BRNE PC+3
	JMP _0xF6
; 0000 0167   {
; 0000 0168     if ((TOUCH_X > BTN1_X_Begin) && (TOUCH_X < BTN1_X_End)) // если X внутри заданного диапазона
	LDI  R30,LOW(6)
	LDI  R31,HIGH(6)
	CP   R30,R4
	CPC  R31,R5
	BRSH _0xF8
	LDI  R30,LOW(106)
	LDI  R31,HIGH(106)
	CP   R4,R30
	CPC  R5,R31
	BRLO _0xF9
_0xF8:
	RJMP _0xF7
_0xF9:
; 0000 0169     {
; 0000 016A       if ((TOUCH_Y > BTN1_Y_Begin) && (TOUCH_Y < BTN1_Y_End)) res = 1;
	CALL SUBOPT_0x34
	BRSH _0xFB
	CALL SUBOPT_0x35
	BRLO _0xFC
_0xFB:
	RJMP _0xFA
_0xFC:
	LDI  R17,LOW(1)
; 0000 016B     }
_0xFA:
; 0000 016C     if ((TOUCH_X > BTN2_X_Begin) && (TOUCH_X < BTN2_X_End)) // если X внутри заданного диапазона
_0xF7:
	LDI  R30,LOW(126)
	LDI  R31,HIGH(126)
	CP   R30,R4
	CPC  R31,R5
	BRSH _0xFE
	LDI  R30,LOW(226)
	LDI  R31,HIGH(226)
	CP   R4,R30
	CPC  R5,R31
	BRLO _0xFF
_0xFE:
	RJMP _0xFD
_0xFF:
; 0000 016D     {
; 0000 016E       if ((TOUCH_Y > BTN2_Y_Begin) && (TOUCH_Y < BTN2_Y_End)) res = 2;
	CALL SUBOPT_0x34
	BRSH _0x101
	CALL SUBOPT_0x35
	BRLO _0x102
_0x101:
	RJMP _0x100
_0x102:
	LDI  R17,LOW(2)
; 0000 016F     }
_0x100:
; 0000 0170     if ((TOUCH_X > BTN3_X_Begin) && (TOUCH_X < BTN3_X_End)) // если X внутри заданного диапазона
_0xFD:
	LDI  R30,LOW(246)
	LDI  R31,HIGH(246)
	CP   R30,R4
	CPC  R31,R5
	BRSH _0x104
	LDI  R30,LOW(346)
	LDI  R31,HIGH(346)
	CP   R4,R30
	CPC  R5,R31
	BRLO _0x105
_0x104:
	RJMP _0x103
_0x105:
; 0000 0171     {
; 0000 0172       if ((TOUCH_Y > BTN3_Y_Begin) && (TOUCH_Y < BTN3_Y_End)) res = 3;
	CALL SUBOPT_0x34
	BRSH _0x107
	CALL SUBOPT_0x35
	BRLO _0x108
_0x107:
	RJMP _0x106
_0x108:
	LDI  R17,LOW(3)
; 0000 0173     }
_0x106:
; 0000 0174     if ((TOUCH_X > BTN4_X_Begin) && (TOUCH_X < BTN4_X_End)) // если X внутри заданного диапазона
_0x103:
	LDI  R30,LOW(366)
	LDI  R31,HIGH(366)
	CP   R30,R4
	CPC  R31,R5
	BRSH _0x10A
	LDI  R30,LOW(466)
	LDI  R31,HIGH(466)
	CP   R4,R30
	CPC  R5,R31
	BRLO _0x10B
_0x10A:
	RJMP _0x109
_0x10B:
; 0000 0175     {
; 0000 0176       if ((TOUCH_Y > BTN4_Y_Begin) && (TOUCH_Y < BTN4_Y_End)) res = 4;
	CALL SUBOPT_0x34
	BRSH _0x10D
	CALL SUBOPT_0x35
	BRLO _0x10E
_0x10D:
	RJMP _0x10C
_0x10E:
	LDI  R17,LOW(4)
; 0000 0177     }
_0x10C:
; 0000 0178 
; 0000 0179   }
_0x109:
; 0000 017A   return res;
_0xF6:
	MOV  R30,R17
	RJMP _0x2080001
; 0000 017B }
;
;void PutParameterText(char Number, unsigned int Color)
; 0000 017E {
_PutParameterText:
; 0000 017F   int X = Text_StartX;
; 0000 0180   int Y = Text_StartY;
; 0000 0181 
; 0000 0182   SSD1963_PutString16("                ", X, Y, Color, BLACK);
	CALL __SAVELOCR4
;	Number -> Y+6
;	Color -> Y+4
;	X -> R16,R17
;	Y -> R18,R19
	__GETWRN 16,17,30
	__GETWRN 18,19,16
	__POINTW1MN _0x10F,0
	CALL SUBOPT_0x36
	CALL SUBOPT_0x37
	RCALL _SSD1963_PutString16
; 0000 0183   SSD1963_PutString16("                ", X, Y + FONT_HEIGHT, Color, BLACK);
	__POINTW1MN _0x10F,17
	CALL SUBOPT_0x36
	CALL SUBOPT_0x38
	RCALL _SSD1963_PutString16
; 0000 0184   switch (Number)
	LDD  R30,Y+6
	CALL SUBOPT_0x39
; 0000 0185   {
; 0000 0186     case 0 :
	BRNE _0x113
; 0000 0187       SSD1963_PutString16("НАПРЯЖЕНИЕ", X, Y, Color, BLACK);
	__POINTW1MN _0x10F,34
	CALL SUBOPT_0x36
	CALL SUBOPT_0x37
	RCALL _SSD1963_PutString16
; 0000 0188       SSD1963_PutString16("ФАЗ", X, Y + FONT_HEIGHT, Color, BLACK);
	__POINTW1MN _0x10F,45
	RJMP _0x170
; 0000 0189     break;
; 0000 018A     case 1 :
_0x113:
	CPI  R30,LOW(0x1)
	LDI  R26,HIGH(0x1)
	CPC  R31,R26
	BRNE _0x114
; 0000 018B       SSD1963_PutString16("ТОК", X, Y, Color, BLACK);
	__POINTW1MN _0x10F,49
	CALL SUBOPT_0x36
	CALL SUBOPT_0x37
	RCALL _SSD1963_PutString16
; 0000 018C       SSD1963_PutString16("ФАЗ", X, Y + FONT_HEIGHT, Color, BLACK);
	__POINTW1MN _0x10F,53
	RJMP _0x170
; 0000 018D     break;
; 0000 018E     case 2 :
_0x114:
	CPI  R30,LOW(0x2)
	LDI  R26,HIGH(0x2)
	CPC  R31,R26
	BRNE _0x112
; 0000 018F       SSD1963_PutString16("НАПРЯЖЕНИЕ И ТОК", X, Y, Color, BLACK);
	__POINTW1MN _0x10F,57
	CALL SUBOPT_0x36
	CALL SUBOPT_0x37
	RCALL _SSD1963_PutString16
; 0000 0190       SSD1963_PutString16("ВОЗБУЖДЕНИЯ", X, Y + FONT_HEIGHT, Color, BLACK);
	__POINTW1MN _0x10F,74
_0x170:
	ST   -Y,R31
	ST   -Y,R30
	ST   -Y,R17
	ST   -Y,R16
	CALL SUBOPT_0x38
	RCALL _SSD1963_PutString16
; 0000 0191     break;
; 0000 0192     /*
; 0000 0193     case 3 :
; 0000 0194       SSD1963_PutString16("ВРЕМЯ ОБРАБОТКИ", X, Y, Color, BLACK);
; 0000 0195       SSD1963_PutString16("СКОРОСТИ", X, Y + FONT_HEIGHT, Color, BLACK);
; 0000 0196     break;
; 0000 0197     case 4 :
; 0000 0198       SSD1963_PutString16("СКОРОСТЬ ТПЧ", X, Y, Color, BLACK);
; 0000 0199       SSD1963_PutString16("МАКСИМАЛЬНАЯ", X, Y + FONT_HEIGHT, Color, BLACK);
; 0000 019A     break;
; 0000 019B    */
; 0000 019C   }
_0x112:
; 0000 019D }
	CALL __LOADLOCR4
_0x2080003:
	ADIW R28,7
	RET

	.DSEG
_0x10F:
	.BYTE 0x56
;
;///////////////////////////////////////////////
;char State=0, ParameterState=0, ValueState=0;
;signed int Graph_X = -Graph_X_Step;
;signed int Amplitude[3] = {90, 90, 50};
;signed int ValueLast[3] = {0,0,0};
;unsigned int WaitADC_mSec = 0;
;
;
;//////////////////////////////////////////////
;
;//Функция вывода напряжения(тока) и частоты
;void PutParameterValue(char v1, char v2, char v3, char fHz)
; 0000 01AB {

	.CSEG
_PutParameterValue:
; 0000 01AC     int X = Value_StartX;
; 0000 01AD     int Y = Value_StartY ;
; 0000 01AE     unsigned int Color = BLUE;
; 0000 01AF 
; 0000 01B0     SSD1963_PutString16("            ", X, Y, Color, BLACK);
	CALL __SAVELOCR6
;	v1 -> Y+9
;	v2 -> Y+8
;	v3 -> Y+7
;	fHz -> Y+6
;	X -> R16,R17
;	Y -> R18,R19
;	Color -> R20,R21
	__GETWRN 16,17,290
	__GETWRN 18,19,16
	__GETWRN 20,21,248
	__POINTW1MN _0x118,0
	CALL SUBOPT_0x36
	CALL SUBOPT_0x3A
	RCALL _SSD1963_PutString16
; 0000 01B1     SSD1963_PutString16("            ", X, Y + FONT_HEIGHT, Color, BLACK);
	__POINTW1MN _0x118,13
	CALL SUBOPT_0x36
	MOVW R30,R18
	ADIW R30,16
	ST   -Y,R31
	ST   -Y,R30
	CALL SUBOPT_0x3B
	RCALL _SSD1963_PutString16
; 0000 01B2 
; 0000 01B3     if(ParameterState != 2)
	LDS  R26,_ParameterState
	CPI  R26,LOW(0x2)
	BREQ _0x119
; 0000 01B4     {
; 0000 01B5         SSD1963_PutValue16(v3, X, Y, 3, Color, BLACK);
	LDD  R30,Y+7
	CALL SUBOPT_0x3C
	CALL SUBOPT_0x3D
	CALL SUBOPT_0x3E
; 0000 01B6         X += Value_Lenght;
; 0000 01B7         SSD1963_PutValue16(v2, X, Y, 3, Color, BLACK);
	CALL SUBOPT_0x13
	CALL SUBOPT_0x36
	CALL SUBOPT_0x3D
	CALL SUBOPT_0x3E
; 0000 01B8         X += Value_Lenght;
; 0000 01B9         SSD1963_PutValue16(v1, X, Y, 3, Color, BLACK);
	LDD  R30,Y+9
	CALL SUBOPT_0x3C
	CALL SUBOPT_0x3D
	RCALL _SSD1963_PutValue16
; 0000 01BA         X = Value_StartX + Value_Lenght;
	__GETWRN 16,17,354
; 0000 01BB         Y += FONT_HEIGHT;
	__ADDWRN 18,19,16
; 0000 01BC         SSD1963_PutValue16(fHz, X, Y, 3, Color, BLACK);
	LDD  R30,Y+6
	CALL SUBOPT_0x3C
	CALL SUBOPT_0x3D
	CALL SUBOPT_0x3E
; 0000 01BD         X += Value_Lenght;
; 0000 01BE         SSD1963_PutString16("ГЦ", X, Y, Color, BLACK);
	__POINTW1MN _0x118,26
	CALL SUBOPT_0x36
	CALL SUBOPT_0x3A
	CALL _SSD1963_PutString16
; 0000 01BF     }
; 0000 01C0     else
	RJMP _0x11A
_0x119:
; 0000 01C1     {
; 0000 01C2         X += Value_Lenght;
	__ADDWRN 16,17,64
; 0000 01C3         SSD1963_PutValue16(v1, X, Y, 3, Color, BLACK);
	LDD  R30,Y+9
	CALL SUBOPT_0x3C
	CALL SUBOPT_0x3D
	CALL _SSD1963_PutValue16
; 0000 01C4         Y += FONT_HEIGHT;
	__ADDWRN 18,19,16
; 0000 01C5         SSD1963_PutValue16(v2, X, Y, 3, Color, BLACK);
	CALL SUBOPT_0x13
	CALL SUBOPT_0x36
	CALL SUBOPT_0x3D
	CALL _SSD1963_PutValue16
; 0000 01C6     }
_0x11A:
; 0000 01C7 }
	CALL __LOADLOCR6
	ADIW R28,10
	RET

	.DSEG
_0x118:
	.BYTE 0x1D
;
;
;void StartPaint()
; 0000 01CB {

	.CSEG
_StartPaint:
; 0000 01CC     //Чтоб первая точка легла
; 0000 01CD     Graph_X = -Graph_X_Step;
	LDI  R30,LOW(65528)
	LDI  R31,HIGH(65528)
	STS  _Graph_X,R30
	STS  _Graph_X+1,R31
; 0000 01CE }
	RET
;
;
;void Paint_3phase(char a, char b, char c)
; 0000 01D2 {
_Paint_3phase:
; 0000 01D3     signed int Value[3];
; 0000 01D4     unsigned int Color[] = {GREEN, YELLOW, RED};
; 0000 01D5     signed int Lenght = Graph_X + Graph_X_Step;
; 0000 01D6     signed int mid = Graph_Y_Mid;
; 0000 01D7     char i;
; 0000 01D8 
; 0000 01D9     if(Graph_X > Graph_X_Max) return; //Некуда дальше
	SBIW R28,12
	LDI  R30,LOW(7)
	ST   Y,R30
	LDI  R30,LOW(224)
	STD  Y+1,R30
	LDI  R30,LOW(7)
	STD  Y+2,R30
	LDI  R30,LOW(255)
	STD  Y+3,R30
	LDI  R30,LOW(0)
	STD  Y+4,R30
	LDI  R30,LOW(31)
	STD  Y+5,R30
	CALL __SAVELOCR6
;	a -> Y+20
;	b -> Y+19
;	c -> Y+18
;	Value -> Y+12
;	Color -> Y+6
;	Lenght -> R16,R17
;	mid -> R18,R19
;	i -> R21
	CALL SUBOPT_0x3F
	ADIW R30,8
	MOVW R16,R30
	__GETWRN 18,19,142
	LDS  R26,_Graph_X
	LDS  R27,_Graph_X+1
	CPI  R26,LOW(0x1E0)
	LDI  R30,HIGH(0x1E0)
	CPC  R27,R30
	BRLT _0x11B
	RJMP _0x2080002
; 0000 01DA     if(Lenght > Graph_X_Max) Lenght = Graph_X_Max;
_0x11B:
	__CPWRN 16,17,480
	BRLT _0x11C
	__GETWRN 16,17,479
; 0000 01DB     Value[0] = a;
_0x11C:
	LDD  R30,Y+20
	LDI  R31,0
	STD  Y+12,R30
	STD  Y+12+1,R31
; 0000 01DC     Value[1] = b;
	LDD  R30,Y+19
	LDI  R31,0
	STD  Y+14,R30
	STD  Y+14+1,R31
; 0000 01DD     Value[2] = c;
	LDD  R30,Y+18
	LDI  R31,0
	STD  Y+16,R30
	STD  Y+16+1,R31
; 0000 01DE 
; 0000 01DF     if(Graph_X >= Graph_X_Min)
	LDS  R26,_Graph_X+1
	TST  R26
	BRPL PC+3
	JMP _0x11D
; 0000 01E0     {
; 0000 01E1     // очищаем перед собой столбец пикселей
; 0000 01E2     SSD1963_DrawFillRect(Graph_X, Lenght+2, Graph_Y_Min, Graph_Y_Max+1, BLACK);
	CALL SUBOPT_0x3F
	ST   -Y,R31
	ST   -Y,R30
	MOVW R30,R16
	ADIW R30,2
	ST   -Y,R31
	ST   -Y,R30
	LDI  R30,LOW(52)
	LDI  R31,HIGH(52)
	ST   -Y,R31
	ST   -Y,R30
	LDI  R30,LOW(233)
	LDI  R31,HIGH(233)
	CALL SUBOPT_0xE
	RCALL _SSD1963_DrawFillRect
; 0000 01E3     //Линия нуля
; 0000 01E4     SSD1963_DrawFastLine(Graph_X, Lenght, mid, mid, DGRAY);
	CALL SUBOPT_0x40
	ST   -Y,R19
	ST   -Y,R18
	ST   -Y,R19
	ST   -Y,R18
	CALL SUBOPT_0x41
; 0000 01E5     SSD1963_DrawFastLine(Graph_X, Lenght, mid+45, mid+45, DGRAY);
	MOVW R30,R18
	ADIW R30,45
	ST   -Y,R31
	ST   -Y,R30
	MOVW R30,R18
	ADIW R30,45
	CALL SUBOPT_0x42
; 0000 01E6     SSD1963_DrawFastLine(Graph_X, Lenght, mid-45, mid-45, DGRAY);
	MOVW R30,R18
	SBIW R30,45
	ST   -Y,R31
	ST   -Y,R30
	MOVW R30,R18
	SBIW R30,45
	CALL SUBOPT_0x42
; 0000 01E7     SSD1963_DrawFastLine(Graph_X, Lenght, mid+90, mid+90, DGRAY);
	MOVW R30,R18
	SUBI R30,LOW(-90)
	SBCI R31,HIGH(-90)
	ST   -Y,R31
	ST   -Y,R30
	MOVW R30,R18
	SUBI R30,LOW(-90)
	SBCI R31,HIGH(-90)
	CALL SUBOPT_0x42
; 0000 01E8     SSD1963_DrawFastLine(Graph_X, Lenght, mid-90, mid-90, DGRAY);
	MOVW R30,R18
	SUBI R30,LOW(90)
	SBCI R31,HIGH(90)
	ST   -Y,R31
	ST   -Y,R30
	MOVW R30,R18
	SUBI R30,LOW(90)
	SBCI R31,HIGH(90)
	ST   -Y,R31
	ST   -Y,R30
	LDI  R30,LOW(8456)
	LDI  R31,HIGH(8456)
	ST   -Y,R31
	ST   -Y,R30
	CALL _SSD1963_DrawFastLine
; 0000 01E9     }
; 0000 01EA 
; 0000 01EB     for(i=0; i<3; i++)
_0x11D:
	LDI  R21,LOW(0)
_0x11F:
	CPI  R21,3
	BRLO PC+3
	JMP _0x120
; 0000 01EC     {
; 0000 01ED         Value[i] = 128 - Value[i];
	CALL SUBOPT_0x43
	ADD  R30,R26
	ADC  R31,R27
	MOVW R22,R30
	CALL SUBOPT_0x43
	CALL SUBOPT_0x44
	LDI  R26,LOW(128)
	LDI  R27,HIGH(128)
	CALL __SWAPW12
	SUB  R30,R26
	SBC  R31,R27
	MOVW R26,R22
	ST   X+,R30
	ST   X,R31
; 0000 01EE         Value[i] *= Amplitude[ParameterState];
	CALL SUBOPT_0x43
	ADD  R30,R26
	ADC  R31,R27
	MOVW R22,R30
	LD   R0,Z
	LDD  R1,Z+1
	CALL SUBOPT_0x45
	MOVW R26,R0
	CALL __MULW12
	MOVW R26,R22
	ST   X+,R30
	ST   X,R31
; 0000 01EF         Value[i] >>= 7;
	CALL SUBOPT_0x43
	CALL SUBOPT_0x46
	CALL __ASRW3
	CALL __ASRW4
	ST   -X,R31
	ST   -X,R30
; 0000 01F0         if(Value[i]&0x0100) Value[i] |= 0xFF00;
	CALL SUBOPT_0x43
	CALL SUBOPT_0x44
	ANDI R31,HIGH(0x100)
	BREQ _0x121
	CALL SUBOPT_0x43
	CALL SUBOPT_0x46
	ORI  R31,HIGH(0xFF00)
	ST   -X,R31
	ST   -X,R30
; 0000 01F1 
; 0000 01F2         Value[i] += mid;
_0x121:
	CALL SUBOPT_0x43
	CALL SUBOPT_0x46
	ADD  R30,R18
	ADC  R31,R19
	ST   -X,R31
	ST   -X,R30
; 0000 01F3         if(ParameterState==2)
	LDS  R26,_ParameterState
	CPI  R26,LOW(0x2)
	BRNE _0x122
; 0000 01F4         {
; 0000 01F5             Value[i] += (i==1)?(45):(-45);
	CALL SUBOPT_0x43
	ADD  R30,R26
	ADC  R31,R27
	MOVW R22,R30
	LD   R0,Z
	LDD  R1,Z+1
	MOV  R26,R21
	LDI  R27,0
	SBIW R26,1
	BRNE _0x123
	LDI  R30,LOW(45)
	LDI  R31,HIGH(45)
	RJMP _0x124
_0x123:
	LDI  R30,LOW(65491)
	LDI  R31,HIGH(65491)
_0x124:
	ADD  R30,R0
	ADC  R31,R1
	MOVW R26,R22
	ST   X+,R30
	ST   X,R31
; 0000 01F6         }
; 0000 01F7         if(Value[i] > Graph_Y_Max) Value[i] = Graph_Y_Max;
_0x122:
	CALL SUBOPT_0x43
	CALL SUBOPT_0x44
	CPI  R30,LOW(0xE9)
	LDI  R26,HIGH(0xE9)
	CPC  R31,R26
	BRLT _0x126
	CALL SUBOPT_0x43
	ADD  R26,R30
	ADC  R27,R31
	LDI  R30,LOW(232)
	LDI  R31,HIGH(232)
	ST   X+,R30
	ST   X,R31
; 0000 01F8         if(Value[i] < Graph_Y_Min) Value[i] = Graph_Y_Min;
_0x126:
	CALL SUBOPT_0x43
	CALL SUBOPT_0x44
	SBIW R30,52
	BRGE _0x127
	CALL SUBOPT_0x43
	ADD  R26,R30
	ADC  R27,R31
	LDI  R30,LOW(52)
	LDI  R31,HIGH(52)
	ST   X+,R30
	ST   X,R31
; 0000 01F9 
; 0000 01FA         if(Graph_X >= Graph_X_Min)
_0x127:
	LDS  R26,_Graph_X+1
	TST  R26
	BRMI _0x128
; 0000 01FB         {   // пишем точку в столбце
; 0000 01FC             SSD1963_DrawLine(Graph_X, Lenght, ValueLast[i], Value[i], Color[i], 2);
	CALL SUBOPT_0x40
	CALL SUBOPT_0x47
	CALL SUBOPT_0x44
	CALL SUBOPT_0x48
	MOVW R26,R28
	ADIW R26,18
	LSL  R30
	ROL  R31
	CALL SUBOPT_0x44
	CALL SUBOPT_0x48
	MOVW R26,R28
	ADIW R26,14
	LSL  R30
	ROL  R31
	CALL SUBOPT_0x44
	ST   -Y,R31
	ST   -Y,R30
	LDI  R30,LOW(2)
	ST   -Y,R30
	CALL _SSD1963_DrawLine
; 0000 01FD         }
; 0000 01FE         // определяем предыдущую точку диограммы
; 0000 01FF         ValueLast[i] = Value[i];
_0x128:
	CALL SUBOPT_0x47
	ADD  R30,R26
	ADC  R31,R27
	MOVW R0,R30
	CALL SUBOPT_0x43
	CALL SUBOPT_0x44
	MOVW R26,R0
	ST   X+,R30
	ST   X,R31
; 0000 0200 
; 0000 0201         if(ParameterState==2 && i==1) break;
	LDS  R26,_ParameterState
	CPI  R26,LOW(0x2)
	BRNE _0x12A
	CPI  R21,1
	BREQ _0x12B
_0x12A:
	RJMP _0x129
_0x12B:
	RJMP _0x120
; 0000 0202     }
_0x129:
	SUBI R21,-1
	RJMP _0x11F
_0x120:
; 0000 0203 
; 0000 0204     Graph_X += Graph_X_Step; // увеличеваем Х диограммы
	CALL SUBOPT_0x3F
	ADIW R30,8
	STS  _Graph_X,R30
	STS  _Graph_X+1,R31
; 0000 0205 }
_0x2080002:
	CALL __LOADLOCR6
	ADIW R28,21
	RET
;
;inline void main_loop()  // основной рабочий режим
; 0000 0208 {
_main_loop:
; 0000 0209     char fHz;
; 0000 020A 
; 0000 020B             if(ValueState == 0 && rx_counter0 > 8)
	ST   -Y,R17
;	fHz -> R17
	LDS  R26,_ValueState
	CPI  R26,LOW(0x0)
	BRNE _0x12D
	LDS  R26,_rx_counter0
	CPI  R26,LOW(0x9)
	BRSH _0x12E
_0x12D:
	RJMP _0x12C
_0x12E:
; 0000 020C             {
; 0000 020D                   ValueState = 1;
	LDI  R30,LOW(1)
	STS  _ValueState,R30
; 0000 020E 
; 0000 020F                   fHz = getchar0();
	RCALL _getchar0
	MOV  R17,R30
; 0000 0210                   switch(ParameterState)
	LDS  R30,_ParameterState
	LDI  R31,0
; 0000 0211                   {
; 0000 0212                               case 2:
	CPI  R30,LOW(0x2)
	LDI  R26,HIGH(0x2)
	CPC  R31,R26
	BRNE _0x132
; 0000 0213                               {
; 0000 0214                               getchar0();
	CALL SUBOPT_0x49
; 0000 0215                               getchar0();
; 0000 0216                               getchar0();
; 0000 0217                               getchar0();
	CALL SUBOPT_0x49
; 0000 0218                               getchar0();
; 0000 0219                               getchar0();
; 0000 021A                               }
; 0000 021B                               PutParameterValue(getchar0(), getchar0(), 0, fHz);
	CALL SUBOPT_0x4A
	LDI  R30,LOW(0)
	RJMP _0x171
; 0000 021C                               break;
; 0000 021D                               case 1:
_0x132:
	CPI  R30,LOW(0x1)
	LDI  R26,HIGH(0x1)
	CPC  R31,R26
	BRNE _0x133
; 0000 021E                               {
; 0000 021F                               getchar0();
	CALL SUBOPT_0x49
; 0000 0220                               getchar0();
; 0000 0221                               getchar0();
; 0000 0222                               }
; 0000 0223                               case 0:
	RJMP _0x134
_0x133:
	SBIW R30,0
	BRNE _0x131
_0x134:
; 0000 0224                               PutParameterValue(getchar0(), getchar0(), getchar0(), fHz);
	CALL SUBOPT_0x4A
	RCALL _getchar0
_0x171:
	ST   -Y,R30
	ST   -Y,R17
	RCALL _PutParameterValue
; 0000 0225                               break;
; 0000 0226                   }
_0x131:
; 0000 0227 
; 0000 0228                   StartPaint();
	RCALL _StartPaint
; 0000 0229                   while(rx_counter0) getchar0();
_0x136:
	LDS  R30,_rx_counter0
	CPI  R30,0
	BREQ _0x138
	RCALL _getchar0
	RJMP _0x136
_0x138:
; 0000 022A switch(ParameterState)
	LDS  R30,_ParameterState
	CALL SUBOPT_0x39
; 0000 022B                   {
; 0000 022C                       case 0: putchar0('U'); break;
	BRNE _0x13C
	LDI  R30,LOW(85)
	RJMP _0x172
; 0000 022D                       case 1: putchar0('I'); break;
_0x13C:
	CPI  R30,LOW(0x1)
	LDI  R26,HIGH(0x1)
	CPC  R31,R26
	BRNE _0x13D
	LDI  R30,LOW(73)
	RJMP _0x172
; 0000 022E                       case 2: putchar0('Z'); break;
_0x13D:
	CPI  R30,LOW(0x2)
	LDI  R26,HIGH(0x2)
	CPC  R31,R26
	BRNE _0x13B
	LDI  R30,LOW(90)
_0x172:
	ST   -Y,R30
	RCALL _putchar0
; 0000 022F                   }
_0x13B:
; 0000 0230             }
; 0000 0231 
; 0000 0232             if(ValueState == 1)
_0x12C:
	LDS  R26,_ValueState
	CPI  R26,LOW(0x1)
	BRNE _0x13F
; 0000 0233             {
; 0000 0234                 if(ParameterState<2 && rx_counter0>2)
	LDS  R26,_ParameterState
	CPI  R26,LOW(0x2)
	BRSH _0x141
	LDS  R26,_rx_counter0
	CPI  R26,LOW(0x3)
	BRSH _0x142
_0x141:
	RJMP _0x140
_0x142:
; 0000 0235                 {
; 0000 0236                     Paint_3phase(getchar0(),getchar0(),getchar0());
	CALL SUBOPT_0x4A
	RCALL _getchar0
	RJMP _0x173
; 0000 0237                 }
; 0000 0238                 else if(ParameterState==2 && rx_counter0>1)
_0x140:
	LDS  R26,_ParameterState
	CPI  R26,LOW(0x2)
	BRNE _0x145
	LDS  R26,_rx_counter0
	CPI  R26,LOW(0x2)
	BRSH _0x146
_0x145:
	RJMP _0x144
_0x146:
; 0000 0239                 {
; 0000 023A                     Paint_3phase(getchar0(),getchar0(),0);
	CALL SUBOPT_0x4A
	LDI  R30,LOW(0)
_0x173:
	ST   -Y,R30
	RCALL _Paint_3phase
; 0000 023B                 }
; 0000 023C             }
_0x144:
; 0000 023D 
; 0000 023E             if(WaitADC_mSec > 1500)
_0x13F:
	LDS  R26,_WaitADC_mSec
	LDS  R27,_WaitADC_mSec+1
	CPI  R26,LOW(0x5DD)
	LDI  R30,HIGH(0x5DD)
	CPC  R27,R30
	BRLO _0x147
; 0000 023F             {
; 0000 0240                 WaitADC_mSec = 0;
	LDI  R30,LOW(0)
	STS  _WaitADC_mSec,R30
	STS  _WaitADC_mSec+1,R30
; 0000 0241                 ValueState = 0;
	STS  _ValueState,R30
; 0000 0242                 while(rx_counter0) getchar0();
_0x148:
	LDS  R30,_rx_counter0
	CPI  R30,0
	BREQ _0x14A
	RCALL _getchar0
	RJMP _0x148
_0x14A:
; 0000 0243 putchar0('S');
	LDI  R30,LOW(83)
	ST   -Y,R30
	RCALL _putchar0
; 0000 0244             }
; 0000 0245 }
_0x147:
_0x2080001:
	LD   R17,Y+
	RET
;
;// Timer 0 overflow interrupt 1 ms
;interrupt [TIM0_OVF] void timer0_ovf_isr(void)
; 0000 0249 {
_timer0_ovf_isr:
	ST   -Y,R26
	ST   -Y,R27
	ST   -Y,R30
	ST   -Y,R31
	IN   R30,SREG
	ST   -Y,R30
; 0000 024A // Reinitialize Timer 0 value
; 0000 024B TCNT0=0x06;
	LDI  R30,LOW(6)
	OUT  0x32,R30
; 0000 024C // Place your code here
; 0000 024D WaitADC_mSec++;
	LDI  R26,LOW(_WaitADC_mSec)
	LDI  R27,HIGH(_WaitADC_mSec)
	LD   R30,X+
	LD   R31,X+
	ADIW R30,1
	ST   -X,R31
	ST   -X,R30
; 0000 024E }
	LD   R30,Y+
	OUT  SREG,R30
	LD   R31,Y+
	LD   R30,Y+
	LD   R27,Y+
	LD   R26,Y+
	RETI
;
;// Declare your global variables here
;
;void main(void)
; 0000 0253 {
_main:
; 0000 0254 // Declare your local variables here
; 0000 0255 {
; 0000 0256 // Input/Output Ports initialization
; 0000 0257 // Port A initialization
; 0000 0258 // Func7=In Func6=In Func5=In Func4=In Func3=In Func2=In Func1=In Func0=In
; 0000 0259 // State7=T State6=T State5=T State4=T State3=T State2=T State1=T State0=T
; 0000 025A PORTA=0x00;
	LDI  R30,LOW(0)
	OUT  0x1B,R30
; 0000 025B DDRA=0x00;
	OUT  0x1A,R30
; 0000 025C 
; 0000 025D // Port B initialization
; 0000 025E // Func7=Out Func6=In Func5=In Func4=In Func3=In Func2=Out Func1=Out Func0=Out
; 0000 025F // State7=1 State6=T State5=T State4=T State3=T State2=0 State1=0 State0=0
; 0000 0260 PORTB=0x80;
	LDI  R30,LOW(128)
	OUT  0x18,R30
; 0000 0261 DDRB=0x87;
	LDI  R30,LOW(135)
	OUT  0x17,R30
; 0000 0262 
; 0000 0263 // Port C initialization
; 0000 0264 // Func7=In Func6=In Func5=In Func4=In Func3=In Func2=In Func1=In Func0=In
; 0000 0265 // State7=T State6=T State5=T State4=T State3=T State2=T State1=T State0=T
; 0000 0266 PORTC=0x00;
	LDI  R30,LOW(0)
	OUT  0x15,R30
; 0000 0267 DDRC=0x00;
	OUT  0x14,R30
; 0000 0268 
; 0000 0269 // Port D initialization
; 0000 026A // Func7=In Func6=In Func5=In Func4=Out Func3=In Func2=In Func1=In Func0=In
; 0000 026B // State7=T State6=T State5=T State4=0 State3=T State2=T State1=T State0=T
; 0000 026C PORTD=0x00;
	OUT  0x12,R30
; 0000 026D DDRD=0x10;
	LDI  R30,LOW(16)
	OUT  0x11,R30
; 0000 026E 
; 0000 026F // Port E initialization
; 0000 0270 // Func7=In Func6=In Func5=In Func4=Out Func3=In Func2=In Func1=In Func0=In
; 0000 0271 // State7=T State6=T State5=T State4=1 State3=T State2=T State1=T State0=T
; 0000 0272 PORTE=0x10;
	OUT  0x3,R30
; 0000 0273 DDRE=0x10;  //PE4 - CD off
	OUT  0x2,R30
; 0000 0274 
; 0000 0275 // Port F initialization
; 0000 0276 // Func7=In Func6=In Func5=In Func4=In Func3=In Func2=In Func1=In Func0=In
; 0000 0277 // State7=T State6=T State5=T State4=T State3=T State2=T State1=T State0=T
; 0000 0278 PORTF=0x00;
	LDI  R30,LOW(0)
	STS  98,R30
; 0000 0279 DDRF=0x00;
	STS  97,R30
; 0000 027A 
; 0000 027B // Port G initialization
; 0000 027C // Func4=In Func3=In Func2=In Func1=In Func0=In
; 0000 027D // State4=T State3=T State2=T State1=T State0=T
; 0000 027E PORTG=0x00;
	STS  101,R30
; 0000 027F DDRG=0x00;
	STS  100,R30
; 0000 0280 
; 0000 0281 // Timer/Counter 0 initialization
; 0000 0282 // Clock source: System Clock
; 0000 0283 // Clock value: 250,000 kHz
; 0000 0284 // Mode: Normal top=0xFF
; 0000 0285 // OC0 output: Disconnected
; 0000 0286 ASSR=0x00;
	OUT  0x30,R30
; 0000 0287 TCCR0=0x04;
	LDI  R30,LOW(4)
	OUT  0x33,R30
; 0000 0288 TCNT0=0x06;
	LDI  R30,LOW(6)
	OUT  0x32,R30
; 0000 0289 OCR0=0x00;
	LDI  R30,LOW(0)
	OUT  0x31,R30
; 0000 028A 
; 0000 028B // Timer/Counter 1 initialization
; 0000 028C // Clock source: System Clock
; 0000 028D // Clock value: Timer1 Stopped
; 0000 028E // Mode: Normal top=0xFFFF
; 0000 028F // OC1A output: Discon.
; 0000 0290 // OC1B output: Discon.
; 0000 0291 // OC1C output: Discon.
; 0000 0292 // Noise Canceler: Off
; 0000 0293 // Input Capture on Falling Edge
; 0000 0294 // Timer1 Overflow Interrupt: Off
; 0000 0295 // Input Capture Interrupt: Off
; 0000 0296 // Compare A Match Interrupt: Off
; 0000 0297 // Compare B Match Interrupt: Off
; 0000 0298 // Compare C Match Interrupt: Off
; 0000 0299 TCCR1A=0x00;
	OUT  0x2F,R30
; 0000 029A TCCR1B=0x00;
	OUT  0x2E,R30
; 0000 029B TCNT1H=0x00;
	OUT  0x2D,R30
; 0000 029C TCNT1L=0x00;
	OUT  0x2C,R30
; 0000 029D ICR1H=0x00;
	OUT  0x27,R30
; 0000 029E ICR1L=0x00;
	OUT  0x26,R30
; 0000 029F OCR1AH=0x00;
	OUT  0x2B,R30
; 0000 02A0 OCR1AL=0x00;
	OUT  0x2A,R30
; 0000 02A1 OCR1BH=0x00;
	OUT  0x29,R30
; 0000 02A2 OCR1BL=0x00;
	OUT  0x28,R30
; 0000 02A3 OCR1CH=0x00;
	STS  121,R30
; 0000 02A4 OCR1CL=0x00;
	STS  120,R30
; 0000 02A5 
; 0000 02A6 // Timer/Counter 2 initialization
; 0000 02A7 // Clock source: System Clock
; 0000 02A8 // Clock value: Timer2 Stopped
; 0000 02A9 // Mode: Normal top=0xFF
; 0000 02AA // OC2 output: Disconnected
; 0000 02AB TCCR2=0x00;
	OUT  0x25,R30
; 0000 02AC TCNT2=0x00;
	OUT  0x24,R30
; 0000 02AD OCR2=0x00;
	OUT  0x23,R30
; 0000 02AE 
; 0000 02AF // Timer/Counter 3 initialization
; 0000 02B0 // Clock source: System Clock
; 0000 02B1 // Clock value: Timer3 Stopped
; 0000 02B2 // Mode: Normal top=0xFFFF
; 0000 02B3 // OC3A output: Discon.
; 0000 02B4 // OC3B output: Discon.
; 0000 02B5 // OC3C output: Discon.
; 0000 02B6 // Noise Canceler: Off
; 0000 02B7 // Input Capture on Falling Edge
; 0000 02B8 // Timer3 Overflow Interrupt: Off
; 0000 02B9 // Input Capture Interrupt: Off
; 0000 02BA // Compare A Match Interrupt: Off
; 0000 02BB // Compare B Match Interrupt: Off
; 0000 02BC // Compare C Match Interrupt: Off
; 0000 02BD TCCR3A=0x00;
	STS  139,R30
; 0000 02BE TCCR3B=0x00;
	STS  138,R30
; 0000 02BF TCNT3H=0x00;
	STS  137,R30
; 0000 02C0 TCNT3L=0x00;
	STS  136,R30
; 0000 02C1 ICR3H=0x00;
	STS  129,R30
; 0000 02C2 ICR3L=0x00;
	STS  128,R30
; 0000 02C3 OCR3AH=0x00;
	STS  135,R30
; 0000 02C4 OCR3AL=0x00;
	STS  134,R30
; 0000 02C5 OCR3BH=0x00;
	STS  133,R30
; 0000 02C6 OCR3BL=0x00;
	STS  132,R30
; 0000 02C7 OCR3CH=0x00;
	STS  131,R30
; 0000 02C8 OCR3CL=0x00;
	STS  130,R30
; 0000 02C9 
; 0000 02CA // External Interrupt(s) initialization
; 0000 02CB // INT0: Off
; 0000 02CC // INT1: Off
; 0000 02CD // INT2: Off
; 0000 02CE // INT3: Off
; 0000 02CF // INT4: Off
; 0000 02D0 // INT5: Off
; 0000 02D1 // INT6: Off
; 0000 02D2 // INT7: Off
; 0000 02D3 EICRA=0x00;
	STS  106,R30
; 0000 02D4 EICRB=0x00;
	OUT  0x3A,R30
; 0000 02D5 EIMSK=0x00;
	OUT  0x39,R30
; 0000 02D6 
; 0000 02D7 // Timer(s)/Counter(s) Interrupt(s) initialization
; 0000 02D8 TIMSK=0x01;
	LDI  R30,LOW(1)
	OUT  0x37,R30
; 0000 02D9 
; 0000 02DA ETIMSK=0x00;
	LDI  R30,LOW(0)
	STS  125,R30
; 0000 02DB 
; 0000 02DC // USART0 initialization
; 0000 02DD // Communication Parameters: 8 Data, 1 Stop, No Parity
; 0000 02DE // USART0 Receiver: On
; 0000 02DF // USART0 Transmitter: On
; 0000 02E0 // USART0 Mode: Asynchronous
; 0000 02E1 // USART0 Baud Rate: 115200
; 0000 02E2 UCSR0A=0x00;
	OUT  0xB,R30
; 0000 02E3 UCSR0B=0xD8;
	LDI  R30,LOW(216)
	OUT  0xA,R30
; 0000 02E4 UCSR0C=0x06;
	LDI  R30,LOW(6)
	STS  149,R30
; 0000 02E5 UBRR0H=0x00;
	LDI  R30,LOW(0)
	STS  144,R30
; 0000 02E6 UBRR0L=0x08;
	LDI  R30,LOW(8)
	OUT  0x9,R30
; 0000 02E7 
; 0000 02E8 // USART1 initialization
; 0000 02E9 // Communication Parameters: 8 Data, 1 Stop, No Parity
; 0000 02EA // USART1 Receiver: On
; 0000 02EB // USART1 Transmitter: On
; 0000 02EC // USART1 Mode: Asynchronous
; 0000 02ED // USART1 Baud Rate: 9600
; 0000 02EE UCSR1A=0x00;
	LDI  R30,LOW(0)
	STS  155,R30
; 0000 02EF UCSR1B=0xD8;
	LDI  R30,LOW(216)
	STS  154,R30
; 0000 02F0 UCSR1C=0x06;
	LDI  R30,LOW(6)
	STS  157,R30
; 0000 02F1 UBRR1H=0x00;
	LDI  R30,LOW(0)
	STS  152,R30
; 0000 02F2 UBRR1L=0x67;
	LDI  R30,LOW(103)
	STS  153,R30
; 0000 02F3 
; 0000 02F4 // Analog Comparator initialization
; 0000 02F5 // Analog Comparator: Off
; 0000 02F6 // Analog Comparator Input Capture by Timer/Counter 1: Off
; 0000 02F7 ACSR=0x80;
	LDI  R30,LOW(128)
	OUT  0x8,R30
; 0000 02F8 SFIOR=0x00;
	LDI  R30,LOW(0)
	OUT  0x20,R30
; 0000 02F9 
; 0000 02FA // ADC initialization
; 0000 02FB // ADC disabled
; 0000 02FC ADCSRA=0x00;
	OUT  0x6,R30
; 0000 02FD 
; 0000 02FE // SPI initialization
; 0000 02FF // SPI Type: Master
; 0000 0300 // SPI Clock Rate: 2*250,000 kHz
; 0000 0301 // SPI Clock Phase: Cycle Start
; 0000 0302 // SPI Clock Polarity: Low
; 0000 0303 // SPI Data Order: MSB First
; 0000 0304 SPCR=0x52;
	LDI  R30,LOW(82)
	OUT  0xD,R30
; 0000 0305 SPSR=0x00;
	LDI  R30,LOW(0)
	OUT  0xE,R30
; 0000 0306 
; 0000 0307 // TWI initialization
; 0000 0308 // TWI disabled
; 0000 0309 TWCR=0x00;
	STS  116,R30
; 0000 030A }
; 0000 030B {
; 0000 030C // Global enable interrupts
; 0000 030D #asm("sei")
	sei
; 0000 030E 
; 0000 030F SSD1963_Init();
	CALL _SSD1963_Init
; 0000 0310 TSC2046_Init();
	CALL _TSC2046_Init
; 0000 0311 SSD1963_ClearScreen(BLACK);
	CALL SUBOPT_0xD
	CALL _SSD1963_ClearScreen
; 0000 0312 
; 0000 0313   SSD1963_PutString16("ДЕСКОМ", 240 - 3 * FONT_WIDTH, (272 / 2) - (FONT_HEIGHT / 2) - FONT_HEIGHT, BLUE, BLACK);
	__POINTW1MN _0x14B,0
	CALL SUBOPT_0x4B
	LDI  R30,LOW(112)
	LDI  R31,HIGH(112)
	ST   -Y,R31
	ST   -Y,R30
	LDI  R30,LOW(248)
	LDI  R31,HIGH(248)
	CALL SUBOPT_0xE
	CALL _SSD1963_PutString16
; 0000 0314   BACKLIGHT = 0; //On
	CBI  0x18,7
; 0000 0315   delay_ms(200);
	CALL SUBOPT_0x4
; 0000 0316   SSD1963_PutString16("ДЕСКОМ", 240 - 3 * FONT_WIDTH, (272 / 2) - (FONT_HEIGHT / 2), RED, BLACK);
	__POINTW1MN _0x14B,7
	CALL SUBOPT_0x4B
	LDI  R30,LOW(128)
	LDI  R31,HIGH(128)
	ST   -Y,R31
	ST   -Y,R30
	LDI  R30,LOW(7936)
	LDI  R31,HIGH(7936)
	CALL SUBOPT_0xE
	CALL SUBOPT_0x4C
; 0000 0317   delay_ms(200);
; 0000 0318   SSD1963_PutString16("ДЕСКОМ", 240 - 3 * FONT_WIDTH, (272 / 2) - (FONT_HEIGHT / 2) + FONT_HEIGHT, GREEN, BLACK);
	__POINTW1MN _0x14B,14
	CALL SUBOPT_0x4B
	LDI  R30,LOW(144)
	LDI  R31,HIGH(144)
	ST   -Y,R31
	ST   -Y,R30
	LDI  R30,LOW(57351)
	LDI  R31,HIGH(57351)
	CALL SUBOPT_0xE
	CALL SUBOPT_0x4C
; 0000 0319   delay_ms(200);
; 0000 031A   SSD1963_PutString16("      ", 240 - 3 * FONT_WIDTH, (272 / 2) - (FONT_HEIGHT / 2) - FONT_HEIGHT, BLACK, BLACK);
	__POINTW1MN _0x14B,21
	CALL SUBOPT_0x4B
	LDI  R30,LOW(112)
	LDI  R31,HIGH(112)
	CALL SUBOPT_0xE
	CALL SUBOPT_0xD
	CALL SUBOPT_0x4C
; 0000 031B   delay_ms(200);
; 0000 031C   SSD1963_PutString16("      ", 240 - 3 * FONT_WIDTH, (272 / 2) - (FONT_HEIGHT / 2), BLACK, BLACK);
	__POINTW1MN _0x14B,28
	CALL SUBOPT_0x4B
	LDI  R30,LOW(128)
	LDI  R31,HIGH(128)
	CALL SUBOPT_0xE
	CALL SUBOPT_0xD
	CALL SUBOPT_0x4C
; 0000 031D   delay_ms(200);
; 0000 031E   SSD1963_PutString16("      ", 240 - 3 * FONT_WIDTH, (272 / 2) - (FONT_HEIGHT / 2) + FONT_HEIGHT, BLACK, BLACK);
	__POINTW1MN _0x14B,35
	CALL SUBOPT_0x4B
	LDI  R30,LOW(144)
	LDI  R31,HIGH(144)
	CALL SUBOPT_0xE
	CALL SUBOPT_0xD
	CALL _SSD1963_PutString16
; 0000 031F 
; 0000 0320 Prepare_Screen();
	RCALL _Prepare_Screen
; 0000 0321 
; 0000 0322 // Watchdog Timer initialization
; 0000 0323 // Watchdog Timer Prescaler: OSC/2048k
; 0000 0324 #pragma optsize-
; 0000 0325 #asm("wdr")
	wdr
; 0000 0326 //WDTCR=0x1F;
; 0000 0327 //WDTCR=0x0F;
; 0000 0328 #ifdef _OPTIMIZE_SIZE_
; 0000 0329 #pragma optsize+
; 0000 032A #endif
; 0000 032B }
; 0000 032C 
; 0000 032D PutParameterText(ParameterState, BLUE);
	CALL SUBOPT_0x4D
; 0000 032E while (1)
_0x14E:
; 0000 032F       {
; 0000 0330       #asm("wdr")
	wdr
; 0000 0331       switch(State)
	LDS  R30,_State
	CALL SUBOPT_0x39
; 0000 0332         {
; 0000 0333           case 0: // основной рабочий режим
	BREQ PC+3
	JMP _0x154
; 0000 0334           {
; 0000 0335               main_loop();
	RCALL _main_loop
; 0000 0336 
; 0000 0337               switch (GetButton())
	RCALL _GetButton
; 0000 0338               {
; 0000 0339               case 1 :
	CPI  R30,LOW(0x1)
	BRNE _0x158
; 0000 033A                   if(++ParameterState > 2) ParameterState = 0;
	LDS  R26,_ParameterState
	SUBI R26,-LOW(1)
	STS  _ParameterState,R26
	CPI  R26,LOW(0x3)
	BRLO _0x159
	LDI  R30,LOW(0)
	STS  _ParameterState,R30
; 0000 033B                   PutParameterText(ParameterState, BLUE);
_0x159:
	CALL SUBOPT_0x4D
; 0000 033C                   delay_ms(250);
	RJMP _0x174
; 0000 033D               break;
; 0000 033E               case 2 :
_0x158:
	CPI  R30,LOW(0x2)
	BRNE _0x15A
; 0000 033F                   if(Amplitude[ParameterState] < 200)
	CALL SUBOPT_0x45
	CPI  R30,LOW(0xC8)
	LDI  R26,HIGH(0xC8)
	CPC  R31,R26
	BRGE _0x15B
; 0000 0340                   {
; 0000 0341                       Amplitude[ParameterState] += 10;
	CALL SUBOPT_0x4E
	ADIW R30,10
	ST   -X,R31
	ST   -X,R30
; 0000 0342                       delay_ms(100);
	CALL SUBOPT_0x1
; 0000 0343                   }
; 0000 0344               break;
_0x15B:
	RJMP _0x157
; 0000 0345               case 3 :
_0x15A:
	CPI  R30,LOW(0x3)
	BRNE _0x15C
; 0000 0346                   if(Amplitude[ParameterState] > 20)
	CALL SUBOPT_0x45
	SBIW R30,21
	BRLT _0x15D
; 0000 0347                   {
; 0000 0348                       Amplitude[ParameterState] -= 10;
	CALL SUBOPT_0x4E
	SBIW R30,10
	ST   -X,R31
	ST   -X,R30
; 0000 0349                       delay_ms(100);
	CALL SUBOPT_0x1
; 0000 034A                   }
; 0000 034B               break;
_0x15D:
	RJMP _0x157
; 0000 034C               case 4 :
_0x15C:
	CPI  R30,LOW(0x4)
	BRNE _0x157
; 0000 034D                 State = 200;
	LDI  R30,LOW(200)
	STS  _State,R30
; 0000 034E                 Repaint_Button("СТАРТ", 4, BLACK, WHITE);
	__POINTW1MN _0x14B,42
	CALL SUBOPT_0x33
	CALL SUBOPT_0x32
; 0000 034F                 delay_ms(250);
_0x174:
	LDI  R30,LOW(250)
	LDI  R31,HIGH(250)
	CALL SUBOPT_0x9
; 0000 0350               break;
; 0000 0351               }
_0x157:
; 0000 0352           }
; 0000 0353           break;
	RJMP _0x153
; 0000 0354           case 3: // настройки
_0x154:
	CPI  R30,LOW(0x3)
	LDI  R26,HIGH(0x3)
	CPC  R31,R26
	BREQ _0x153
; 0000 0355           {
; 0000 0356           }
; 0000 0357           break;
; 0000 0358           case 200 : // пауза
	CPI  R30,LOW(0xC8)
	LDI  R26,HIGH(0xC8)
	CPC  R31,R26
	BRNE _0x160
; 0000 0359             //Sleep_mSec = 0;
; 0000 035A             switch (GetButton())
	RCALL _GetButton
; 0000 035B             {
; 0000 035C               case 1 :
	CPI  R30,LOW(0x1)
	BREQ _0x163
; 0000 035D               break;
; 0000 035E               case 2 :
	CPI  R30,LOW(0x2)
	BREQ _0x163
; 0000 035F               break;
; 0000 0360               case 3 :
	CPI  R30,LOW(0x3)
	BREQ _0x163
; 0000 0361               break;
; 0000 0362               case 4 :
	CPI  R30,LOW(0x4)
	BRNE _0x163
; 0000 0363                 State = 0;
	LDI  R30,LOW(0)
	STS  _State,R30
; 0000 0364                 Repaint_Button("ПАУЗА", 4, BLACK, WHITE);
	__POINTW1MN _0x14B,48
	CALL SUBOPT_0x33
	CALL SUBOPT_0x32
; 0000 0365                 delay_ms(250);
	LDI  R30,LOW(250)
	LDI  R31,HIGH(250)
	CALL SUBOPT_0x9
; 0000 0366               break;
; 0000 0367             }
_0x163:
; 0000 0368 
; 0000 0369           break;
	RJMP _0x153
; 0000 036A           case 250 : // сп¤щий режим
_0x160:
	CPI  R30,LOW(0xFA)
	LDI  R26,HIGH(0xFA)
	CPC  R31,R26
	BRNE _0x153
; 0000 036B           {
; 0000 036C             if (TSC2046_GetCoordinates() > 0)
	CALL _TSC2046_GetCoordinates
	CPI  R30,LOW(0x1)
	BRLO _0x169
; 0000 036D             {
; 0000 036E               State = 0;
	LDI  R30,LOW(0)
	STS  _State,R30
; 0000 036F               BACKLIGHT = 0; //On
	CBI  0x18,7
; 0000 0370             }
; 0000 0371           }
_0x169:
; 0000 0372           break;
; 0000 0373         }
_0x153:
; 0000 0374 
; 0000 0375       }
	RJMP _0x14E
; 0000 0376 }
_0x16C:
	RJMP _0x16C

	.DSEG
_0x14B:
	.BYTE 0x36
	#ifndef __SLEEP_DEFINED__
	#define __SLEEP_DEFINED__
	.EQU __se_bit=0x20
	.EQU __sm_mask=0x1C
	.EQU __sm_powerdown=0x10
	.EQU __sm_powersave=0x18
	.EQU __sm_standby=0x14
	.EQU __sm_ext_standby=0x1C
	.EQU __sm_adc_noise_red=0x08
	.SET power_ctrl_reg=mcucr
	#endif

	.CSEG
_spi:
	LD   R30,Y
	OUT  0xF,R30
_0x2000003:
	SBIS 0xE,7
	RJMP _0x2000003
	IN   R30,0xF
	ADIW R28,1
	RET
	#ifndef __SLEEP_DEFINED__
	#define __SLEEP_DEFINED__
	.EQU __se_bit=0x20
	.EQU __sm_mask=0x1C
	.EQU __sm_powerdown=0x10
	.EQU __sm_powersave=0x18
	.EQU __sm_standby=0x14
	.EQU __sm_ext_standby=0x1C
	.EQU __sm_adc_noise_red=0x08
	.SET power_ctrl_reg=mcucr
	#endif

	.CSEG

	.CSEG

	.CSEG

	.DSEG
_tempX:
	.BYTE 0x4
_tempY:
	.BYTE 0x4
_rx_buffer0:
	.BYTE 0xFA
_rx_counter0:
	.BYTE 0x1
_tx_buffer0:
	.BYTE 0x8
_tx_wr_index0:
	.BYTE 0x1
_tx_rd_index0:
	.BYTE 0x1
_tx_counter0:
	.BYTE 0x1
_rx_buffer1:
	.BYTE 0x20
_rx_wr_index1:
	.BYTE 0x1
_rx_rd_index1:
	.BYTE 0x1
_rx_counter1:
	.BYTE 0x1
_tx_buffer1:
	.BYTE 0x20
_tx_wr_index1:
	.BYTE 0x1
_tx_rd_index1:
	.BYTE 0x1
_tx_counter1:
	.BYTE 0x1
_State:
	.BYTE 0x1
_ParameterState:
	.BYTE 0x1
_ValueState:
	.BYTE 0x1
_Graph_X:
	.BYTE 0x2
_Amplitude:
	.BYTE 0x6
_ValueLast:
	.BYTE 0x6
_WaitADC_mSec:
	.BYTE 0x2

	.CSEG
;OPTIMIZER ADDED SUBROUTINE, CALLED 3 TIMES, CODE SIZE REDUCTION:1 WORDS
SUBOPT_0x0:
	LD   R30,Y
	LDI  R31,0
	RET

;OPTIMIZER ADDED SUBROUTINE, CALLED 5 TIMES, CODE SIZE REDUCTION:13 WORDS
SUBOPT_0x1:
	LDI  R30,LOW(100)
	LDI  R31,HIGH(100)
	ST   -Y,R31
	ST   -Y,R30
	JMP  _delay_ms

;OPTIMIZER ADDED SUBROUTINE, CALLED 2 TIMES, CODE SIZE REDUCTION:2 WORDS
SUBOPT_0x2:
	LD   R30,Y
	ST   -Y,R30
	CALL _RotateByte
	OUT  0x1B,R30
	LDI  R30,LOW(0)
	OUT  0x15,R30
	RET

;OPTIMIZER ADDED SUBROUTINE, CALLED 4 TIMES, CODE SIZE REDUCTION:3 WORDS
SUBOPT_0x3:
	LDI  R30,LOW(1)
	ST   -Y,R30
	JMP  _SSD1963_WriteCmd

;OPTIMIZER ADDED SUBROUTINE, CALLED 6 TIMES, CODE SIZE REDUCTION:17 WORDS
SUBOPT_0x4:
	LDI  R30,LOW(200)
	LDI  R31,HIGH(200)
	ST   -Y,R31
	ST   -Y,R30
	JMP  _delay_ms

;OPTIMIZER ADDED SUBROUTINE, CALLED 2 TIMES, CODE SIZE REDUCTION:2 WORDS
SUBOPT_0x5:
	ST   -Y,R30
	CALL _SSD1963_WriteData_b8
	LDI  R30,LOW(4)
	ST   -Y,R30
	JMP  _SSD1963_WriteData_b8

;OPTIMIZER ADDED SUBROUTINE, CALLED 3 TIMES, CODE SIZE REDUCTION:7 WORDS
SUBOPT_0x6:
	ST   -Y,R30
	CALL _SSD1963_WriteCmd
	LDI  R30,LOW(1)
	ST   -Y,R30
	JMP  _SSD1963_WriteData_b8

;OPTIMIZER ADDED SUBROUTINE, CALLED 3 TIMES, CODE SIZE REDUCTION:5 WORDS
SUBOPT_0x7:
	LDI  R30,LOW(1)
	LDI  R31,HIGH(1)
	ST   -Y,R31
	ST   -Y,R30
	JMP  _delay_ms

;OPTIMIZER ADDED SUBROUTINE, CALLED 4 TIMES, CODE SIZE REDUCTION:12 WORDS
SUBOPT_0x8:
	ST   -Y,R30
	CALL _SSD1963_WriteCmd
	LDI  R30,LOW(3)
	ST   -Y,R30
	JMP  _SSD1963_WriteData_b8

;OPTIMIZER ADDED SUBROUTINE, CALLED 5 TIMES, CODE SIZE REDUCTION:5 WORDS
SUBOPT_0x9:
	ST   -Y,R31
	ST   -Y,R30
	JMP  _delay_ms

;OPTIMIZER ADDED SUBROUTINE, CALLED 6 TIMES, CODE SIZE REDUCTION:22 WORDS
SUBOPT_0xA:
	ST   -Y,R30
	CALL _SSD1963_WriteData_b8
	LDI  R30,LOW(0)
	ST   -Y,R30
	JMP  _SSD1963_WriteData_b8

;OPTIMIZER ADDED SUBROUTINE, CALLED 4 TIMES, CODE SIZE REDUCTION:3 WORDS
SUBOPT_0xB:
	LDI  R30,LOW(1)
	ST   -Y,R30
	JMP  _SSD1963_WriteData_b8

;OPTIMIZER ADDED SUBROUTINE, CALLED 3 TIMES, CODE SIZE REDUCTION:3 WORDS
SUBOPT_0xC:
	ST   -Y,R30
	CALL _SSD1963_WriteData_b8
	RJMP SUBOPT_0xB

;OPTIMIZER ADDED SUBROUTINE, CALLED 38 TIMES, CODE SIZE REDUCTION:71 WORDS
SUBOPT_0xD:
	LDI  R30,LOW(0)
	LDI  R31,HIGH(0)
	ST   -Y,R31
	ST   -Y,R30
	RET

;OPTIMIZER ADDED SUBROUTINE, CALLED 18 TIMES, CODE SIZE REDUCTION:31 WORDS
SUBOPT_0xE:
	ST   -Y,R31
	ST   -Y,R30
	RJMP SUBOPT_0xD

;OPTIMIZER ADDED SUBROUTINE, CALLED 4 TIMES, CODE SIZE REDUCTION:15 WORDS
SUBOPT_0xF:
	ST   -Y,R31
	ST   -Y,R30
	CALL _SSD1963_SetArea
	LDI  R30,LOW(44)
	ST   -Y,R30
	JMP  _SSD1963_WriteCmd

;OPTIMIZER ADDED SUBROUTINE, CALLED 4 TIMES, CODE SIZE REDUCTION:3 WORDS
SUBOPT_0x10:
	ST   -Y,R31
	ST   -Y,R30
	JMP  _SSD1963_WriteData_b16

;OPTIMIZER ADDED SUBROUTINE, CALLED 29 TIMES, CODE SIZE REDUCTION:53 WORDS
SUBOPT_0x11:
	LDD  R30,Y+8
	LDD  R31,Y+8+1
	ST   -Y,R31
	ST   -Y,R30
	RET

;OPTIMIZER ADDED SUBROUTINE, CALLED 13 TIMES, CODE SIZE REDUCTION:21 WORDS
SUBOPT_0x12:
	LDD  R30,Y+10
	LDD  R31,Y+10+1
	ST   -Y,R31
	ST   -Y,R30
	RET

;OPTIMIZER ADDED SUBROUTINE, CALLED 3 TIMES, CODE SIZE REDUCTION:1 WORDS
SUBOPT_0x13:
	LDD  R30,Y+8
	LDI  R31,0
	RET

;OPTIMIZER ADDED SUBROUTINE, CALLED 14 TIMES, CODE SIZE REDUCTION:23 WORDS
SUBOPT_0x14:
	LDD  R30,Y+7
	LDD  R31,Y+7+1
	ST   -Y,R31
	ST   -Y,R30
	RET

;OPTIMIZER ADDED SUBROUTINE, CALLED 4 TIMES, CODE SIZE REDUCTION:9 WORDS
SUBOPT_0x15:
	CALL __DIVW21U
	SUBI R30,-LOW(48)
	ST   -Y,R30
	RJMP SUBOPT_0x11

;OPTIMIZER ADDED SUBROUTINE, CALLED 4 TIMES, CODE SIZE REDUCTION:3 WORDS
SUBOPT_0x16:
	CALL _SSD1963_PutChar16
	LDD  R26,Y+9
	LDD  R27,Y+9+1
	RET

;OPTIMIZER ADDED SUBROUTINE, CALLED 4 TIMES, CODE SIZE REDUCTION:18 WORDS
SUBOPT_0x17:
	CALL __MODW21U
	STD  Y+9,R30
	STD  Y+9+1,R31
	LDD  R30,Y+7
	LDD  R31,Y+7+1
	ADIW R30,16
	STD  Y+7,R30
	STD  Y+7+1,R31
	RET

;OPTIMIZER ADDED SUBROUTINE, CALLED 2 TIMES, CODE SIZE REDUCTION:14 WORDS
SUBOPT_0x18:
	SBIW R28,8
	ST   -Y,R17
	ST   -Y,R16
	LDD  R30,Y+18
	LDD  R31,Y+18+1
	ST   -Y,R31
	ST   -Y,R30
	LDD  R30,Y+18
	LDD  R31,Y+18+1
	ST   -Y,R31
	ST   -Y,R30
	LDD  R30,Y+18
	LDD  R31,Y+18+1
	ST   -Y,R31
	ST   -Y,R30
	LDD  R30,Y+18
	LDD  R31,Y+18+1
	RJMP SUBOPT_0xF

;OPTIMIZER ADDED SUBROUTINE, CALLED 2 TIMES, CODE SIZE REDUCTION:4 WORDS
SUBOPT_0x19:
	LDD  R26,Y+18
	LDD  R27,Y+18+1
	LDD  R30,Y+16
	LDD  R31,Y+16+1
	SUB  R30,R26
	SBC  R31,R27
	ADIW R30,1
	MOVW R16,R30
	TST  R17
	RET

;OPTIMIZER ADDED SUBROUTINE, CALLED 2 TIMES, CODE SIZE REDUCTION:1 WORDS
SUBOPT_0x1A:
	MOVW R30,R16
	LDI  R26,LOW(65535)
	LDI  R27,HIGH(65535)
	CALL __MULW12
	MOVW R16,R30
	RET

;OPTIMIZER ADDED SUBROUTINE, CALLED 2 TIMES, CODE SIZE REDUCTION:10 WORDS
SUBOPT_0x1B:
	LDD  R26,Y+14
	LDD  R27,Y+14+1
	LDD  R30,Y+12
	LDD  R31,Y+12+1
	SUB  R30,R26
	SBC  R31,R27
	ADIW R30,1
	CLR  R22
	CLR  R23
	__PUTD1S 2
	LDD  R26,Y+5
	TST  R26
	RET

;OPTIMIZER ADDED SUBROUTINE, CALLED 4 TIMES, CODE SIZE REDUCTION:3 WORDS
SUBOPT_0x1C:
	__GETD1S 2
	RET

;OPTIMIZER ADDED SUBROUTINE, CALLED 2 TIMES, CODE SIZE REDUCTION:5 WORDS
SUBOPT_0x1D:
	__GETD2N 0xFFFFFFFF
	CALL __MULD12
	__PUTD1S 2
	RET

;OPTIMIZER ADDED SUBROUTINE, CALLED 2 TIMES, CODE SIZE REDUCTION:13 WORDS
SUBOPT_0x1E:
	MOVW R30,R16
	__GETD2S 2
	CALL __CWD1
	CALL __MULD12
	__PUTD1S 2
	LDI  R30,LOW(0)
	__CLRD1S 6
	RET

;OPTIMIZER ADDED SUBROUTINE, CALLED 2 TIMES, CODE SIZE REDUCTION:3 WORDS
SUBOPT_0x1F:
	RCALL SUBOPT_0x1C
	__GETD2S 6
	CALL __CPD21
	RET

;OPTIMIZER ADDED SUBROUTINE, CALLED 2 TIMES, CODE SIZE REDUCTION:7 WORDS
SUBOPT_0x20:
	__GETD1S 6
	__SUBD1N -1
	__PUTD1S 6
	RET

;OPTIMIZER ADDED SUBROUTINE, CALLED 2 TIMES, CODE SIZE REDUCTION:2 WORDS
SUBOPT_0x21:
	LDI  R31,0
	LDD  R26,Y+27
	LDD  R27,Y+27+1
	ADD  R30,R26
	ADC  R31,R27
	RET

;OPTIMIZER ADDED SUBROUTINE, CALLED 3 TIMES, CODE SIZE REDUCTION:1 WORDS
SUBOPT_0x22:
	LDD  R30,Y+8
	LDD  R31,Y+8+1
	SUB  R30,R26
	SBC  R31,R27
	RET

;OPTIMIZER ADDED SUBROUTINE, CALLED 2 TIMES, CODE SIZE REDUCTION:1 WORDS
SUBOPT_0x23:
	LDD  R26,Y+12
	LDD  R27,Y+12+1
	ADD  R30,R26
	ADC  R31,R27
	ST   -Y,R31
	ST   -Y,R30
	RET

;OPTIMIZER ADDED SUBROUTINE, CALLED 2 TIMES, CODE SIZE REDUCTION:21 WORDS
SUBOPT_0x24:
	ST   -Y,R30
	CALL _spi
	__DELAY_USW 400
	LDI  R30,LOW(0)
	ST   -Y,R30
	CALL _spi
	MOV  R16,R30
	CLR  R17
	MOV  R17,R16
	CLR  R16
	LDI  R30,LOW(0)
	ST   -Y,R30
	CALL _spi
	LDI  R31,0
	__ADDWRR 16,17,30,31
	SBI  0x3,2
	MOVW R30,R16
	RET

;OPTIMIZER ADDED SUBROUTINE, CALLED 2 TIMES, CODE SIZE REDUCTION:2 WORDS
SUBOPT_0x25:
	MOVW R30,R16
	CALL __CWD1
	CALL __CDF1
	MOVW R26,R30
	MOVW R24,R22
	RET

;OPTIMIZER ADDED SUBROUTINE, CALLED 2 TIMES, CODE SIZE REDUCTION:1 WORDS
SUBOPT_0x26:
	CALL __DIVF21
	CALL __CFD1
	MOVW R16,R30
	MOVW R30,R16
	RET

;OPTIMIZER ADDED SUBROUTINE, CALLED 3 TIMES, CODE SIZE REDUCTION:11 WORDS
SUBOPT_0x27:
	LDI  R30,LOW(0)
	STS  _tempX,R30
	STS  _tempX+1,R30
	STS  _tempX+2,R30
	STS  _tempX+3,R30
	RET

;OPTIMIZER ADDED SUBROUTINE, CALLED 3 TIMES, CODE SIZE REDUCTION:11 WORDS
SUBOPT_0x28:
	LDI  R30,LOW(0)
	STS  _tempY,R30
	STS  _tempY+1,R30
	STS  _tempY+2,R30
	STS  _tempY+3,R30
	RET

;OPTIMIZER ADDED SUBROUTINE, CALLED 2 TIMES, CODE SIZE REDUCTION:15 WORDS
SUBOPT_0x29:
	LDS  R26,_tempX
	LDS  R27,_tempX+1
	LDS  R24,_tempX+2
	LDS  R25,_tempX+3
	CLR  R22
	CLR  R23
	CALL __ADDD12
	STS  _tempX,R30
	STS  _tempX+1,R31
	STS  _tempX+2,R22
	STS  _tempX+3,R23
	RET

;OPTIMIZER ADDED SUBROUTINE, CALLED 2 TIMES, CODE SIZE REDUCTION:15 WORDS
SUBOPT_0x2A:
	LDS  R26,_tempY
	LDS  R27,_tempY+1
	LDS  R24,_tempY+2
	LDS  R25,_tempY+3
	CLR  R22
	CLR  R23
	CALL __ADDD12
	STS  _tempY,R30
	STS  _tempY+1,R31
	STS  _tempY+2,R22
	STS  _tempY+3,R23
	RET

;OPTIMIZER ADDED SUBROUTINE, CALLED 2 TIMES, CODE SIZE REDUCTION:1 WORDS
SUBOPT_0x2B:
	__GETD1N 0x10
	CALL __DIVD21
	RET

;OPTIMIZER ADDED SUBROUTINE, CALLED 4 TIMES, CODE SIZE REDUCTION:6 WORDS
SUBOPT_0x2C:
	ST   -Y,R26
	ST   -Y,R30
	ST   -Y,R31
	IN   R30,SREG
	ST   -Y,R30
	RET

;OPTIMIZER ADDED SUBROUTINE, CALLED 2 TIMES, CODE SIZE REDUCTION:1 WORDS
SUBOPT_0x2D:
	SUBI R30,LOW(1)
	LDI  R31,0
	SUBI R30,LOW(-_tx_buffer0)
	SBCI R31,HIGH(-_tx_buffer0)
	RET

;OPTIMIZER ADDED SUBROUTINE, CALLED 4 TIMES, CODE SIZE REDUCTION:15 WORDS
SUBOPT_0x2E:
	ST   -Y,R31
	ST   -Y,R30
	LDI  R30,LOW(247)
	LDI  R31,HIGH(247)
	ST   -Y,R31
	ST   -Y,R30
	RJMP SUBOPT_0x11

;OPTIMIZER ADDED SUBROUTINE, CALLED 4 TIMES, CODE SIZE REDUCTION:9 WORDS
SUBOPT_0x2F:
	CALL _SSD1963_PutString16
	LDD  R30,Y+5
	LDD  R31,Y+5+1
	ST   -Y,R31
	ST   -Y,R30
	RET

;OPTIMIZER ADDED SUBROUTINE, CALLED 4 TIMES, CODE SIZE REDUCTION:39 WORDS
SUBOPT_0x30:
	ST   -Y,R31
	ST   -Y,R30
	LDI  R30,LOW(240)
	LDI  R31,HIGH(240)
	ST   -Y,R31
	ST   -Y,R30
	LDI  R30,LOW(270)
	LDI  R31,HIGH(270)
	ST   -Y,R31
	ST   -Y,R30
	LDI  R30,LOW(65535)
	LDI  R31,HIGH(65535)
	ST   -Y,R31
	ST   -Y,R30
	JMP  _SSD1963_DrawFillRect

;OPTIMIZER ADDED SUBROUTINE, CALLED 4 TIMES, CODE SIZE REDUCTION:33 WORDS
SUBOPT_0x31:
	ST   -Y,R31
	ST   -Y,R30
	LDI  R30,LOW(241)
	LDI  R31,HIGH(241)
	ST   -Y,R31
	ST   -Y,R30
	LDI  R30,LOW(269)
	LDI  R31,HIGH(269)
	ST   -Y,R31
	ST   -Y,R30
	LDI  R30,LOW(1)
	LDI  R31,HIGH(1)
	RJMP SUBOPT_0xE

;OPTIMIZER ADDED SUBROUTINE, CALLED 6 TIMES, CODE SIZE REDUCTION:17 WORDS
SUBOPT_0x32:
	LDI  R30,LOW(65535)
	LDI  R31,HIGH(65535)
	ST   -Y,R31
	ST   -Y,R30
	JMP  _Repaint_Button

;OPTIMIZER ADDED SUBROUTINE, CALLED 3 TIMES, CODE SIZE REDUCTION:5 WORDS
SUBOPT_0x33:
	ST   -Y,R31
	ST   -Y,R30
	LDI  R30,LOW(4)
	ST   -Y,R30
	RJMP SUBOPT_0xD

;OPTIMIZER ADDED SUBROUTINE, CALLED 4 TIMES, CODE SIZE REDUCTION:3 WORDS
SUBOPT_0x34:
	LDI  R30,LOW(240)
	LDI  R31,HIGH(240)
	CP   R30,R6
	CPC  R31,R7
	RET

;OPTIMIZER ADDED SUBROUTINE, CALLED 4 TIMES, CODE SIZE REDUCTION:3 WORDS
SUBOPT_0x35:
	LDI  R30,LOW(270)
	LDI  R31,HIGH(270)
	CP   R6,R30
	CPC  R7,R31
	RET

;OPTIMIZER ADDED SUBROUTINE, CALLED 20 TIMES, CODE SIZE REDUCTION:35 WORDS
SUBOPT_0x36:
	ST   -Y,R31
	ST   -Y,R30
	ST   -Y,R17
	ST   -Y,R16
	RET

;OPTIMIZER ADDED SUBROUTINE, CALLED 4 TIMES, CODE SIZE REDUCTION:9 WORDS
SUBOPT_0x37:
	ST   -Y,R19
	ST   -Y,R18
	LDD  R30,Y+10
	LDD  R31,Y+10+1
	RJMP SUBOPT_0xE

;OPTIMIZER ADDED SUBROUTINE, CALLED 2 TIMES, CODE SIZE REDUCTION:3 WORDS
SUBOPT_0x38:
	MOVW R30,R18
	ADIW R30,16
	ST   -Y,R31
	ST   -Y,R30
	LDD  R30,Y+10
	LDD  R31,Y+10+1
	RJMP SUBOPT_0xE

;OPTIMIZER ADDED SUBROUTINE, CALLED 3 TIMES, CODE SIZE REDUCTION:1 WORDS
SUBOPT_0x39:
	LDI  R31,0
	SBIW R30,0
	RET

;OPTIMIZER ADDED SUBROUTINE, CALLED 2 TIMES, CODE SIZE REDUCTION:1 WORDS
SUBOPT_0x3A:
	ST   -Y,R19
	ST   -Y,R18
	ST   -Y,R21
	ST   -Y,R20
	RJMP SUBOPT_0xD

;OPTIMIZER ADDED SUBROUTINE, CALLED 7 TIMES, CODE SIZE REDUCTION:9 WORDS
SUBOPT_0x3B:
	ST   -Y,R21
	ST   -Y,R20
	RJMP SUBOPT_0xD

;OPTIMIZER ADDED SUBROUTINE, CALLED 4 TIMES, CODE SIZE REDUCTION:6 WORDS
SUBOPT_0x3C:
	LDI  R31,0
	RJMP SUBOPT_0x36

;OPTIMIZER ADDED SUBROUTINE, CALLED 6 TIMES, CODE SIZE REDUCTION:17 WORDS
SUBOPT_0x3D:
	ST   -Y,R19
	ST   -Y,R18
	LDI  R30,LOW(3)
	ST   -Y,R30
	RJMP SUBOPT_0x3B

;OPTIMIZER ADDED SUBROUTINE, CALLED 3 TIMES, CODE SIZE REDUCTION:1 WORDS
SUBOPT_0x3E:
	CALL _SSD1963_PutValue16
	__ADDWRN 16,17,64
	RET

;OPTIMIZER ADDED SUBROUTINE, CALLED 9 TIMES, CODE SIZE REDUCTION:13 WORDS
SUBOPT_0x3F:
	LDS  R30,_Graph_X
	LDS  R31,_Graph_X+1
	RET

;OPTIMIZER ADDED SUBROUTINE, CALLED 6 TIMES, CODE SIZE REDUCTION:7 WORDS
SUBOPT_0x40:
	RCALL SUBOPT_0x3F
	RJMP SUBOPT_0x36

;OPTIMIZER ADDED SUBROUTINE, CALLED 4 TIMES, CODE SIZE REDUCTION:15 WORDS
SUBOPT_0x41:
	LDI  R30,LOW(8456)
	LDI  R31,HIGH(8456)
	ST   -Y,R31
	ST   -Y,R30
	CALL _SSD1963_DrawFastLine
	RJMP SUBOPT_0x40

;OPTIMIZER ADDED SUBROUTINE, CALLED 3 TIMES, CODE SIZE REDUCTION:1 WORDS
SUBOPT_0x42:
	ST   -Y,R31
	ST   -Y,R30
	RJMP SUBOPT_0x41

;OPTIMIZER ADDED SUBROUTINE, CALLED 13 TIMES, CODE SIZE REDUCTION:69 WORDS
SUBOPT_0x43:
	MOV  R30,R21
	LDI  R31,0
	MOVW R26,R28
	ADIW R26,12
	LSL  R30
	ROL  R31
	RET

;OPTIMIZER ADDED SUBROUTINE, CALLED 11 TIMES, CODE SIZE REDUCTION:17 WORDS
SUBOPT_0x44:
	ADD  R26,R30
	ADC  R27,R31
	CALL __GETW1P
	RET

;OPTIMIZER ADDED SUBROUTINE, CALLED 3 TIMES, CODE SIZE REDUCTION:15 WORDS
SUBOPT_0x45:
	LDS  R30,_ParameterState
	LDI  R26,LOW(_Amplitude)
	LDI  R27,HIGH(_Amplitude)
	LDI  R31,0
	LSL  R30
	ROL  R31
	RJMP SUBOPT_0x44

;OPTIMIZER ADDED SUBROUTINE, CALLED 5 TIMES, CODE SIZE REDUCTION:5 WORDS
SUBOPT_0x46:
	ADD  R26,R30
	ADC  R27,R31
	LD   R30,X+
	LD   R31,X+
	RET

;OPTIMIZER ADDED SUBROUTINE, CALLED 2 TIMES, CODE SIZE REDUCTION:3 WORDS
SUBOPT_0x47:
	MOV  R30,R21
	LDI  R26,LOW(_ValueLast)
	LDI  R27,HIGH(_ValueLast)
	LDI  R31,0
	LSL  R30
	ROL  R31
	RET

;OPTIMIZER ADDED SUBROUTINE, CALLED 2 TIMES, CODE SIZE REDUCTION:1 WORDS
SUBOPT_0x48:
	ST   -Y,R31
	ST   -Y,R30
	MOV  R30,R21
	LDI  R31,0
	RET

;OPTIMIZER ADDED SUBROUTINE, CALLED 3 TIMES, CODE SIZE REDUCTION:5 WORDS
SUBOPT_0x49:
	CALL _getchar0
	CALL _getchar0
	JMP  _getchar0

;OPTIMIZER ADDED SUBROUTINE, CALLED 4 TIMES, CODE SIZE REDUCTION:9 WORDS
SUBOPT_0x4A:
	CALL _getchar0
	ST   -Y,R30
	CALL _getchar0
	ST   -Y,R30
	RET

;OPTIMIZER ADDED SUBROUTINE, CALLED 6 TIMES, CODE SIZE REDUCTION:17 WORDS
SUBOPT_0x4B:
	ST   -Y,R31
	ST   -Y,R30
	LDI  R30,LOW(192)
	LDI  R31,HIGH(192)
	ST   -Y,R31
	ST   -Y,R30
	RET

;OPTIMIZER ADDED SUBROUTINE, CALLED 4 TIMES, CODE SIZE REDUCTION:3 WORDS
SUBOPT_0x4C:
	CALL _SSD1963_PutString16
	RJMP SUBOPT_0x4

;OPTIMIZER ADDED SUBROUTINE, CALLED 2 TIMES, CODE SIZE REDUCTION:4 WORDS
SUBOPT_0x4D:
	LDS  R30,_ParameterState
	ST   -Y,R30
	LDI  R30,LOW(248)
	LDI  R31,HIGH(248)
	ST   -Y,R31
	ST   -Y,R30
	JMP  _PutParameterText

;OPTIMIZER ADDED SUBROUTINE, CALLED 2 TIMES, CODE SIZE REDUCTION:6 WORDS
SUBOPT_0x4E:
	LDS  R30,_ParameterState
	LDI  R26,LOW(_Amplitude)
	LDI  R27,HIGH(_Amplitude)
	LDI  R31,0
	LSL  R30
	ROL  R31
	RJMP SUBOPT_0x46


	.CSEG
_delay_ms:
	ld   r30,y+
	ld   r31,y+
	adiw r30,0
	breq __delay_ms1
__delay_ms0:
	__DELAY_USW 0xFA0
	wdr
	sbiw r30,1
	brne __delay_ms0
__delay_ms1:
	ret

__ROUND_REPACK:
	TST  R21
	BRPL __REPACK
	CPI  R21,0x80
	BRNE __ROUND_REPACK0
	SBRS R30,0
	RJMP __REPACK
__ROUND_REPACK0:
	ADIW R30,1
	ADC  R22,R25
	ADC  R23,R25
	BRVS __REPACK1

__REPACK:
	LDI  R21,0x80
	EOR  R21,R23
	BRNE __REPACK0
	PUSH R21
	RJMP __ZERORES
__REPACK0:
	CPI  R21,0xFF
	BREQ __REPACK1
	LSL  R22
	LSL  R0
	ROR  R21
	ROR  R22
	MOV  R23,R21
	RET
__REPACK1:
	PUSH R21
	TST  R0
	BRMI __REPACK2
	RJMP __MAXRES
__REPACK2:
	RJMP __MINRES

__UNPACK:
	LDI  R21,0x80
	MOV  R1,R25
	AND  R1,R21
	LSL  R24
	ROL  R25
	EOR  R25,R21
	LSL  R21
	ROR  R24

__UNPACK1:
	LDI  R21,0x80
	MOV  R0,R23
	AND  R0,R21
	LSL  R22
	ROL  R23
	EOR  R23,R21
	LSL  R21
	ROR  R22
	RET

__CFD1U:
	SET
	RJMP __CFD1U0
__CFD1:
	CLT
__CFD1U0:
	PUSH R21
	RCALL __UNPACK1
	CPI  R23,0x80
	BRLO __CFD10
	CPI  R23,0xFF
	BRCC __CFD10
	RJMP __ZERORES
__CFD10:
	LDI  R21,22
	SUB  R21,R23
	BRPL __CFD11
	NEG  R21
	CPI  R21,8
	BRTC __CFD19
	CPI  R21,9
__CFD19:
	BRLO __CFD17
	SER  R30
	SER  R31
	SER  R22
	LDI  R23,0x7F
	BLD  R23,7
	RJMP __CFD15
__CFD17:
	CLR  R23
	TST  R21
	BREQ __CFD15
__CFD18:
	LSL  R30
	ROL  R31
	ROL  R22
	ROL  R23
	DEC  R21
	BRNE __CFD18
	RJMP __CFD15
__CFD11:
	CLR  R23
__CFD12:
	CPI  R21,8
	BRLO __CFD13
	MOV  R30,R31
	MOV  R31,R22
	MOV  R22,R23
	SUBI R21,8
	RJMP __CFD12
__CFD13:
	TST  R21
	BREQ __CFD15
__CFD14:
	LSR  R23
	ROR  R22
	ROR  R31
	ROR  R30
	DEC  R21
	BRNE __CFD14
__CFD15:
	TST  R0
	BRPL __CFD16
	RCALL __ANEGD1
__CFD16:
	POP  R21
	RET

__CDF1U:
	SET
	RJMP __CDF1U0
__CDF1:
	CLT
__CDF1U0:
	SBIW R30,0
	SBCI R22,0
	SBCI R23,0
	BREQ __CDF10
	CLR  R0
	BRTS __CDF11
	TST  R23
	BRPL __CDF11
	COM  R0
	RCALL __ANEGD1
__CDF11:
	MOV  R1,R23
	LDI  R23,30
	TST  R1
__CDF12:
	BRMI __CDF13
	DEC  R23
	LSL  R30
	ROL  R31
	ROL  R22
	ROL  R1
	RJMP __CDF12
__CDF13:
	MOV  R30,R31
	MOV  R31,R22
	MOV  R22,R1
	PUSH R21
	RCALL __REPACK
	POP  R21
__CDF10:
	RET

__ZERORES:
	CLR  R30
	CLR  R31
	CLR  R22
	CLR  R23
	POP  R21
	RET

__MINRES:
	SER  R30
	SER  R31
	LDI  R22,0x7F
	SER  R23
	POP  R21
	RET

__MAXRES:
	SER  R30
	SER  R31
	LDI  R22,0x7F
	LDI  R23,0x7F
	POP  R21
	RET

__DIVF21:
	PUSH R21
	RCALL __UNPACK
	CPI  R23,0x80
	BRNE __DIVF210
	TST  R1
__DIVF211:
	BRPL __DIVF219
	RJMP __MINRES
__DIVF219:
	RJMP __MAXRES
__DIVF210:
	CPI  R25,0x80
	BRNE __DIVF218
__DIVF217:
	RJMP __ZERORES
__DIVF218:
	EOR  R0,R1
	SEC
	SBC  R25,R23
	BRVC __DIVF216
	BRLT __DIVF217
	TST  R0
	RJMP __DIVF211
__DIVF216:
	MOV  R23,R25
	PUSH R17
	PUSH R18
	PUSH R19
	PUSH R20
	CLR  R1
	CLR  R17
	CLR  R18
	CLR  R19
	CLR  R20
	CLR  R21
	LDI  R25,32
__DIVF212:
	CP   R26,R30
	CPC  R27,R31
	CPC  R24,R22
	CPC  R20,R17
	BRLO __DIVF213
	SUB  R26,R30
	SBC  R27,R31
	SBC  R24,R22
	SBC  R20,R17
	SEC
	RJMP __DIVF214
__DIVF213:
	CLC
__DIVF214:
	ROL  R21
	ROL  R18
	ROL  R19
	ROL  R1
	ROL  R26
	ROL  R27
	ROL  R24
	ROL  R20
	DEC  R25
	BRNE __DIVF212
	MOVW R30,R18
	MOV  R22,R1
	POP  R20
	POP  R19
	POP  R18
	POP  R17
	TST  R22
	BRMI __DIVF215
	LSL  R21
	ROL  R30
	ROL  R31
	ROL  R22
	DEC  R23
	BRVS __DIVF217
__DIVF215:
	RCALL __ROUND_REPACK
	POP  R21
	RET

__ADDD12:
	ADD  R30,R26
	ADC  R31,R27
	ADC  R22,R24
	ADC  R23,R25
	RET

__ANEGW1:
	NEG  R31
	NEG  R30
	SBCI R31,0
	RET

__ANEGD1:
	COM  R31
	COM  R22
	COM  R23
	NEG  R30
	SBCI R31,-1
	SBCI R22,-1
	SBCI R23,-1
	RET

__LSRB12:
	TST  R30
	MOV  R0,R30
	MOV  R30,R26
	BREQ __LSRB12R
__LSRB12L:
	LSR  R30
	DEC  R0
	BRNE __LSRB12L
__LSRB12R:
	RET

__ASRW4:
	ASR  R31
	ROR  R30
__ASRW3:
	ASR  R31
	ROR  R30
__ASRW2:
	ASR  R31
	ROR  R30
	ASR  R31
	ROR  R30
	RET

__CWD1:
	MOV  R22,R31
	ADD  R22,R22
	SBC  R22,R22
	MOV  R23,R22
	RET

__MULW12U:
	MUL  R31,R26
	MOV  R31,R0
	MUL  R30,R27
	ADD  R31,R0
	MUL  R30,R26
	MOV  R30,R0
	ADD  R31,R1
	RET

__MULD12U:
	MUL  R23,R26
	MOV  R23,R0
	MUL  R22,R27
	ADD  R23,R0
	MUL  R31,R24
	ADD  R23,R0
	MUL  R30,R25
	ADD  R23,R0
	MUL  R22,R26
	MOV  R22,R0
	ADD  R23,R1
	MUL  R31,R27
	ADD  R22,R0
	ADC  R23,R1
	MUL  R30,R24
	ADD  R22,R0
	ADC  R23,R1
	CLR  R24
	MUL  R31,R26
	MOV  R31,R0
	ADD  R22,R1
	ADC  R23,R24
	MUL  R30,R27
	ADD  R31,R0
	ADC  R22,R1
	ADC  R23,R24
	MUL  R30,R26
	MOV  R30,R0
	ADD  R31,R1
	ADC  R22,R24
	ADC  R23,R24
	RET

__MULW12:
	RCALL __CHKSIGNW
	RCALL __MULW12U
	BRTC __MULW121
	RCALL __ANEGW1
__MULW121:
	RET

__MULD12:
	RCALL __CHKSIGND
	RCALL __MULD12U
	BRTC __MULD121
	RCALL __ANEGD1
__MULD121:
	RET

__DIVW21U:
	CLR  R0
	CLR  R1
	LDI  R25,16
__DIVW21U1:
	LSL  R26
	ROL  R27
	ROL  R0
	ROL  R1
	SUB  R0,R30
	SBC  R1,R31
	BRCC __DIVW21U2
	ADD  R0,R30
	ADC  R1,R31
	RJMP __DIVW21U3
__DIVW21U2:
	SBR  R26,1
__DIVW21U3:
	DEC  R25
	BRNE __DIVW21U1
	MOVW R30,R26
	MOVW R26,R0
	RET

__DIVD21U:
	PUSH R19
	PUSH R20
	PUSH R21
	CLR  R0
	CLR  R1
	CLR  R20
	CLR  R21
	LDI  R19,32
__DIVD21U1:
	LSL  R26
	ROL  R27
	ROL  R24
	ROL  R25
	ROL  R0
	ROL  R1
	ROL  R20
	ROL  R21
	SUB  R0,R30
	SBC  R1,R31
	SBC  R20,R22
	SBC  R21,R23
	BRCC __DIVD21U2
	ADD  R0,R30
	ADC  R1,R31
	ADC  R20,R22
	ADC  R21,R23
	RJMP __DIVD21U3
__DIVD21U2:
	SBR  R26,1
__DIVD21U3:
	DEC  R19
	BRNE __DIVD21U1
	MOVW R30,R26
	MOVW R22,R24
	MOVW R26,R0
	MOVW R24,R20
	POP  R21
	POP  R20
	POP  R19
	RET

__DIVD21:
	RCALL __CHKSIGND
	RCALL __DIVD21U
	BRTC __DIVD211
	RCALL __ANEGD1
__DIVD211:
	RET

__MODW21U:
	RCALL __DIVW21U
	MOVW R30,R26
	RET

__CHKSIGNW:
	CLT
	SBRS R31,7
	RJMP __CHKSW1
	RCALL __ANEGW1
	SET
__CHKSW1:
	SBRS R27,7
	RJMP __CHKSW2
	COM  R26
	COM  R27
	ADIW R26,1
	BLD  R0,0
	INC  R0
	BST  R0,0
__CHKSW2:
	RET

__CHKSIGND:
	CLT
	SBRS R23,7
	RJMP __CHKSD1
	RCALL __ANEGD1
	SET
__CHKSD1:
	SBRS R25,7
	RJMP __CHKSD2
	CLR  R0
	COM  R26
	COM  R27
	COM  R24
	COM  R25
	ADIW R26,1
	ADC  R24,R0
	ADC  R25,R0
	BLD  R0,0
	INC  R0
	BST  R0,0
__CHKSD2:
	RET

__GETW1P:
	LD   R30,X+
	LD   R31,X
	SBIW R26,1
	RET

__SWAPW12:
	MOV  R1,R27
	MOV  R27,R31
	MOV  R31,R1

__SWAPB12:
	MOV  R1,R26
	MOV  R26,R30
	MOV  R30,R1
	RET

__CPD21:
	CP   R26,R30
	CPC  R27,R31
	CPC  R24,R22
	CPC  R25,R23
	RET

__SAVELOCR6:
	ST   -Y,R21
__SAVELOCR5:
	ST   -Y,R20
__SAVELOCR4:
	ST   -Y,R19
__SAVELOCR3:
	ST   -Y,R18
__SAVELOCR2:
	ST   -Y,R17
	ST   -Y,R16
	RET

__LOADLOCR6:
	LDD  R21,Y+5
__LOADLOCR5:
	LDD  R20,Y+4
__LOADLOCR4:
	LDD  R19,Y+3
__LOADLOCR3:
	LDD  R18,Y+2
__LOADLOCR2:
	LDD  R17,Y+1
	LD   R16,Y
	RET

;END OF CODE MARKER
__END_OF_CODE:
