
;CodeVisionAVR C Compiler V2.05.0 Professional
;(C) Copyright 1998-2010 Pavel Haiduc, HP InfoTech s.r.l.
;http://www.hpinfotech.com

;Chip type                : ATmega128
;Program type             : Application
;Clock frequency          : 16,000000 MHz
;Memory model             : Small
;Optimize for             : Size
;(s)printf features       : int, width
;(s)scanf features        : int, width
;External RAM size        : 0
;Data Stack size          : 1024 byte(s)
;Heap size                : 0 byte(s)
;Promote 'char' to 'int'  : Yes
;'char' is unsigned       : Yes
;8 bit enums              : Yes
;global 'const' stored in FLASH: No
;Enhanced core instructions    : On
;Smart register allocation     : On
;Automatic register allocation : On

	#pragma AVRPART ADMIN PART_NAME ATmega128
	#pragma AVRPART MEMORY PROG_FLASH 131072
	#pragma AVRPART MEMORY EEPROM 4096
	#pragma AVRPART MEMORY INT_SRAM SIZE 4351
	#pragma AVRPART MEMORY INT_SRAM START_ADDR 0x100

	#define CALL_SUPPORTED 1

	.LISTMAC
	.EQU UDRE=0x5
	.EQU RXC=0x7
	.EQU USR=0xB
	.EQU UDR=0xC
	.EQU SPSR=0xE
	.EQU SPDR=0xF
	.EQU EERE=0x0
	.EQU EEWE=0x1
	.EQU EEMWE=0x2
	.EQU EECR=0x1C
	.EQU EEDR=0x1D
	.EQU EEARL=0x1E
	.EQU EEARH=0x1F
	.EQU WDTCR=0x21
	.EQU MCUCR=0x35
	.EQU RAMPZ=0x3B
	.EQU SPL=0x3D
	.EQU SPH=0x3E
	.EQU SREG=0x3F
	.EQU XMCRA=0x6D
	.EQU XMCRB=0x6C

	.DEF R0X0=R0
	.DEF R0X1=R1
	.DEF R0X2=R2
	.DEF R0X3=R3
	.DEF R0X4=R4
	.DEF R0X5=R5
	.DEF R0X6=R6
	.DEF R0X7=R7
	.DEF R0X8=R8
	.DEF R0X9=R9
	.DEF R0XA=R10
	.DEF R0XB=R11
	.DEF R0XC=R12
	.DEF R0XD=R13
	.DEF R0XE=R14
	.DEF R0XF=R15
	.DEF R0X10=R16
	.DEF R0X11=R17
	.DEF R0X12=R18
	.DEF R0X13=R19
	.DEF R0X14=R20
	.DEF R0X15=R21
	.DEF R0X16=R22
	.DEF R0X17=R23
	.DEF R0X18=R24
	.DEF R0X19=R25
	.DEF R0X1A=R26
	.DEF R0X1B=R27
	.DEF R0X1C=R28
	.DEF R0X1D=R29
	.DEF R0X1E=R30
	.DEF R0X1F=R31

	.EQU __SRAM_START=0x0100
	.EQU __SRAM_END=0x10FF
	.EQU __DSTACK_SIZE=0x0400
	.EQU __HEAP_SIZE=0x0000
	.EQU __CLEAR_SRAM_SIZE=__SRAM_END-__SRAM_START+1

	.MACRO __CPD1N
	CPI  R30,LOW(@0)
	LDI  R26,HIGH(@0)
	CPC  R31,R26
	LDI  R26,BYTE3(@0)
	CPC  R22,R26
	LDI  R26,BYTE4(@0)
	CPC  R23,R26
	.ENDM

	.MACRO __CPD2N
	CPI  R26,LOW(@0)
	LDI  R30,HIGH(@0)
	CPC  R27,R30
	LDI  R30,BYTE3(@0)
	CPC  R24,R30
	LDI  R30,BYTE4(@0)
	CPC  R25,R30
	.ENDM

	.MACRO __CPWRR
	CP   R@0,R@2
	CPC  R@1,R@3
	.ENDM

	.MACRO __CPWRN
	CPI  R@0,LOW(@2)
	LDI  R30,HIGH(@2)
	CPC  R@1,R30
	.ENDM

	.MACRO __ADDB1MN
	SUBI R30,LOW(-@0-(@1))
	.ENDM

	.MACRO __ADDB2MN
	SUBI R26,LOW(-@0-(@1))
	.ENDM

	.MACRO __ADDW1MN
	SUBI R30,LOW(-@0-(@1))
	SBCI R31,HIGH(-@0-(@1))
	.ENDM

	.MACRO __ADDW2MN
	SUBI R26,LOW(-@0-(@1))
	SBCI R27,HIGH(-@0-(@1))
	.ENDM

	.MACRO __ADDW1FN
	SUBI R30,LOW(-2*@0-(@1))
	SBCI R31,HIGH(-2*@0-(@1))
	.ENDM

	.MACRO __ADDD1FN
	SUBI R30,LOW(-2*@0-(@1))
	SBCI R31,HIGH(-2*@0-(@1))
	SBCI R22,BYTE3(-2*@0-(@1))
	.ENDM

	.MACRO __ADDD1N
	SUBI R30,LOW(-@0)
	SBCI R31,HIGH(-@0)
	SBCI R22,BYTE3(-@0)
	SBCI R23,BYTE4(-@0)
	.ENDM

	.MACRO __ADDD2N
	SUBI R26,LOW(-@0)
	SBCI R27,HIGH(-@0)
	SBCI R24,BYTE3(-@0)
	SBCI R25,BYTE4(-@0)
	.ENDM

	.MACRO __SUBD1N
	SUBI R30,LOW(@0)
	SBCI R31,HIGH(@0)
	SBCI R22,BYTE3(@0)
	SBCI R23,BYTE4(@0)
	.ENDM

	.MACRO __SUBD2N
	SUBI R26,LOW(@0)
	SBCI R27,HIGH(@0)
	SBCI R24,BYTE3(@0)
	SBCI R25,BYTE4(@0)
	.ENDM

	.MACRO __ANDBMNN
	LDS  R30,@0+(@1)
	ANDI R30,LOW(@2)
	STS  @0+(@1),R30
	.ENDM

	.MACRO __ANDWMNN
	LDS  R30,@0+(@1)
	ANDI R30,LOW(@2)
	STS  @0+(@1),R30
	LDS  R30,@0+(@1)+1
	ANDI R30,HIGH(@2)
	STS  @0+(@1)+1,R30
	.ENDM

	.MACRO __ANDD1N
	ANDI R30,LOW(@0)
	ANDI R31,HIGH(@0)
	ANDI R22,BYTE3(@0)
	ANDI R23,BYTE4(@0)
	.ENDM

	.MACRO __ANDD2N
	ANDI R26,LOW(@0)
	ANDI R27,HIGH(@0)
	ANDI R24,BYTE3(@0)
	ANDI R25,BYTE4(@0)
	.ENDM

	.MACRO __ORBMNN
	LDS  R30,@0+(@1)
	ORI  R30,LOW(@2)
	STS  @0+(@1),R30
	.ENDM

	.MACRO __ORWMNN
	LDS  R30,@0+(@1)
	ORI  R30,LOW(@2)
	STS  @0+(@1),R30
	LDS  R30,@0+(@1)+1
	ORI  R30,HIGH(@2)
	STS  @0+(@1)+1,R30
	.ENDM

	.MACRO __ORD1N
	ORI  R30,LOW(@0)
	ORI  R31,HIGH(@0)
	ORI  R22,BYTE3(@0)
	ORI  R23,BYTE4(@0)
	.ENDM

	.MACRO __ORD2N
	ORI  R26,LOW(@0)
	ORI  R27,HIGH(@0)
	ORI  R24,BYTE3(@0)
	ORI  R25,BYTE4(@0)
	.ENDM

	.MACRO __DELAY_USB
	LDI  R24,LOW(@0)
__DELAY_USB_LOOP:
	DEC  R24
	BRNE __DELAY_USB_LOOP
	.ENDM

	.MACRO __DELAY_USW
	LDI  R24,LOW(@0)
	LDI  R25,HIGH(@0)
__DELAY_USW_LOOP:
	SBIW R24,1
	BRNE __DELAY_USW_LOOP
	.ENDM

	.MACRO __GETD1S
	LDD  R30,Y+@0
	LDD  R31,Y+@0+1
	LDD  R22,Y+@0+2
	LDD  R23,Y+@0+3
	.ENDM

	.MACRO __GETD2S
	LDD  R26,Y+@0
	LDD  R27,Y+@0+1
	LDD  R24,Y+@0+2
	LDD  R25,Y+@0+3
	.ENDM

	.MACRO __PUTD1S
	STD  Y+@0,R30
	STD  Y+@0+1,R31
	STD  Y+@0+2,R22
	STD  Y+@0+3,R23
	.ENDM

	.MACRO __PUTD2S
	STD  Y+@0,R26
	STD  Y+@0+1,R27
	STD  Y+@0+2,R24
	STD  Y+@0+3,R25
	.ENDM

	.MACRO __PUTDZ2
	STD  Z+@0,R26
	STD  Z+@0+1,R27
	STD  Z+@0+2,R24
	STD  Z+@0+3,R25
	.ENDM

	.MACRO __CLRD1S
	STD  Y+@0,R30
	STD  Y+@0+1,R30
	STD  Y+@0+2,R30
	STD  Y+@0+3,R30
	.ENDM

	.MACRO __POINTB1MN
	LDI  R30,LOW(@0+(@1))
	.ENDM

	.MACRO __POINTW1MN
	LDI  R30,LOW(@0+(@1))
	LDI  R31,HIGH(@0+(@1))
	.ENDM

	.MACRO __POINTD1M
	LDI  R30,LOW(@0)
	LDI  R31,HIGH(@0)
	LDI  R22,BYTE3(@0)
	LDI  R23,BYTE4(@0)
	.ENDM

	.MACRO __POINTW1FN
	LDI  R30,LOW(2*@0+(@1))
	LDI  R31,HIGH(2*@0+(@1))
	.ENDM

	.MACRO __POINTD1FN
	LDI  R30,LOW(2*@0+(@1))
	LDI  R31,HIGH(2*@0+(@1))
	LDI  R22,BYTE3(2*@0+(@1))
	LDI  R23,BYTE4(2*@0+(@1))
	.ENDM

	.MACRO __POINTB2MN
	LDI  R26,LOW(@0+(@1))
	.ENDM

	.MACRO __POINTW2MN
	LDI  R26,LOW(@0+(@1))
	LDI  R27,HIGH(@0+(@1))
	.ENDM

	.MACRO __POINTBRM
	LDI  R@0,LOW(@1)
	.ENDM

	.MACRO __POINTWRM
	LDI  R@0,LOW(@2)
	LDI  R@1,HIGH(@2)
	.ENDM

	.MACRO __POINTBRMN
	LDI  R@0,LOW(@1+(@2))
	.ENDM

	.MACRO __POINTWRMN
	LDI  R@0,LOW(@2+(@3))
	LDI  R@1,HIGH(@2+(@3))
	.ENDM

	.MACRO __POINTWRFN
	LDI  R@0,LOW(@2*2+(@3))
	LDI  R@1,HIGH(@2*2+(@3))
	.ENDM

	.MACRO __GETD1N
	LDI  R30,LOW(@0)
	LDI  R31,HIGH(@0)
	LDI  R22,BYTE3(@0)
	LDI  R23,BYTE4(@0)
	.ENDM

	.MACRO __GETD2N
	LDI  R26,LOW(@0)
	LDI  R27,HIGH(@0)
	LDI  R24,BYTE3(@0)
	LDI  R25,BYTE4(@0)
	.ENDM

	.MACRO __GETB1MN
	LDS  R30,@0+(@1)
	.ENDM

	.MACRO __GETB1HMN
	LDS  R31,@0+(@1)
	.ENDM

	.MACRO __GETW1MN
	LDS  R30,@0+(@1)
	LDS  R31,@0+(@1)+1
	.ENDM

	.MACRO __GETD1MN
	LDS  R30,@0+(@1)
	LDS  R31,@0+(@1)+1
	LDS  R22,@0+(@1)+2
	LDS  R23,@0+(@1)+3
	.ENDM

	.MACRO __GETBRMN
	LDS  R@0,@1+(@2)
	.ENDM

	.MACRO __GETWRMN
	LDS  R@0,@2+(@3)
	LDS  R@1,@2+(@3)+1
	.ENDM

	.MACRO __GETWRZ
	LDD  R@0,Z+@2
	LDD  R@1,Z+@2+1
	.ENDM

	.MACRO __GETD2Z
	LDD  R26,Z+@0
	LDD  R27,Z+@0+1
	LDD  R24,Z+@0+2
	LDD  R25,Z+@0+3
	.ENDM

	.MACRO __GETB2MN
	LDS  R26,@0+(@1)
	.ENDM

	.MACRO __GETW2MN
	LDS  R26,@0+(@1)
	LDS  R27,@0+(@1)+1
	.ENDM

	.MACRO __GETD2MN
	LDS  R26,@0+(@1)
	LDS  R27,@0+(@1)+1
	LDS  R24,@0+(@1)+2
	LDS  R25,@0+(@1)+3
	.ENDM

	.MACRO __PUTB1MN
	STS  @0+(@1),R30
	.ENDM

	.MACRO __PUTW1MN
	STS  @0+(@1),R30
	STS  @0+(@1)+1,R31
	.ENDM

	.MACRO __PUTD1MN
	STS  @0+(@1),R30
	STS  @0+(@1)+1,R31
	STS  @0+(@1)+2,R22
	STS  @0+(@1)+3,R23
	.ENDM

	.MACRO __PUTB1EN
	LDI  R26,LOW(@0+(@1))
	LDI  R27,HIGH(@0+(@1))
	CALL __EEPROMWRB
	.ENDM

	.MACRO __PUTW1EN
	LDI  R26,LOW(@0+(@1))
	LDI  R27,HIGH(@0+(@1))
	CALL __EEPROMWRW
	.ENDM

	.MACRO __PUTD1EN
	LDI  R26,LOW(@0+(@1))
	LDI  R27,HIGH(@0+(@1))
	CALL __EEPROMWRD
	.ENDM

	.MACRO __PUTBR0MN
	STS  @0+(@1),R0
	.ENDM

	.MACRO __PUTBMRN
	STS  @0+(@1),R@2
	.ENDM

	.MACRO __PUTWMRN
	STS  @0+(@1),R@2
	STS  @0+(@1)+1,R@3
	.ENDM

	.MACRO __PUTBZR
	STD  Z+@1,R@0
	.ENDM

	.MACRO __PUTWZR
	STD  Z+@2,R@0
	STD  Z+@2+1,R@1
	.ENDM

	.MACRO __GETW1R
	MOV  R30,R@0
	MOV  R31,R@1
	.ENDM

	.MACRO __GETW2R
	MOV  R26,R@0
	MOV  R27,R@1
	.ENDM

	.MACRO __GETWRN
	LDI  R@0,LOW(@2)
	LDI  R@1,HIGH(@2)
	.ENDM

	.MACRO __PUTW1R
	MOV  R@0,R30
	MOV  R@1,R31
	.ENDM

	.MACRO __PUTW2R
	MOV  R@0,R26
	MOV  R@1,R27
	.ENDM

	.MACRO __ADDWRN
	SUBI R@0,LOW(-@2)
	SBCI R@1,HIGH(-@2)
	.ENDM

	.MACRO __ADDWRR
	ADD  R@0,R@2
	ADC  R@1,R@3
	.ENDM

	.MACRO __SUBWRN
	SUBI R@0,LOW(@2)
	SBCI R@1,HIGH(@2)
	.ENDM

	.MACRO __SUBWRR
	SUB  R@0,R@2
	SBC  R@1,R@3
	.ENDM

	.MACRO __ANDWRN
	ANDI R@0,LOW(@2)
	ANDI R@1,HIGH(@2)
	.ENDM

	.MACRO __ANDWRR
	AND  R@0,R@2
	AND  R@1,R@3
	.ENDM

	.MACRO __ORWRN
	ORI  R@0,LOW(@2)
	ORI  R@1,HIGH(@2)
	.ENDM

	.MACRO __ORWRR
	OR   R@0,R@2
	OR   R@1,R@3
	.ENDM

	.MACRO __EORWRR
	EOR  R@0,R@2
	EOR  R@1,R@3
	.ENDM

	.MACRO __GETWRS
	LDD  R@0,Y+@2
	LDD  R@1,Y+@2+1
	.ENDM

	.MACRO __PUTBSR
	STD  Y+@1,R@0
	.ENDM

	.MACRO __PUTWSR
	STD  Y+@2,R@0
	STD  Y+@2+1,R@1
	.ENDM

	.MACRO __MOVEWRR
	MOV  R@0,R@2
	MOV  R@1,R@3
	.ENDM

	.MACRO __INWR
	IN   R@0,@2
	IN   R@1,@2+1
	.ENDM

	.MACRO __OUTWR
	OUT  @2+1,R@1
	OUT  @2,R@0
	.ENDM

	.MACRO __CALL1MN
	LDS  R30,@0+(@1)
	LDS  R31,@0+(@1)+1
	ICALL
	.ENDM

	.MACRO __CALL1FN
	LDI  R30,LOW(2*@0+(@1))
	LDI  R31,HIGH(2*@0+(@1))
	CALL __GETW1PF
	ICALL
	.ENDM

	.MACRO __CALL2EN
	LDI  R26,LOW(@0+(@1))
	LDI  R27,HIGH(@0+(@1))
	CALL __EEPROMRDW
	ICALL
	.ENDM

	.MACRO __GETW1STACK
	IN   R26,SPL
	IN   R27,SPH
	ADIW R26,@0+1
	LD   R30,X+
	LD   R31,X
	.ENDM

	.MACRO __GETD1STACK
	IN   R26,SPL
	IN   R27,SPH
	ADIW R26,@0+1
	LD   R30,X+
	LD   R31,X+
	LD   R22,X
	.ENDM

	.MACRO __NBST
	BST  R@0,@1
	IN   R30,SREG
	LDI  R31,0x40
	EOR  R30,R31
	OUT  SREG,R30
	.ENDM


	.MACRO __PUTB1SN
	LDD  R26,Y+@0
	LDD  R27,Y+@0+1
	SUBI R26,LOW(-@1)
	SBCI R27,HIGH(-@1)
	ST   X,R30
	.ENDM

	.MACRO __PUTW1SN
	LDD  R26,Y+@0
	LDD  R27,Y+@0+1
	SUBI R26,LOW(-@1)
	SBCI R27,HIGH(-@1)
	ST   X+,R30
	ST   X,R31
	.ENDM

	.MACRO __PUTD1SN
	LDD  R26,Y+@0
	LDD  R27,Y+@0+1
	SUBI R26,LOW(-@1)
	SBCI R27,HIGH(-@1)
	CALL __PUTDP1
	.ENDM

	.MACRO __PUTB1SNS
	LDD  R26,Y+@0
	LDD  R27,Y+@0+1
	ADIW R26,@1
	ST   X,R30
	.ENDM

	.MACRO __PUTW1SNS
	LDD  R26,Y+@0
	LDD  R27,Y+@0+1
	ADIW R26,@1
	ST   X+,R30
	ST   X,R31
	.ENDM

	.MACRO __PUTD1SNS
	LDD  R26,Y+@0
	LDD  R27,Y+@0+1
	ADIW R26,@1
	CALL __PUTDP1
	.ENDM

	.MACRO __PUTB1PMN
	LDS  R26,@0
	LDS  R27,@0+1
	SUBI R26,LOW(-@1)
	SBCI R27,HIGH(-@1)
	ST   X,R30
	.ENDM

	.MACRO __PUTW1PMN
	LDS  R26,@0
	LDS  R27,@0+1
	SUBI R26,LOW(-@1)
	SBCI R27,HIGH(-@1)
	ST   X+,R30
	ST   X,R31
	.ENDM

	.MACRO __PUTD1PMN
	LDS  R26,@0
	LDS  R27,@0+1
	SUBI R26,LOW(-@1)
	SBCI R27,HIGH(-@1)
	CALL __PUTDP1
	.ENDM

	.MACRO __PUTB1PMNS
	LDS  R26,@0
	LDS  R27,@0+1
	ADIW R26,@1
	ST   X,R30
	.ENDM

	.MACRO __PUTW1PMNS
	LDS  R26,@0
	LDS  R27,@0+1
	ADIW R26,@1
	ST   X+,R30
	ST   X,R31
	.ENDM

	.MACRO __PUTD1PMNS
	LDS  R26,@0
	LDS  R27,@0+1
	ADIW R26,@1
	CALL __PUTDP1
	.ENDM

	.MACRO __PUTB1RN
	MOVW R26,R@0
	SUBI R26,LOW(-@1)
	SBCI R27,HIGH(-@1)
	ST   X,R30
	.ENDM

	.MACRO __PUTW1RN
	MOVW R26,R@0
	SUBI R26,LOW(-@1)
	SBCI R27,HIGH(-@1)
	ST   X+,R30
	ST   X,R31
	.ENDM

	.MACRO __PUTD1RN
	MOVW R26,R@0
	SUBI R26,LOW(-@1)
	SBCI R27,HIGH(-@1)
	CALL __PUTDP1
	.ENDM

	.MACRO __PUTB1RNS
	MOVW R26,R@0
	ADIW R26,@1
	ST   X,R30
	.ENDM

	.MACRO __PUTW1RNS
	MOVW R26,R@0
	ADIW R26,@1
	ST   X+,R30
	ST   X,R31
	.ENDM

	.MACRO __PUTD1RNS
	MOVW R26,R@0
	ADIW R26,@1
	CALL __PUTDP1
	.ENDM

	.MACRO __PUTB1RON
	MOV  R26,R@0
	MOV  R27,R@1
	SUBI R26,LOW(-@2)
	SBCI R27,HIGH(-@2)
	ST   X,R30
	.ENDM

	.MACRO __PUTW1RON
	MOV  R26,R@0
	MOV  R27,R@1
	SUBI R26,LOW(-@2)
	SBCI R27,HIGH(-@2)
	ST   X+,R30
	ST   X,R31
	.ENDM

	.MACRO __PUTD1RON
	MOV  R26,R@0
	MOV  R27,R@1
	SUBI R26,LOW(-@2)
	SBCI R27,HIGH(-@2)
	CALL __PUTDP1
	.ENDM

	.MACRO __PUTB1RONS
	MOV  R26,R@0
	MOV  R27,R@1
	ADIW R26,@2
	ST   X,R30
	.ENDM

	.MACRO __PUTW1RONS
	MOV  R26,R@0
	MOV  R27,R@1
	ADIW R26,@2
	ST   X+,R30
	ST   X,R31
	.ENDM

	.MACRO __PUTD1RONS
	MOV  R26,R@0
	MOV  R27,R@1
	ADIW R26,@2
	CALL __PUTDP1
	.ENDM


	.MACRO __GETB1SX
	MOVW R30,R28
	SUBI R30,LOW(-@0)
	SBCI R31,HIGH(-@0)
	LD   R30,Z
	.ENDM

	.MACRO __GETB1HSX
	MOVW R30,R28
	SUBI R30,LOW(-@0)
	SBCI R31,HIGH(-@0)
	LD   R31,Z
	.ENDM

	.MACRO __GETW1SX
	MOVW R30,R28
	SUBI R30,LOW(-@0)
	SBCI R31,HIGH(-@0)
	LD   R0,Z+
	LD   R31,Z
	MOV  R30,R0
	.ENDM

	.MACRO __GETD1SX
	MOVW R30,R28
	SUBI R30,LOW(-@0)
	SBCI R31,HIGH(-@0)
	LD   R0,Z+
	LD   R1,Z+
	LD   R22,Z+
	LD   R23,Z
	MOVW R30,R0
	.ENDM

	.MACRO __GETB2SX
	MOVW R26,R28
	SUBI R26,LOW(-@0)
	SBCI R27,HIGH(-@0)
	LD   R26,X
	.ENDM

	.MACRO __GETW2SX
	MOVW R26,R28
	SUBI R26,LOW(-@0)
	SBCI R27,HIGH(-@0)
	LD   R0,X+
	LD   R27,X
	MOV  R26,R0
	.ENDM

	.MACRO __GETD2SX
	MOVW R26,R28
	SUBI R26,LOW(-@0)
	SBCI R27,HIGH(-@0)
	LD   R0,X+
	LD   R1,X+
	LD   R24,X+
	LD   R25,X
	MOVW R26,R0
	.ENDM

	.MACRO __GETBRSX
	MOVW R30,R28
	SUBI R30,LOW(-@1)
	SBCI R31,HIGH(-@1)
	LD   R@0,Z
	.ENDM

	.MACRO __GETWRSX
	MOVW R30,R28
	SUBI R30,LOW(-@2)
	SBCI R31,HIGH(-@2)
	LD   R@0,Z+
	LD   R@1,Z
	.ENDM

	.MACRO __GETBRSX2
	MOVW R26,R28
	SUBI R26,LOW(-@1)
	SBCI R27,HIGH(-@1)
	LD   R@0,X
	.ENDM

	.MACRO __GETWRSX2
	MOVW R26,R28
	SUBI R26,LOW(-@2)
	SBCI R27,HIGH(-@2)
	LD   R@0,X+
	LD   R@1,X
	.ENDM

	.MACRO __LSLW8SX
	MOVW R30,R28
	SUBI R30,LOW(-@0)
	SBCI R31,HIGH(-@0)
	LD   R31,Z
	CLR  R30
	.ENDM

	.MACRO __PUTB1SX
	MOVW R26,R28
	SUBI R26,LOW(-@0)
	SBCI R27,HIGH(-@0)
	ST   X,R30
	.ENDM

	.MACRO __PUTW1SX
	MOVW R26,R28
	SUBI R26,LOW(-@0)
	SBCI R27,HIGH(-@0)
	ST   X+,R30
	ST   X,R31
	.ENDM

	.MACRO __PUTD1SX
	MOVW R26,R28
	SUBI R26,LOW(-@0)
	SBCI R27,HIGH(-@0)
	ST   X+,R30
	ST   X+,R31
	ST   X+,R22
	ST   X,R23
	.ENDM

	.MACRO __CLRW1SX
	MOVW R26,R28
	SUBI R26,LOW(-@0)
	SBCI R27,HIGH(-@0)
	ST   X+,R30
	ST   X,R30
	.ENDM

	.MACRO __CLRD1SX
	MOVW R26,R28
	SUBI R26,LOW(-@0)
	SBCI R27,HIGH(-@0)
	ST   X+,R30
	ST   X+,R30
	ST   X+,R30
	ST   X,R30
	.ENDM

	.MACRO __PUTB2SX
	MOVW R30,R28
	SUBI R30,LOW(-@0)
	SBCI R31,HIGH(-@0)
	ST   Z,R26
	.ENDM

	.MACRO __PUTW2SX
	MOVW R30,R28
	SUBI R30,LOW(-@0)
	SBCI R31,HIGH(-@0)
	ST   Z+,R26
	ST   Z,R27
	.ENDM

	.MACRO __PUTD2SX
	MOVW R30,R28
	SUBI R30,LOW(-@0)
	SBCI R31,HIGH(-@0)
	ST   Z+,R26
	ST   Z+,R27
	ST   Z+,R24
	ST   Z,R25
	.ENDM

	.MACRO __PUTBSRX
	MOVW R30,R28
	SUBI R30,LOW(-@1)
	SBCI R31,HIGH(-@1)
	ST   Z,R@0
	.ENDM

	.MACRO __PUTWSRX
	MOVW R30,R28
	SUBI R30,LOW(-@2)
	SBCI R31,HIGH(-@2)
	ST   Z+,R@0
	ST   Z,R@1
	.ENDM

	.MACRO __PUTB1SNX
	MOVW R26,R28
	SUBI R26,LOW(-@0)
	SBCI R27,HIGH(-@0)
	LD   R0,X+
	LD   R27,X
	MOV  R26,R0
	SUBI R26,LOW(-@1)
	SBCI R27,HIGH(-@1)
	ST   X,R30
	.ENDM

	.MACRO __PUTW1SNX
	MOVW R26,R28
	SUBI R26,LOW(-@0)
	SBCI R27,HIGH(-@0)
	LD   R0,X+
	LD   R27,X
	MOV  R26,R0
	SUBI R26,LOW(-@1)
	SBCI R27,HIGH(-@1)
	ST   X+,R30
	ST   X,R31
	.ENDM

	.MACRO __PUTD1SNX
	MOVW R26,R28
	SUBI R26,LOW(-@0)
	SBCI R27,HIGH(-@0)
	LD   R0,X+
	LD   R27,X
	MOV  R26,R0
	SUBI R26,LOW(-@1)
	SBCI R27,HIGH(-@1)
	ST   X+,R30
	ST   X+,R31
	ST   X+,R22
	ST   X,R23
	.ENDM

	.MACRO __MULBRR
	MULS R@0,R@1
	MOVW R30,R0
	.ENDM

	.MACRO __MULBRRU
	MUL  R@0,R@1
	MOVW R30,R0
	.ENDM

	.MACRO __MULBRR0
	MULS R@0,R@1
	.ENDM

	.MACRO __MULBRRU0
	MUL  R@0,R@1
	.ENDM

	.MACRO __MULBNWRU
	LDI  R26,@2
	MUL  R26,R@0
	MOVW R30,R0
	MUL  R26,R@1
	ADD  R31,R0
	.ENDM

;NAME DEFINITIONS FOR GLOBAL VARIABLES ALLOCATED TO REGISTERS
	.DEF _TOUCH_X=R4
	.DEF _TOUCH_Y=R6
	.DEF _TOUCH_X_LAST=R8
	.DEF _TOUCH_Y_LAST=R10
	.DEF _rx_wr_index2=R13
	.DEF _rx_rd_index2=R12

	.CSEG
	.ORG 0x00

;START OF CODE MARKER
__START_OF_CODE:

;INTERRUPT VECTORS
	JMP  __RESET
	JMP  0x00
	JMP  0x00
	JMP  0x00
	JMP  0x00
	JMP  0x00
	JMP  0x00
	JMP  0x00
	JMP  0x00
	JMP  0x00
	JMP  0x00
	JMP  0x00
	JMP  0x00
	JMP  0x00
	JMP  0x00
	JMP  0x00
	JMP  _timer0_ovf_isr
	JMP  0x00
	JMP  _usart0_rx_isr
	JMP  0x00
	JMP  _usart0_tx_isr
	JMP  0x00
	JMP  0x00
	JMP  0x00
	JMP  0x00
	JMP  0x00
	JMP  0x00
	JMP  0x00
	JMP  0x00
	JMP  0x00
	JMP  _usart1_rx_isr
	JMP  0x00
	JMP  _usart1_tx_isr
	JMP  0x00
	JMP  0x00

_blank_symb:
	.DB  0x0,0x0,0x0,0x0,0x0,0x0,0x0,0x0
	.DB  0x0,0x0,0x0,0x0,0x0,0x0,0x0,0x0
	.DB  0x0,0x0,0x0,0x0,0x0,0x0,0x0,0x0
	.DB  0x0,0x0,0x0,0x0,0x0,0x0,0x0,0x0
_S_46:
	.DB  0x0,0x0,0x0,0x0,0x0,0x0,0x0,0x0
	.DB  0x0,0x0,0x0,0x0,0x0,0x0,0x0,0x0
	.DB  0x0,0x0,0x0,0x0,0x0,0x0,0x0,0x0
	.DB  0x1,0x80,0x1,0x80,0x0,0x0,0x0,0x0
_S_UP:
	.DB  0x0,0x0,0x1,0x80,0x3,0xC0,0x7,0xE0
	.DB  0x6,0x60,0xC,0x30,0xC,0x30,0x18,0x18
	.DB  0x18,0x18,0x30,0xC,0x30,0xC,0x60,0x6
	.DB  0x60,0x6,0x7F,0xFE,0x7F,0xFE,0x0,0x0
_S_DOWN:
	.DB  0x0,0x0,0x7F,0xFE,0x7F,0xFE,0x60,0x6
	.DB  0x60,0x6,0x30,0xC,0x30,0xC,0x18,0x18
	.DB  0x18,0x18,0xC,0x30,0xC,0x30,0x6,0x60
	.DB  0x7,0xE0,0x3,0xC0,0x1,0x80,0x0,0x0
_S_48:
	.DB  0x0,0x0,0x7,0xE0,0xC,0x30,0x18,0x18
	.DB  0x18,0x18,0x18,0x18,0x18,0x18,0x18,0x18
	.DB  0x18,0x18,0x18,0x18,0x18,0x18,0x18,0x18
	.DB  0xC,0x30,0x7,0xE0,0x0,0x0,0x0,0x0
_S_49:
	.DB  0x0,0x0,0x1,0x80,0x3,0x80,0x7,0x80
	.DB  0x1,0x80,0x1,0x80,0x1,0x80,0x1,0x80
	.DB  0x1,0x80,0x1,0x80,0x1,0x80,0x1,0x80
	.DB  0x1,0x80,0x3,0xC0,0x0,0x0,0x0,0x0
_S_50:
	.DB  0x0,0x0,0x7,0xE0,0xC,0x30,0x18,0x18
	.DB  0x10,0x8,0x0,0x18,0x0,0x30,0x0,0x60
	.DB  0x0,0xC0,0x1,0x80,0x3,0x0,0x6,0x0
	.DB  0xC,0x18,0x1F,0xF8,0x0,0x0,0x0,0x0
_S_51:
	.DB  0x0,0x0,0x7,0xE0,0x8,0x10,0x10,0x8
	.DB  0x10,0x8,0x0,0x10,0x0,0xE0,0x0,0x30
	.DB  0x0,0x18,0x0,0x8,0x0,0x8,0x18,0x18
	.DB  0xC,0x30,0x7,0xE0,0x0,0x0,0x0,0x0
_S_52:
	.DB  0x0,0x0,0x0,0x30,0x0,0x70,0x0,0xF0
	.DB  0x1,0xB0,0x3,0x30,0x6,0x30,0xC,0x30
	.DB  0x18,0x30,0x1F,0xF8,0x0,0x30,0x0,0x30
	.DB  0x0,0x30,0x0,0x78,0x0,0x0,0x0,0x0
_S_53:
	.DB  0x0,0x0,0xF,0xF8,0xF,0xF0,0x8,0x0
	.DB  0x10,0x0,0x10,0x0,0x1F,0xE0,0x0,0x30
	.DB  0x0,0x18,0x0,0x18,0x0,0x18,0x18,0x18
	.DB  0x1C,0x30,0xF,0xE0,0x0,0x0,0x0,0x0
_S_54:
	.DB  0x0,0x0,0x3,0xE0,0x6,0x10,0xC,0x0
	.DB  0x8,0x0,0x18,0x0,0x1F,0xE0,0x1C,0x30
	.DB  0x18,0x18,0x18,0x18,0x18,0x18,0x18,0x18
	.DB  0xC,0x30,0x7,0xE0,0x0,0x0,0x0,0x0
_S_55:
	.DB  0x0,0x0,0x1F,0xF8,0x10,0x18,0x0,0x10
	.DB  0x0,0x20,0x0,0x20,0x0,0x40,0x0,0x40
	.DB  0x0,0x80,0x0,0x80,0x1,0x0,0x1,0x0
	.DB  0x2,0x0,0x2,0x0,0x0,0x0,0x0,0x0
_S_56:
	.DB  0x0,0x0,0x7,0xE0,0xC,0x30,0x8,0x10
	.DB  0x8,0x10,0xC,0x30,0x7,0xE0,0xC,0x30
	.DB  0x18,0x18,0x18,0x18,0x18,0x18,0x18,0x18
	.DB  0xC,0x30,0x7,0xE0,0x0,0x0,0x0,0x0
_S_57:
	.DB  0x0,0x0,0x7,0xE0,0xC,0x30,0x18,0x18
	.DB  0x18,0x18,0x18,0x18,0xC,0x38,0x7,0xF8
	.DB  0x0,0x18,0x0,0x10,0x0,0x20,0x0,0x20
	.DB  0x0,0xC0,0x3,0x0,0x0,0x0,0x0,0x0
_S_32:
	.DB  0x0,0x0,0x0,0x0,0x0,0x0,0x0,0x0
	.DB  0x0,0x0,0x0,0x0,0x0,0x0,0x0,0x0
	.DB  0x0,0x0,0x0,0x0,0x0,0x0,0x0,0x0
	.DB  0x0,0x0,0x0,0x0,0x0,0x0,0x0,0x0
_S_33:
	.DB  0x0,0x0,0x1,0x80,0x1,0x80,0x1,0x80
	.DB  0x1,0x80,0x1,0x80,0x1,0x80,0x1,0x80
	.DB  0x1,0x80,0x1,0x80,0x1,0x80,0x0,0x0
	.DB  0x1,0x80,0x1,0x80,0x0,0x0,0x0,0x0
_S_40:
	.DB  0x0,0x0,0x0,0x60,0x0,0x80,0x1,0x0
	.DB  0x2,0x0,0x2,0x0,0x4,0x0,0x4,0x0
	.DB  0x4,0x0,0x2,0x0,0x2,0x0,0x1,0x0
	.DB  0x0,0x80,0x0,0x60,0x0,0x0,0x0,0x0
_S_41:
	.DB  0x0,0x0,0x6,0x0,0x1,0x0,0x0,0x80
	.DB  0x0,0x40,0x0,0x40,0x0,0x20,0x0,0x20
	.DB  0x0,0x20,0x0,0x40,0x0,0x40,0x0,0x80
	.DB  0x1,0x0,0x6,0x0,0x0,0x0,0x0,0x0
_S_47:
	.DB  0x0,0x0,0x0,0x0,0x0,0x8,0x0,0x18
	.DB  0x0,0x30,0x0,0x60,0x0,0xC0,0x1,0x80
	.DB  0x3,0x0,0x6,0x0,0xC,0x0,0x18,0x0
	.DB  0x10,0x0,0x0,0x0,0x0,0x0,0x0,0x0
_S_43:
	.DB  0x0,0x0,0x0,0x0,0x1,0x80,0x1,0x80
	.DB  0x1,0x80,0x1,0x80,0x1,0x80,0x3F,0xFC
	.DB  0x3F,0xFC,0x1,0x80,0x1,0x80,0x1,0x80
	.DB  0x1,0x80,0x1,0x80,0x0,0x0,0x0,0x0
_S_45:
	.DB  0x0,0x0,0x0,0x0,0x0,0x0,0x0,0x0
	.DB  0x0,0x0,0x0,0x0,0x0,0x0,0x3F,0xFC
	.DB  0x3F,0xFC,0x0,0x0,0x0,0x0,0x0,0x0
	.DB  0x0,0x0,0x0,0x0,0x0,0x0,0x0,0x0
_S_58:
	.DB  0x0,0x0,0x0,0x0,0x0,0x0,0x1,0x80
	.DB  0x1,0x80,0x0,0x0,0x0,0x0,0x0,0x0
	.DB  0x0,0x0,0x0,0x0,0x1,0x80,0x1,0x80
	.DB  0x0,0x0,0x0,0x0,0x0,0x0,0x0,0x0
_S_60:
	.DB  0x0,0x0,0x0,0x30,0x0,0x60,0x0,0xC0
	.DB  0x1,0x80,0x3,0x0,0x6,0x0,0xC,0x0
	.DB  0x6,0x0,0x3,0x0,0x1,0x80,0x0,0xC0
	.DB  0x0,0x60,0x0,0x30,0x0,0x0,0x0,0x0
_S_61:
	.DB  0x0,0x0,0x0,0x0,0x0,0x0,0x0,0x0
	.DB  0xF,0xF0,0xF,0xF0,0x0,0x0,0x0,0x0
	.DB  0x0,0x0,0xF,0xF0,0xF,0xF0,0x0,0x0
	.DB  0x0,0x0,0x0,0x0,0x0,0x0,0x0,0x0
_S_62:
	.DB  0x0,0x0,0xC,0x0,0x6,0x0,0x3,0x0
	.DB  0x1,0x80,0x0,0xC0,0x0,0x60,0x0,0x30
	.DB  0x0,0x60,0x0,0xC0,0x1,0x80,0x3,0x0
	.DB  0x6,0x0,0xC,0x0,0x0,0x0,0x0,0x0
_S_63:
	.DB  0x0,0x0,0x3,0xC0,0x6,0x60,0xC,0x30
	.DB  0xC,0x30,0x4,0x30,0x0,0x60,0x0,0xC0
	.DB  0x1,0x80,0x1,0x80,0x1,0x80,0x0,0x0
	.DB  0x1,0x80,0x1,0x80,0x0,0x0,0x0,0x0
_S_192:
	.DB  0x0,0x0,0x0,0xE0,0x0,0xE0,0x1,0x20
	.DB  0x1,0x20,0x2,0x30,0x2,0x10,0x4,0x10
	.DB  0x4,0x18,0xF,0xF8,0x18,0x18,0x10,0xC
	.DB  0x30,0xC,0x78,0x1E,0x0,0x0,0x0,0x0
_S_193:
	.DB  0x0,0x0,0x7F,0xFE,0x30,0x1E,0x30,0x2
	.DB  0x30,0x0,0x30,0x0,0x3F,0xF8,0x3F,0xFC
	.DB  0x30,0xE,0x30,0x6,0x30,0x6,0x30,0xE
	.DB  0x3F,0xFC,0x7F,0xF8,0x0,0x0,0x0,0x0
_S_194:
	.DB  0x0,0x0,0x7F,0xF0,0x30,0x18,0x30,0xC
	.DB  0x30,0xC,0x30,0x18,0x3F,0xF8,0x3F,0xFC
	.DB  0x30,0xE,0x30,0x6,0x30,0x6,0x30,0xE
	.DB  0x3F,0xFC,0x7F,0xF8,0x0,0x0,0x0,0x0
_S_195:
	.DB  0x0,0x0,0x7F,0xFE,0x30,0x1E,0x30,0x2
	.DB  0x30,0x0,0x30,0x0,0x30,0x0,0x30,0x0
	.DB  0x30,0x0,0x30,0x0,0x30,0x0,0x30,0x0
	.DB  0x30,0x0,0x78,0x0,0x0,0x0,0x0,0x0
_S_196:
	.DB  0x0,0x0,0x3,0xFC,0x1,0x18,0x1,0x18
	.DB  0x1,0x18,0x1,0x18,0x1,0x18,0x1,0x18
	.DB  0x2,0x18,0x4,0x18,0x8,0x18,0x3F,0xFC
	.DB  0x38,0x3C,0x30,0xC,0x20,0x4,0x0,0x0
_S_197:
	.DB  0x0,0x0,0x7F,0xFC,0x30,0x1C,0x30,0x4
	.DB  0x30,0x0,0x30,0x80,0x3F,0x80,0x3F,0x80
	.DB  0x30,0x80,0x30,0x0,0x30,0x0,0x30,0x4
	.DB  0x30,0x1C,0x7F,0xFC,0x0,0x0,0x0,0x0
_S_198:
	.DB  0x0,0x0,0x63,0xC6,0x51,0x8A,0x11,0x88
	.DB  0x9,0x90,0x9,0x90,0x7,0xE0,0x7,0xE0
	.DB  0xD,0xB0,0x19,0x98,0x11,0x88,0x31,0x8C
	.DB  0x21,0x84,0x63,0xC6,0x0,0x0,0x0,0x0
_S_199:
	.DB  0x0,0x0,0xF,0xE0,0x38,0x38,0x60,0xC
	.DB  0x0,0x4,0x0,0xC,0x3,0xF8,0x0,0x8
	.DB  0x0,0x4,0x0,0x6,0x0,0x6,0x60,0xC
	.DB  0x3F,0xF8,0xF,0xE0,0x0,0x0,0x0,0x0
_S_200:
	.DB  0x0,0x0,0x78,0x1E,0x30,0xC,0x30,0x1C
	.DB  0x30,0x3C,0x30,0x6C,0x30,0xCC,0x31,0x8C
	.DB  0x33,0xC,0x36,0xC,0x3C,0xC,0x38,0xC
	.DB  0x30,0xC,0x78,0x1E,0x0,0x0,0x0,0x0
_S_201:
	.DB  0x3,0xC0,0x79,0x9E,0x30,0xC,0x30,0x1C
	.DB  0x30,0x3C,0x30,0x6C,0x30,0xCC,0x31,0x8C
	.DB  0x33,0xC,0x36,0xC,0x3C,0xC,0x38,0xC
	.DB  0x30,0xC,0x78,0x1E,0x0,0x0,0x0,0x0
_S_202:
	.DB  0x0,0x0,0x78,0x3C,0x30,0x6C,0x30,0xC0
	.DB  0x31,0x80,0x33,0x0,0x3F,0x0,0x39,0x80
	.DB  0x30,0xC0,0x30,0x60,0x30,0x30,0x30,0x18
	.DB  0x30,0xC,0x78,0x1E,0x0,0x0,0x0,0x0
_S_203:
	.DB  0x0,0x0,0x1,0xFE,0x0,0x8C,0x0,0x8C
	.DB  0x0,0x8C,0x0,0x8C,0x1,0xC,0x1,0xC
	.DB  0x1,0xC,0x2,0xC,0x2,0xC,0x4,0xC
	.DB  0x68,0xC,0x70,0x1E,0x0,0x0,0x0,0x0
_S_204:
	.DB  0x0,0x0,0x70,0xE,0x38,0x1C,0x38,0x1C
	.DB  0x34,0x2C,0x34,0x2C,0x34,0x2C,0x32,0x4C
	.DB  0x32,0x4C,0x32,0x4C,0x31,0x8C,0x31,0x8C
	.DB  0x31,0x8C,0x78,0x1E,0x0,0x0,0x0,0x0
_S_205:
	.DB  0x0,0x0,0x78,0x1E,0x30,0xC,0x30,0xC
	.DB  0x30,0xC,0x30,0xC,0x3F,0xFC,0x3F,0xFC
	.DB  0x30,0xC,0x30,0xC,0x30,0xC,0x30,0xC
	.DB  0x30,0xC,0x78,0x1E,0x0,0x0,0x0,0x0
_S_206:
	.DB  0x0,0x0,0x7,0xE0,0x1E,0x78,0x38,0x1C
	.DB  0x30,0xC,0x70,0xE,0x70,0xE,0x70,0xE
	.DB  0x70,0xE,0x70,0xE,0x30,0xC,0x38,0x1C
	.DB  0x1E,0x78,0x7,0xE0,0x0,0x0,0x0,0x0
_S_207:
	.DB  0x0,0x0,0x7F,0xFE,0x3F,0xFC,0x30,0xC
	.DB  0x30,0xC,0x30,0xC,0x30,0xC,0x30,0xC
	.DB  0x30,0xC,0x30,0xC,0x30,0xC,0x30,0xC
	.DB  0x30,0xC,0x78,0x1E,0x0,0x0,0x0,0x0
_S_208:
	.DB  0x0,0x0,0x7F,0xF8,0x30,0xC,0x30,0x6
	.DB  0x30,0x6,0x30,0x6,0x30,0xC,0x3F,0xF8
	.DB  0x30,0x0,0x30,0x0,0x30,0x0,0x30,0x0
	.DB  0x30,0x0,0x78,0x0,0x0,0x0,0x0,0x0
_S_209:
	.DB  0x0,0x0,0x7,0xE0,0x1E,0x78,0x38,0x1C
	.DB  0x30,0x4,0x70,0x0,0x70,0x0,0x70,0x0
	.DB  0x70,0x0,0x70,0x0,0x30,0x4,0x38,0x1C
	.DB  0x1E,0x78,0x7,0xE0,0x0,0x0,0x0,0x0
_S_210:
	.DB  0x0,0x0,0x7F,0xFE,0x61,0x86,0x41,0x82
	.DB  0x1,0x80,0x1,0x80,0x1,0x80,0x1,0x80
	.DB  0x1,0x80,0x1,0x80,0x1,0x80,0x1,0x80
	.DB  0x1,0x80,0x3,0xC0,0x0,0x0,0x0,0x0
_S_211:
	.DB  0x0,0x0,0x78,0xE,0x30,0x4,0x18,0x4
	.DB  0xC,0x8,0x6,0x8,0x3,0x10,0x1,0x90
	.DB  0x0,0xE0,0x0,0x60,0x0,0x40,0xC,0x40
	.DB  0xC,0x80,0x7,0x0,0x0,0x0,0x0,0x0
_S_212:
	.DB  0x0,0x0,0x3,0xC0,0x1,0x80,0xF,0xF0
	.DB  0x39,0x9C,0x61,0x86,0x41,0x82,0x41,0x82
	.DB  0x61,0x86,0x39,0x9C,0xF,0xF0,0x1,0x80
	.DB  0x1,0x80,0x3,0xC0,0x0,0x0,0x0,0x0
_S_213:
	.DB  0x0,0x0,0x78,0x1E,0x30,0x4,0x18,0x8
	.DB  0xC,0x10,0x6,0x20,0x3,0x40,0x1,0x80
	.DB  0x2,0xC0,0x4,0x60,0x8,0x30,0x10,0x18
	.DB  0x20,0xC,0x78,0x1E,0x0,0x0,0x0,0x0
_S_214:
	.DB  0x0,0x0,0x78,0x1E,0x30,0xC,0x30,0xC
	.DB  0x30,0xC,0x30,0xC,0x30,0xC,0x30,0xC
	.DB  0x30,0xC,0x30,0xC,0x30,0xC,0x30,0xC
	.DB  0x30,0xC,0x7F,0xFE,0x0,0x6,0x0,0x2
_S_215:
	.DB  0x0,0x0,0x78,0x1E,0x30,0xC,0x30,0xC
	.DB  0x30,0xC,0x30,0xC,0x38,0xC,0x1F,0xFC
	.DB  0x0,0xC,0x0,0xC,0x0,0xC,0x0,0xC
	.DB  0x0,0xC,0x0,0x1E,0x0,0x0,0x0,0x0
_S_216:
	.DB  0x0,0x0,0x7B,0xDE,0x31,0x8C,0x31,0x8C
	.DB  0x31,0x8C,0x31,0x8C,0x31,0x8C,0x31,0x8C
	.DB  0x31,0x8C,0x31,0x8C,0x31,0x8C,0x31,0x8C
	.DB  0x31,0x8C,0x7F,0xFE,0x0,0x0,0x0,0x0
_S_217:
	.DB  0x0,0x0,0x7B,0xDE,0x31,0x8C,0x31,0x8C
	.DB  0x31,0x8C,0x31,0x8C,0x31,0x8C,0x31,0x8C
	.DB  0x31,0x8C,0x31,0x8C,0x31,0x8C,0x31,0x8C
	.DB  0x31,0x8C,0x7F,0xFE,0x0,0x6,0x0,0x2
_S_218:
	.DB  0x0,0x0,0x7C,0x0,0x58,0x0,0x58,0x0
	.DB  0x58,0x0,0x18,0x0,0x18,0x0,0x1F,0xF8
	.DB  0x18,0xC,0x18,0x6,0x18,0x6,0x18,0x6
	.DB  0x18,0xC,0x3F,0xF8,0x0,0x0,0x0,0x0
_S_219:
	.DB  0x0,0x0,0x78,0x1E,0x30,0xC,0x30,0xC
	.DB  0x30,0xC,0x30,0xC,0x30,0xC,0x3F,0x8C
	.DB  0x30,0x4C,0x30,0x2C,0x30,0x2C,0x30,0x2C
	.DB  0x30,0x4C,0x7F,0x9E,0x0,0x0,0x0,0x0
_S_220:
	.DB  0x0,0x0,0x78,0x0,0x30,0x0,0x30,0x0
	.DB  0x30,0x0,0x30,0x0,0x30,0x0,0x3F,0xF8
	.DB  0x30,0xC,0x30,0x6,0x30,0x6,0x30,0x6
	.DB  0x30,0xC,0x7F,0xF8,0x0,0x0,0x0,0x0
_S_221:
	.DB  0x0,0x0,0x7,0xE0,0x1E,0x78,0x38,0x1C
	.DB  0x30,0xC,0x0,0xE,0x0,0xE,0x0,0xFE
	.DB  0x0,0xE,0x0,0xE,0x30,0xC,0x38,0x1C
	.DB  0x1E,0x78,0x7,0xE0,0x0,0x0,0x0,0x0
_S_222:
	.DB  0x0,0x0,0x79,0xF8,0x33,0xC,0x32,0x4
	.DB  0x36,0x6,0x36,0x6,0x36,0x6,0x3E,0x6
	.DB  0x36,0x6,0x36,0x6,0x36,0x6,0x32,0x4
	.DB  0x33,0xC,0x79,0xF8,0x0,0x0,0x0,0x0
_S_223:
	.DB  0x0,0x0,0x3,0xFE,0x6,0xC,0xC,0xC
	.DB  0xC,0xC,0xC,0xC,0x6,0xC,0x3,0xFC
	.DB  0x3,0xC,0x6,0xC,0xC,0xC,0x18,0xC
	.DB  0x30,0xC,0x78,0x1E,0x0,0x0,0x0,0x0
_ConfigParam:
	.DB  0xA,0x0,0xA,0x0,0xA,0x0,0x5,0x0
	.DB  0x5,0x0,0x5,0x0,0x5,0x0,0x5,0x0
	.DB  0x5,0x0,0x5,0x0,0x5,0x0,0x1,0x0
	.DB  0x14,0x0,0x14,0x0,0x14,0x0,0x5,0x0
	.DB  0x5,0x0,0x5,0x0,0x5,0x0,0x5,0x0
	.DB  0x5,0x0,0x5,0x0,0x5,0x0,0x0,0x0
	.DB  0xDC,0x0,0xDC,0x0,0xDC,0x0,0x58,0x2
	.DB  0x58,0x2,0x58,0x2,0x58,0x2,0x58,0x2
	.DB  0x58,0x2,0x58,0x2,0x58,0x2,0x1,0x0
	.DB  0x5A,0x0,0x5A,0x0,0x2D,0x0,0x64,0x0
	.DB  0x64,0x0,0x64,0x0,0x64,0x0,0x64,0x0
	.DB  0x64,0x0,0x64,0x0,0x64,0x0,0x0,0x0
_tbl10_G101:
	.DB  0x10,0x27,0xE8,0x3,0x64,0x0,0xA,0x0
	.DB  0x1,0x0
_tbl16_G101:
	.DB  0x0,0x10,0x0,0x1,0x10,0x0,0x1,0x0

;REGISTER BIT VARIABLES INITIALIZATION
__REG_BIT_VARS:
	.DW  0x0000

_0xFE:
	.DB  0xFA,0xFF
_0x0:
	.DB  0x20,0x20,0x20,0x20,0x20,0x0,0xD1,0xCB
	.DB  0xC5,0xC4,0x0,0x20,0x20,0x2B,0x0,0x20
	.DB  0x20,0x2D,0x0,0xCF,0xC0,0xD3,0xC7,0xC0
	.DB  0x0,0x20,0x20,0x20,0x20,0x20,0x20,0x20
	.DB  0x20,0x20,0x20,0x20,0x20,0x20,0x20,0x20
	.DB  0x20,0x0,0xCD,0xC0,0xCF,0xD0,0xDF,0xC6
	.DB  0xC5,0xCD,0xC8,0xC5,0x0,0xD4,0xC0,0xC7
	.DB  0x0,0xD2,0xCE,0xCA,0x0,0xCD,0xC0,0xCF
	.DB  0xD0,0xDF,0xC6,0xC5,0xCD,0xC8,0xC5,0x20
	.DB  0xC8,0x20,0xD2,0xCE,0xCA,0x0,0xC2,0xCE
	.DB  0xC7,0xC1,0xD3,0xC6,0xC4,0xC5,0xCD,0xC8
	.DB  0xDF,0x0,0xCE,0xC1,0xCD,0x0,0xC0,0xCC
	.DB  0xCF,0x0,0xCF,0xC5,0xD0,0x0,0x20,0xCA
	.DB  0xCD,0x0,0x20,0xCA,0xD2,0x0,0xCA,0xCD
	.DB  0xD2,0x0,0xC1,0xDB,0xD1,0xD2,0xC0,0xD6
	.DB  0xCF,0x0,0xC3,0xD6,0x0,0xCD,0xE0,0xEF
	.DB  0xF0,0xF3,0xE3,0xF3,0x20,0xF3,0xE1,0xE0
	.DB  0xE2,0xFC,0x20,0xA,0x0,0xCD,0xE0,0xEF
	.DB  0xF0,0xF3,0xE3,0xE8,0x20,0xEF,0xF0,0xE8
	.DB  0xE1,0xE0,0xE2,0xFC,0x20,0xA,0x0,0xCF
	.DB  0xEE,0xE4,0xE4,0xE0,0xE9,0x20,0xEE,0xE1
	.DB  0xEE,0xF0,0xEE,0xF2,0xEE,0xE2,0x20,0xA
	.DB  0x0,0xCD,0xE5,0x20,0xE3,0xEE,0xED,0xE8
	.DB  0x2C,0x20,0xEF,0xEE,0xEC,0xE5,0xE4,0xEB
	.DB  0xE5,0xED,0xED,0xE5,0xE5,0x20,0xA,0x0
	.DB  0xCC,0xC5,0xCD,0xDE,0x0,0xCD,0xC0,0xC7
	.DB  0xC0,0xC4,0x0,0xC4,0xC5,0xD1,0xCA,0xCE
	.DB  0xCC,0x0

__GLOBAL_INI_TBL:
	.DW  0x01
	.DW  0x02
	.DW  __REG_BIT_VARS*2

	.DW  0x06
	.DW  _0xF9
	.DW  _0x0*2

	.DW  0x06
	.DW  _0xF9+6
	.DW  _0x0*2

	.DW  0x06
	.DW  _0xF9+12
	.DW  _0x0*2

	.DW  0x06
	.DW  _0xF9+18
	.DW  _0x0*2

	.DW  0x05
	.DW  _0xFD
	.DW  _0x0*2+6

	.DW  0x04
	.DW  _0xFD+5
	.DW  _0x0*2+11

	.DW  0x04
	.DW  _0xFD+9
	.DW  _0x0*2+15

	.DW  0x06
	.DW  _0xFD+13
	.DW  _0x0*2+19

	.DW  0x02
	.DW  _Graph_X
	.DW  _0xFE*2

	.DW  0x11
	.DW  _0x11B
	.DW  _0x0*2+25

	.DW  0x11
	.DW  _0x11B+17
	.DW  _0x0*2+25

	.DW  0x0B
	.DW  _0x11B+34
	.DW  _0x0*2+42

	.DW  0x04
	.DW  _0x11B+45
	.DW  _0x0*2+53

	.DW  0x04
	.DW  _0x11B+49
	.DW  _0x0*2+57

	.DW  0x04
	.DW  _0x11B+53
	.DW  _0x0*2+53

	.DW  0x11
	.DW  _0x11B+57
	.DW  _0x0*2+61

	.DW  0x0C
	.DW  _0x11B+74
	.DW  _0x0*2+78

	.DW  0x04
	.DW  _0x11B+86
	.DW  _0x0*2+90

	.DW  0x04
	.DW  _0x11B+90
	.DW  _0x0*2+94

	.DW  0x04
	.DW  _0x11B+94
	.DW  _0x0*2+98

	.DW  0x04
	.DW  _0x11B+98
	.DW  _0x0*2+102

	.DW  0x04
	.DW  _0x11B+102
	.DW  _0x0*2+106

	.DW  0x04
	.DW  _0x11B+106
	.DW  _0x0*2+110

	.DW  0x08
	.DW  _0x11B+110
	.DW  _0x0*2+114

	.DW  0x0D
	.DW  _0x15B
	.DW  _0x0*2+29

	.DW  0x0D
	.DW  _0x15B+13
	.DW  _0x0*2+29

	.DW  0x03
	.DW  _0x15B+26
	.DW  _0x0*2+122

	.DW  0x05
	.DW  _0x1D3
	.DW  _0x0*2+200

	.DW  0x06
	.DW  _0x1D3+5
	.DW  _0x0*2+205

	.DW  0x06
	.DW  _0x1D3+11
	.DW  _0x0*2+19

	.DW  0x07
	.DW  _0x209
	.DW  _0x0*2+211

	.DW  0x07
	.DW  _0x209+7
	.DW  _0x0*2+211

	.DW  0x07
	.DW  _0x209+14
	.DW  _0x0*2+211

	.DW  0x07
	.DW  _0x209+21
	.DW  _0x0*2+35

	.DW  0x07
	.DW  _0x209+28
	.DW  _0x0*2+35

	.DW  0x07
	.DW  _0x209+35
	.DW  _0x0*2+35

_0xFFFFFFFF:
	.DW  0

__RESET:
	CLI
	CLR  R30
	OUT  EECR,R30

;INTERRUPT VECTORS ARE PLACED
;AT THE START OF FLASH
	LDI  R31,1
	OUT  MCUCR,R31
	OUT  MCUCR,R30
	STS  XMCRB,R30

;DISABLE WATCHDOG
	LDI  R31,0x18
	OUT  WDTCR,R31
	OUT  WDTCR,R30

;CLEAR R2-R14
	LDI  R24,(14-2)+1
	LDI  R26,2
	CLR  R27
__CLEAR_REG:
	ST   X+,R30
	DEC  R24
	BRNE __CLEAR_REG

;CLEAR SRAM
	LDI  R24,LOW(__CLEAR_SRAM_SIZE)
	LDI  R25,HIGH(__CLEAR_SRAM_SIZE)
	LDI  R26,LOW(__SRAM_START)
	LDI  R27,HIGH(__SRAM_START)
__CLEAR_SRAM:
	ST   X+,R30
	SBIW R24,1
	BRNE __CLEAR_SRAM

;GLOBAL VARIABLES INITIALIZATION
	LDI  R30,LOW(__GLOBAL_INI_TBL*2)
	LDI  R31,HIGH(__GLOBAL_INI_TBL*2)
__GLOBAL_INI_NEXT:
	LPM  R24,Z+
	LPM  R25,Z+
	SBIW R24,0
	BREQ __GLOBAL_INI_END
	LPM  R26,Z+
	LPM  R27,Z+
	LPM  R0,Z+
	LPM  R1,Z+
	MOVW R22,R30
	MOVW R30,R0
__GLOBAL_INI_LOOP:
	LPM  R0,Z+
	ST   X+,R0
	SBIW R24,1
	BRNE __GLOBAL_INI_LOOP
	MOVW R30,R22
	RJMP __GLOBAL_INI_NEXT
__GLOBAL_INI_END:

	OUT  RAMPZ,R24

;HARDWARE STACK POINTER INITIALIZATION
	LDI  R30,LOW(__SRAM_END-__HEAP_SIZE)
	OUT  SPL,R30
	LDI  R30,HIGH(__SRAM_END-__HEAP_SIZE)
	OUT  SPH,R30

;DATA STACK POINTER INITIALIZATION
	LDI  R28,LOW(__SRAM_START+__DSTACK_SIZE)
	LDI  R29,HIGH(__SRAM_START+__DSTACK_SIZE)

	JMP  _main

	.ESEG
	.ORG 0

	.DSEG
	.ORG 0x500

	.CSEG
;/*****************************************************
;This program was produced by the
;CodeWizardAVR V2.05.0 Professional
;Automatic Program Generator
;© Copyright 1998-2010 Pavel Haiduc, HP InfoTech s.r.l.
;http://www.hpinfotech.com
;
;Project :
;Version :
;Date    : 29.07.2015
;Author  :
;Company :
;Comments:
;
;
;Chip type               : ATmega128
;Program type            : Application
;AVR Core Clock frequency: 16,000000 MHz
;Memory model            : Small
;External RAM size       : 0
;Data Stack size         : 1024
;*****************************************************/
;
;#include <mega128.h>
	#ifndef __SLEEP_DEFINED__
	#define __SLEEP_DEFINED__
	.EQU __se_bit=0x20
	.EQU __sm_mask=0x1C
	.EQU __sm_powerdown=0x10
	.EQU __sm_powersave=0x18
	.EQU __sm_standby=0x14
	.EQU __sm_ext_standby=0x1C
	.EQU __sm_adc_noise_red=0x08
	.SET power_ctrl_reg=mcucr
	#endif
;#include <delay.h>
;#include "Font16x16.c"
;flash char blank_symb[32] =
;{
;0b00000000, 0b00000000,
;0b00000000, 0b00000000,
;0b00000000, 0b00000000,
;0b00000000, 0b00000000,
;0b00000000, 0b00000000,
;0b00000000, 0b00000000,
;0b00000000, 0b00000000,
;0b00000000, 0b00000000,
;0b00000000, 0b00000000,
;0b00000000, 0b00000000,
;0b00000000, 0b00000000,
;0b00000000, 0b00000000,
;0b00000000, 0b00000000,
;0b00000000, 0b00000000,
;0b00000000, 0b00000000,
;0b00000000, 0b00000000,
;};
;
;flash char S_46[32] =
;{
;0b00000000, 0b00000000,
;0b00000000, 0b00000000,
;0b00000000, 0b00000000,
;0b00000000, 0b00000000,
;0b00000000, 0b00000000,
;0b00000000, 0b00000000,
;0b00000000, 0b00000000,
;0b00000000, 0b00000000,
;0b00000000, 0b00000000,
;0b00000000, 0b00000000,
;0b00000000, 0b00000000,
;0b00000000, 0b00000000,
;0b00000001, 0b10000000,
;0b00000001, 0b10000000,
;0b00000000, 0b00000000,
;0b00000000, 0b00000000,
;};
;
;flash char S_UP[32] =
;{
;0b00000000, 0b00000000,
;0b00000001, 0b10000000,
;0b00000011, 0b11000000,
;0b00000111, 0b11100000,
;0b00000110, 0b01100000,
;0b00001100, 0b00110000,
;0b00001100, 0b00110000,
;0b00011000, 0b00011000,
;0b00011000, 0b00011000,
;0b00110000, 0b00001100,
;0b00110000, 0b00001100,
;0b01100000, 0b00000110,
;0b01100000, 0b00000110,
;0b01111111, 0b11111110,
;0b01111111, 0b11111110,
;0b00000000, 0b00000000,
;};
;
;flash char S_DOWN[32] =
;{
;0b00000000, 0b00000000,
;0b01111111, 0b11111110,
;0b01111111, 0b11111110,
;0b01100000, 0b00000110,
;0b01100000, 0b00000110,
;0b00110000, 0b00001100,
;0b00110000, 0b00001100,
;0b00011000, 0b00011000,
;0b00011000, 0b00011000,
;0b00001100, 0b00110000,
;0b00001100, 0b00110000,
;0b00000110, 0b01100000,
;0b00000111, 0b11100000,
;0b00000011, 0b11000000,
;0b00000001, 0b10000000,
;0b00000000, 0b00000000,
;};
;
;// цифры
;flash char S_48[32] =
;{
;0b00000000, 0b00000000,
;0b00000111, 0b11100000,
;0b00001100, 0b00110000,
;0b00011000, 0b00011000,
;0b00011000, 0b00011000,
;0b00011000, 0b00011000,
;0b00011000, 0b00011000,
;0b00011000, 0b00011000,
;0b00011000, 0b00011000,
;0b00011000, 0b00011000,
;0b00011000, 0b00011000,
;0b00011000, 0b00011000,
;0b00001100, 0b00110000,
;0b00000111, 0b11100000,
;0b00000000, 0b00000000,
;0b00000000, 0b00000000,
;};
;
;flash char S_49[32] =
;{
;0b00000000, 0b00000000,
;0b00000001, 0b10000000,
;0b00000011, 0b10000000,
;0b00000111, 0b10000000,
;0b00000001, 0b10000000,
;0b00000001, 0b10000000,
;0b00000001, 0b10000000,
;0b00000001, 0b10000000,
;0b00000001, 0b10000000,
;0b00000001, 0b10000000,
;0b00000001, 0b10000000,
;0b00000001, 0b10000000,
;0b00000001, 0b10000000,
;0b00000011, 0b11000000,
;0b00000000, 0b00000000,
;0b00000000, 0b00000000,
;};
;
;flash char S_50[32] =
;{
;0b00000000, 0b00000000,
;0b00000111, 0b11100000,
;0b00001100, 0b00110000,
;0b00011000, 0b00011000,
;0b00010000, 0b00001000,
;0b00000000, 0b00011000,
;0b00000000, 0b00110000,
;0b00000000, 0b01100000,
;0b00000000, 0b11000000,
;0b00000001, 0b10000000,
;0b00000011, 0b00000000,
;0b00000110, 0b00000000,
;0b00001100, 0b00011000,
;0b00011111, 0b11111000,
;0b00000000, 0b00000000,
;0b00000000, 0b00000000,
;};
;
;flash char S_51[32] =
;{
;0b00000000, 0b00000000,
;0b00000111, 0b11100000,
;0b00001000, 0b00010000,
;0b00010000, 0b00001000,
;0b00010000, 0b00001000,
;0b00000000, 0b00010000,
;0b00000000, 0b11100000,
;0b00000000, 0b00110000,
;0b00000000, 0b00011000,
;0b00000000, 0b00001000,
;0b00000000, 0b00001000,
;0b00011000, 0b00011000,
;0b00001100, 0b00110000,
;0b00000111, 0b11100000,
;0b00000000, 0b00000000,
;0b00000000, 0b00000000,
;};
;
;flash char S_52[32] =
;{
;0b00000000, 0b00000000,
;0b00000000, 0b00110000,
;0b00000000, 0b01110000,
;0b00000000, 0b11110000,
;0b00000001, 0b10110000,
;0b00000011, 0b00110000,
;0b00000110, 0b00110000,
;0b00001100, 0b00110000,
;0b00011000, 0b00110000,
;0b00011111, 0b11111000,
;0b00000000, 0b00110000,
;0b00000000, 0b00110000,
;0b00000000, 0b00110000,
;0b00000000, 0b01111000,
;0b00000000, 0b00000000,
;0b00000000, 0b00000000,
;};
;
;flash char S_53[32] =
;{
;0b00000000, 0b00000000,
;0b00001111, 0b11111000,
;0b00001111, 0b11110000,
;0b00001000, 0b00000000,
;0b00010000, 0b00000000,
;0b00010000, 0b00000000,
;0b00011111, 0b11100000,
;0b00000000, 0b00110000,
;0b00000000, 0b00011000,
;0b00000000, 0b00011000,
;0b00000000, 0b00011000,
;0b00011000, 0b00011000,
;0b00011100, 0b00110000,
;0b00001111, 0b11100000,
;0b00000000, 0b00000000,
;0b00000000, 0b00000000,
;};
;
;flash char S_54[32] =
;{
;0b00000000, 0b00000000,
;0b00000011, 0b11100000,
;0b00000110, 0b00010000,
;0b00001100, 0b00000000,
;0b00001000, 0b00000000,
;0b00011000, 0b00000000,
;0b00011111, 0b11100000,
;0b00011100, 0b00110000,
;0b00011000, 0b00011000,
;0b00011000, 0b00011000,
;0b00011000, 0b00011000,
;0b00011000, 0b00011000,
;0b00001100, 0b00110000,
;0b00000111, 0b11100000,
;0b00000000, 0b00000000,
;0b00000000, 0b00000000,
;};
;
;flash char S_55[32] =
;{
;0b00000000, 0b00000000,
;0b00011111, 0b11111000,
;0b00010000, 0b00011000,
;0b00000000, 0b00010000,
;0b00000000, 0b00100000,
;0b00000000, 0b00100000,
;0b00000000, 0b01000000,
;0b00000000, 0b01000000,
;0b00000000, 0b10000000,
;0b00000000, 0b10000000,
;0b00000001, 0b00000000,
;0b00000001, 0b00000000,
;0b00000010, 0b00000000,
;0b00000010, 0b00000000,
;0b00000000, 0b00000000,
;0b00000000, 0b00000000,
;};
;
;flash char S_56[32] =
;{
;0b00000000, 0b00000000,
;0b00000111, 0b11100000,
;0b00001100, 0b00110000,
;0b00001000, 0b00010000,
;0b00001000, 0b00010000,
;0b00001100, 0b00110000,
;0b00000111, 0b11100000,
;0b00001100, 0b00110000,
;0b00011000, 0b00011000,
;0b00011000, 0b00011000,
;0b00011000, 0b00011000,
;0b00011000, 0b00011000,
;0b00001100, 0b00110000,
;0b00000111, 0b11100000,
;0b00000000, 0b00000000,
;0b00000000, 0b00000000,
;};
;
;flash char S_57[32] =
;{
;0b00000000, 0b00000000,
;0b00000111, 0b11100000,
;0b00001100, 0b00110000,
;0b00011000, 0b00011000,
;0b00011000, 0b00011000,
;0b00011000, 0b00011000,
;0b00001100, 0b00111000,
;0b00000111, 0b11111000,
;0b00000000, 0b00011000,
;0b00000000, 0b00010000,
;0b00000000, 0b00100000,
;0b00000000, 0b00100000,
;0b00000000, 0b11000000,
;0b00000011, 0b00000000,
;0b00000000, 0b00000000,
;0b00000000, 0b00000000,
;};
;
;// спец символы
;flash char S_32[32] =
;{
;0b00000000, 0b00000000,
;0b00000000, 0b00000000,
;0b00000000, 0b00000000,
;0b00000000, 0b00000000,
;0b00000000, 0b00000000,
;0b00000000, 0b00000000,
;0b00000000, 0b00000000,
;0b00000000, 0b00000000,
;0b00000000, 0b00000000,
;0b00000000, 0b00000000,
;0b00000000, 0b00000000,
;0b00000000, 0b00000000,
;0b00000000, 0b00000000,
;0b00000000, 0b00000000,
;0b00000000, 0b00000000,
;0b00000000, 0b00000000,
;};
;
;flash char S_33[32] =
;{
;0b00000000, 0b00000000,
;0b00000001, 0b10000000,
;0b00000001, 0b10000000,
;0b00000001, 0b10000000,
;0b00000001, 0b10000000,
;0b00000001, 0b10000000,
;0b00000001, 0b10000000,
;0b00000001, 0b10000000,
;0b00000001, 0b10000000,
;0b00000001, 0b10000000,
;0b00000001, 0b10000000,
;0b00000000, 0b00000000,
;0b00000001, 0b10000000,
;0b00000001, 0b10000000,
;0b00000000, 0b00000000,
;0b00000000, 0b00000000,
;};
;
;flash char S_40[32] =
;{
;0b00000000, 0b00000000,
;0b00000000, 0b01100000,
;0b00000000, 0b10000000,
;0b00000001, 0b00000000,
;0b00000010, 0b00000000,
;0b00000010, 0b00000000,
;0b00000100, 0b00000000,
;0b00000100, 0b00000000,
;0b00000100, 0b00000000,
;0b00000010, 0b00000000,
;0b00000010, 0b00000000,
;0b00000001, 0b00000000,
;0b00000000, 0b10000000,
;0b00000000, 0b01100000,
;0b00000000, 0b00000000,
;0b00000000, 0b00000000,
;};
;
;flash char S_41[32] =
;{
;0b00000000, 0b00000000,
;0b00000110, 0b00000000,
;0b00000001, 0b00000000,
;0b00000000, 0b10000000,
;0b00000000, 0b01000000,
;0b00000000, 0b01000000,
;0b00000000, 0b00100000,
;0b00000000, 0b00100000,
;0b00000000, 0b00100000,
;0b00000000, 0b01000000,
;0b00000000, 0b01000000,
;0b00000000, 0b10000000,
;0b00000001, 0b00000000,
;0b00000110, 0b00000000,
;0b00000000, 0b00000000,
;0b00000000, 0b00000000,
;};
;
;flash char S_47[32] =
;{
;0b00000000, 0b00000000,
;0b00000000, 0b00000000,
;0b00000000, 0b00001000,
;0b00000000, 0b00011000,
;0b00000000, 0b00110000,
;0b00000000, 0b01100000,
;0b00000000, 0b11000000,
;0b00000001, 0b10000000,
;0b00000011, 0b00000000,
;0b00000110, 0b00000000,
;0b00001100, 0b00000000,
;0b00011000, 0b00000000,
;0b00010000, 0b00000000,
;0b00000000, 0b00000000,
;0b00000000, 0b00000000,
;0b00000000, 0b00000000,
;};
;
;flash char S_43[32] =
;{
;0b00000000, 0b00000000,
;0b00000000, 0b00000000,
;0b00000001, 0b10000000,
;0b00000001, 0b10000000,
;0b00000001, 0b10000000,
;0b00000001, 0b10000000,
;0b00000001, 0b10000000,
;0b00111111, 0b11111100,
;0b00111111, 0b11111100,
;0b00000001, 0b10000000,
;0b00000001, 0b10000000,
;0b00000001, 0b10000000,
;0b00000001, 0b10000000,
;0b00000001, 0b10000000,
;0b00000000, 0b00000000,
;0b00000000, 0b00000000,
;};
;
;flash char S_45[32] =
;{
;0b00000000, 0b00000000,
;0b00000000, 0b00000000,
;0b00000000, 0b00000000,
;0b00000000, 0b00000000,
;0b00000000, 0b00000000,
;0b00000000, 0b00000000,
;0b00000000, 0b00000000,
;0b00111111, 0b11111100,
;0b00111111, 0b11111100,
;0b00000000, 0b00000000,
;0b00000000, 0b00000000,
;0b00000000, 0b00000000,
;0b00000000, 0b00000000,
;0b00000000, 0b00000000,
;0b00000000, 0b00000000,
;0b00000000, 0b00000000,
;};
;
;flash char S_58[32] =
;{
;0b00000000, 0b00000000,
;0b00000000, 0b00000000,
;0b00000000, 0b00000000,
;0b00000001, 0b10000000,
;0b00000001, 0b10000000,
;0b00000000, 0b00000000,
;0b00000000, 0b00000000,
;0b00000000, 0b00000000,
;0b00000000, 0b00000000,
;0b00000000, 0b00000000,
;0b00000001, 0b10000000,
;0b00000001, 0b10000000,
;0b00000000, 0b00000000,
;0b00000000, 0b00000000,
;0b00000000, 0b00000000,
;0b00000000, 0b00000000,
;};
;
;flash char S_60[32] =
;{
;0b00000000, 0b00000000,
;0b00000000, 0b00110000,
;0b00000000, 0b01100000,
;0b00000000, 0b11000000,
;0b00000001, 0b10000000,
;0b00000011, 0b00000000,
;0b00000110, 0b00000000,
;0b00001100, 0b00000000,
;0b00000110, 0b00000000,
;0b00000011, 0b00000000,
;0b00000001, 0b10000000,
;0b00000000, 0b11000000,
;0b00000000, 0b01100000,
;0b00000000, 0b00110000,
;0b00000000, 0b00000000,
;0b00000000, 0b00000000,
;};
;
;flash char S_61[32] =
;{
;0b00000000, 0b00000000,
;0b00000000, 0b00000000,
;0b00000000, 0b00000000,
;0b00000000, 0b00000000,
;0b00001111, 0b11110000,
;0b00001111, 0b11110000,
;0b00000000, 0b00000000,
;0b00000000, 0b00000000,
;0b00000000, 0b00000000,
;0b00001111, 0b11110000,
;0b00001111, 0b11110000,
;0b00000000, 0b00000000,
;0b00000000, 0b00000000,
;0b00000000, 0b00000000,
;0b00000000, 0b00000000,
;0b00000000, 0b00000000,
;};
;
;flash char S_62[32] =
;{
;0b00000000, 0b00000000,
;0b00001100, 0b00000000,
;0b00000110, 0b00000000,
;0b00000011, 0b00000000,
;0b00000001, 0b10000000,
;0b00000000, 0b11000000,
;0b00000000, 0b01100000,
;0b00000000, 0b00110000,
;0b00000000, 0b01100000,
;0b00000000, 0b11000000,
;0b00000001, 0b10000000,
;0b00000011, 0b00000000,
;0b00000110, 0b00000000,
;0b00001100, 0b00000000,
;0b00000000, 0b00000000,
;0b00000000, 0b00000000,
;};
;
;flash char S_63[32] =
;{
;0b00000000, 0b00000000,
;0b00000011, 0b11000000,
;0b00000110, 0b01100000,
;0b00001100, 0b00110000,
;0b00001100, 0b00110000,
;0b00000100, 0b00110000,
;0b00000000, 0b01100000,
;0b00000000, 0b11000000,
;0b00000001, 0b10000000,
;0b00000001, 0b10000000,
;0b00000001, 0b10000000,
;0b00000000, 0b00000000,
;0b00000001, 0b10000000,
;0b00000001, 0b10000000,
;0b00000000, 0b00000000,
;0b00000000, 0b00000000,
;};
;
;// русские заглавные буквы
;flash char S_192[32] =
;{
;0b00000000, 0b00000000,
;0b00000000, 0b11100000,
;0b00000000, 0b11100000,
;0b00000001, 0b00100000,
;0b00000001, 0b00100000,
;0b00000010, 0b00110000,
;0b00000010, 0b00010000,
;0b00000100, 0b00010000,
;0b00000100, 0b00011000,
;0b00001111, 0b11111000,
;0b00011000, 0b00011000,
;0b00010000, 0b00001100,
;0b00110000, 0b00001100,
;0b01111000, 0b00011110,
;0b00000000, 0b00000000,
;0b00000000, 0b00000000,
;};
;
;flash char S_193[32] =
;{
;0b00000000, 0b00000000,
;0b01111111, 0b11111110,
;0b00110000, 0b00011110,
;0b00110000, 0b00000010,
;0b00110000, 0b00000000,
;0b00110000, 0b00000000,
;0b00111111, 0b11111000,
;0b00111111, 0b11111100,
;0b00110000, 0b00001110,
;0b00110000, 0b00000110,
;0b00110000, 0b00000110,
;0b00110000, 0b00001110,
;0b00111111, 0b11111100,
;0b01111111, 0b11111000,
;0b00000000, 0b00000000,
;0b00000000, 0b00000000,
;};
;
;flash char S_194[32] =
;{
;0b00000000, 0b00000000,
;0b01111111, 0b11110000,
;0b00110000, 0b00011000,
;0b00110000, 0b00001100,
;0b00110000, 0b00001100,
;0b00110000, 0b00011000,
;0b00111111, 0b11111000,
;0b00111111, 0b11111100,
;0b00110000, 0b00001110,
;0b00110000, 0b00000110,
;0b00110000, 0b00000110,
;0b00110000, 0b00001110,
;0b00111111, 0b11111100,
;0b01111111, 0b11111000,
;0b00000000, 0b00000000,
;0b00000000, 0b00000000,
;};
;
;flash char S_195[32] =
;{
;0b00000000, 0b00000000,
;0b01111111, 0b11111110,
;0b00110000, 0b00011110,
;0b00110000, 0b00000010,
;0b00110000, 0b00000000,
;0b00110000, 0b00000000,
;0b00110000, 0b00000000,
;0b00110000, 0b00000000,
;0b00110000, 0b00000000,
;0b00110000, 0b00000000,
;0b00110000, 0b00000000,
;0b00110000, 0b00000000,
;0b00110000, 0b00000000,
;0b01111000, 0b00000000,
;0b00000000, 0b00000000,
;0b00000000, 0b00000000,
;};
;
;flash char S_196[32] =
;{
;0b00000000, 0b00000000,
;0b00000011, 0b11111100,
;0b00000001, 0b00011000,
;0b00000001, 0b00011000,
;0b00000001, 0b00011000,
;0b00000001, 0b00011000,
;0b00000001, 0b00011000,
;0b00000001, 0b00011000,
;0b00000010, 0b00011000,
;0b00000100, 0b00011000,
;0b00001000, 0b00011000,
;0b00111111, 0b11111100,
;0b00111000, 0b00111100,
;0b00110000, 0b00001100,
;0b00100000, 0b00000100,
;0b00000000, 0b00000000,
;};
;
;flash char S_197[32] =
;{
;0b00000000, 0b00000000,
;0b01111111, 0b11111100,
;0b00110000, 0b00011100,
;0b00110000, 0b00000100,
;0b00110000, 0b00000000,
;0b00110000, 0b10000000,
;0b00111111, 0b10000000,
;0b00111111, 0b10000000,
;0b00110000, 0b10000000,
;0b00110000, 0b00000000,
;0b00110000, 0b00000000,
;0b00110000, 0b00000100,
;0b00110000, 0b00011100,
;0b01111111, 0b11111100,
;0b00000000, 0b00000000,
;0b00000000, 0b00000000,
;};
;
;flash char S_198[32] =
;{
;0b00000000, 0b00000000,
;0b01100011, 0b11000110,
;0b01010001, 0b10001010,
;0b00010001, 0b10001000,
;0b00001001, 0b10010000,
;0b00001001, 0b10010000,
;0b00000111, 0b11100000,
;0b00000111, 0b11100000,
;0b00001101, 0b10110000,
;0b00011001, 0b10011000,
;0b00010001, 0b10001000,
;0b00110001, 0b10001100,
;0b00100001, 0b10000100,
;0b01100011, 0b11000110,
;0b00000000, 0b00000000,
;0b00000000, 0b00000000,
;};
;
;flash char S_199[32] =
;{
;0b00000000, 0b00000000,
;0b00001111, 0b11100000,
;0b00111000, 0b00111000,
;0b01100000, 0b00001100,
;0b00000000, 0b00000100,
;0b00000000, 0b00001100,
;0b00000011, 0b11111000,
;0b00000000, 0b00001000,
;0b00000000, 0b00000100,
;0b00000000, 0b00000110,
;0b00000000, 0b00000110,
;0b01100000, 0b00001100,
;0b00111111, 0b11111000,
;0b00001111, 0b11100000,
;0b00000000, 0b00000000,
;0b00000000, 0b00000000,
;};
;
;flash char S_200[32] =
;{
;0b00000000, 0b00000000,
;0b01111000, 0b00011110,
;0b00110000, 0b00001100,
;0b00110000, 0b00011100,
;0b00110000, 0b00111100,
;0b00110000, 0b01101100,
;0b00110000, 0b11001100,
;0b00110001, 0b10001100,
;0b00110011, 0b00001100,
;0b00110110, 0b00001100,
;0b00111100, 0b00001100,
;0b00111000, 0b00001100,
;0b00110000, 0b00001100,
;0b01111000, 0b00011110,
;0b00000000, 0b00000000,
;0b00000000, 0b00000000,
;};
;
;flash char S_201[32] =
;{
;0b00000011, 0b11000000,
;0b01111001, 0b10011110,
;0b00110000, 0b00001100,
;0b00110000, 0b00011100,
;0b00110000, 0b00111100,
;0b00110000, 0b01101100,
;0b00110000, 0b11001100,
;0b00110001, 0b10001100,
;0b00110011, 0b00001100,
;0b00110110, 0b00001100,
;0b00111100, 0b00001100,
;0b00111000, 0b00001100,
;0b00110000, 0b00001100,
;0b01111000, 0b00011110,
;0b00000000, 0b00000000,
;0b00000000, 0b00000000,
;};
;
;flash char S_202[32] =
;{
;0b00000000, 0b00000000,
;0b01111000, 0b00111100,
;0b00110000, 0b01101100,
;0b00110000, 0b11000000,
;0b00110001, 0b10000000,
;0b00110011, 0b00000000,
;0b00111111, 0b00000000,
;0b00111001, 0b10000000,
;0b00110000, 0b11000000,
;0b00110000, 0b01100000,
;0b00110000, 0b00110000,
;0b00110000, 0b00011000,
;0b00110000, 0b00001100,
;0b01111000, 0b00011110,
;0b00000000, 0b00000000,
;0b00000000, 0b00000000,
;};
;
;flash char S_203[32] =
;{
;0b00000000, 0b00000000,
;0b00000001, 0b11111110,
;0b00000000, 0b10001100,
;0b00000000, 0b10001100,
;0b00000000, 0b10001100,
;0b00000000, 0b10001100,
;0b00000001, 0b00001100,
;0b00000001, 0b00001100,
;0b00000001, 0b00001100,
;0b00000010, 0b00001100,
;0b00000010, 0b00001100,
;0b00000100, 0b00001100,
;0b01101000, 0b00001100,
;0b01110000, 0b00011110,
;0b00000000, 0b00000000,
;0b00000000, 0b00000000,
;};
;
;flash char S_204[32] =
;{
;0b00000000, 0b00000000,
;0b01110000, 0b00001110,
;0b00111000, 0b00011100,
;0b00111000, 0b00011100,
;0b00110100, 0b00101100,
;0b00110100, 0b00101100,
;0b00110100, 0b00101100,
;0b00110010, 0b01001100,
;0b00110010, 0b01001100,
;0b00110010, 0b01001100,
;0b00110001, 0b10001100,
;0b00110001, 0b10001100,
;0b00110001, 0b10001100,
;0b01111000, 0b00011110,
;0b00000000, 0b00000000,
;0b00000000, 0b00000000,
;};
;
;flash char S_205[32] =
;{
;0b00000000, 0b00000000,
;0b01111000, 0b00011110,
;0b00110000, 0b00001100,
;0b00110000, 0b00001100,
;0b00110000, 0b00001100,
;0b00110000, 0b00001100,
;0b00111111, 0b11111100,
;0b00111111, 0b11111100,
;0b00110000, 0b00001100,
;0b00110000, 0b00001100,
;0b00110000, 0b00001100,
;0b00110000, 0b00001100,
;0b00110000, 0b00001100,
;0b01111000, 0b00011110,
;0b00000000, 0b00000000,
;0b00000000, 0b00000000,
;};
;
;flash char S_206[32] =
;{
;0b00000000, 0b00000000,
;0b00000111, 0b11100000,
;0b00011110, 0b01111000,
;0b00111000, 0b00011100,
;0b00110000, 0b00001100,
;0b01110000, 0b00001110,
;0b01110000, 0b00001110,
;0b01110000, 0b00001110,
;0b01110000, 0b00001110,
;0b01110000, 0b00001110,
;0b00110000, 0b00001100,
;0b00111000, 0b00011100,
;0b00011110, 0b01111000,
;0b00000111, 0b11100000,
;0b00000000, 0b00000000,
;0b00000000, 0b00000000,
;};
;
;flash char S_207[32] =
;{
;0b00000000, 0b00000000,
;0b01111111, 0b11111110,
;0b00111111, 0b11111100,
;0b00110000, 0b00001100,
;0b00110000, 0b00001100,
;0b00110000, 0b00001100,
;0b00110000, 0b00001100,
;0b00110000, 0b00001100,
;0b00110000, 0b00001100,
;0b00110000, 0b00001100,
;0b00110000, 0b00001100,
;0b00110000, 0b00001100,
;0b00110000, 0b00001100,
;0b01111000, 0b00011110,
;0b00000000, 0b00000000,
;0b00000000, 0b00000000,
;};
;
;flash char S_208[32] =
;{
;0b00000000, 0b00000000,
;0b01111111, 0b11111000,
;0b00110000, 0b00001100,
;0b00110000, 0b00000110,
;0b00110000, 0b00000110,
;0b00110000, 0b00000110,
;0b00110000, 0b00001100,
;0b00111111, 0b11111000,
;0b00110000, 0b00000000,
;0b00110000, 0b00000000,
;0b00110000, 0b00000000,
;0b00110000, 0b00000000,
;0b00110000, 0b00000000,
;0b01111000, 0b00000000,
;0b00000000, 0b00000000,
;0b00000000, 0b00000000,
;};
;
;flash char S_209[32] =
;{
;0b00000000, 0b00000000,
;0b00000111, 0b11100000,
;0b00011110, 0b01111000,
;0b00111000, 0b00011100,
;0b00110000, 0b00000100,
;0b01110000, 0b00000000,
;0b01110000, 0b00000000,
;0b01110000, 0b00000000,
;0b01110000, 0b00000000,
;0b01110000, 0b00000000,
;0b00110000, 0b00000100,
;0b00111000, 0b00011100,
;0b00011110, 0b01111000,
;0b00000111, 0b11100000,
;0b00000000, 0b00000000,
;0b00000000, 0b00000000,
;};
;
;flash char S_210[32] =
;{
;0b00000000, 0b00000000,
;0b01111111, 0b11111110,
;0b01100001, 0b10000110,
;0b01000001, 0b10000010,
;0b00000001, 0b10000000,
;0b00000001, 0b10000000,
;0b00000001, 0b10000000,
;0b00000001, 0b10000000,
;0b00000001, 0b10000000,
;0b00000001, 0b10000000,
;0b00000001, 0b10000000,
;0b00000001, 0b10000000,
;0b00000001, 0b10000000,
;0b00000011, 0b11000000,
;0b00000000, 0b00000000,
;0b00000000, 0b00000000,
;};
;
;flash char S_211[32] =
;{
;0b00000000, 0b00000000,
;0b01111000, 0b00001110,
;0b00110000, 0b00000100,
;0b00011000, 0b00000100,
;0b00001100, 0b00001000,
;0b00000110, 0b00001000,
;0b00000011, 0b00010000,
;0b00000001, 0b10010000,
;0b00000000, 0b11100000,
;0b00000000, 0b01100000,
;0b00000000, 0b01000000,
;0b00001100, 0b01000000,
;0b00001100, 0b10000000,
;0b00000111, 0b00000000,
;0b00000000, 0b00000000,
;0b00000000, 0b00000000,
;};
;
;flash char S_212[32] =
;{
;0b00000000, 0b00000000,
;0b00000011, 0b11000000,
;0b00000001, 0b10000000,
;0b00001111, 0b11110000,
;0b00111001, 0b10011100,
;0b01100001, 0b10000110,
;0b01000001, 0b10000010,
;0b01000001, 0b10000010,
;0b01100001, 0b10000110,
;0b00111001, 0b10011100,
;0b00001111, 0b11110000,
;0b00000001, 0b10000000,
;0b00000001, 0b10000000,
;0b00000011, 0b11000000,
;0b00000000, 0b00000000,
;0b00000000, 0b00000000,
;};
;
;flash char S_213[32] =
;{
;0b00000000, 0b00000000,
;0b01111000, 0b00011110,
;0b00110000, 0b00000100,
;0b00011000, 0b00001000,
;0b00001100, 0b00010000,
;0b00000110, 0b00100000,
;0b00000011, 0b01000000,
;0b00000001, 0b10000000,
;0b00000010, 0b11000000,
;0b00000100, 0b01100000,
;0b00001000, 0b00110000,
;0b00010000, 0b00011000,
;0b00100000, 0b00001100,
;0b01111000, 0b00011110,
;0b00000000, 0b00000000,
;0b00000000, 0b00000000,
;};
;
;flash char S_214[32] =
;{
;0b00000000, 0b00000000,
;0b01111000, 0b00011110,
;0b00110000, 0b00001100,
;0b00110000, 0b00001100,
;0b00110000, 0b00001100,
;0b00110000, 0b00001100,
;0b00110000, 0b00001100,
;0b00110000, 0b00001100,
;0b00110000, 0b00001100,
;0b00110000, 0b00001100,
;0b00110000, 0b00001100,
;0b00110000, 0b00001100,
;0b00110000, 0b00001100,
;0b01111111, 0b11111110,
;0b00000000, 0b00000110,
;0b00000000, 0b00000010,
;};
;
;flash char S_215[32] =
;{
;0b00000000, 0b00000000,
;0b01111000, 0b00011110,
;0b00110000, 0b00001100,
;0b00110000, 0b00001100,
;0b00110000, 0b00001100,
;0b00110000, 0b00001100,
;0b00111000, 0b00001100,
;0b00011111, 0b11111100,
;0b00000000, 0b00001100,
;0b00000000, 0b00001100,
;0b00000000, 0b00001100,
;0b00000000, 0b00001100,
;0b00000000, 0b00001100,
;0b00000000, 0b00011110,
;0b00000000, 0b00000000,
;0b00000000, 0b00000000,
;};
;
;flash char S_216[32] =
;{
;0b00000000, 0b00000000,
;0b01111011, 0b11011110,
;0b00110001, 0b10001100,
;0b00110001, 0b10001100,
;0b00110001, 0b10001100,
;0b00110001, 0b10001100,
;0b00110001, 0b10001100,
;0b00110001, 0b10001100,
;0b00110001, 0b10001100,
;0b00110001, 0b10001100,
;0b00110001, 0b10001100,
;0b00110001, 0b10001100,
;0b00110001, 0b10001100,
;0b01111111, 0b11111110,
;0b00000000, 0b00000000,
;0b00000000, 0b00000000,
;};
;
;flash char S_217[32] =
;{
;0b00000000, 0b00000000,
;0b01111011, 0b11011110,
;0b00110001, 0b10001100,
;0b00110001, 0b10001100,
;0b00110001, 0b10001100,
;0b00110001, 0b10001100,
;0b00110001, 0b10001100,
;0b00110001, 0b10001100,
;0b00110001, 0b10001100,
;0b00110001, 0b10001100,
;0b00110001, 0b10001100,
;0b00110001, 0b10001100,
;0b00110001, 0b10001100,
;0b01111111, 0b11111110,
;0b00000000, 0b00000110,
;0b00000000, 0b00000010,
;};
;
;flash char S_218[32] =
;{
;0b00000000, 0b00000000,
;0b01111100, 0b00000000,
;0b01011000, 0b00000000,
;0b01011000, 0b00000000,
;0b01011000, 0b00000000,
;0b00011000, 0b00000000,
;0b00011000, 0b00000000,
;0b00011111, 0b11111000,
;0b00011000, 0b00001100,
;0b00011000, 0b00000110,
;0b00011000, 0b00000110,
;0b00011000, 0b00000110,
;0b00011000, 0b00001100,
;0b00111111, 0b11111000,
;0b00000000, 0b00000000,
;0b00000000, 0b00000000,
;};
;
;flash char S_219[32] =
;{
;0b00000000, 0b00000000,
;0b01111000, 0b00011110,
;0b00110000, 0b00001100,
;0b00110000, 0b00001100,
;0b00110000, 0b00001100,
;0b00110000, 0b00001100,
;0b00110000, 0b00001100,
;0b00111111, 0b10001100,
;0b00110000, 0b01001100,
;0b00110000, 0b00101100,
;0b00110000, 0b00101100,
;0b00110000, 0b00101100,
;0b00110000, 0b01001100,
;0b01111111, 0b10011110,
;0b00000000, 0b00000000,
;0b00000000, 0b00000000,
;};
;
;flash char S_220[32] =
;{
;0b00000000, 0b00000000,
;0b01111000, 0b00000000,
;0b00110000, 0b00000000,
;0b00110000, 0b00000000,
;0b00110000, 0b00000000,
;0b00110000, 0b00000000,
;0b00110000, 0b00000000,
;0b00111111, 0b11111000,
;0b00110000, 0b00001100,
;0b00110000, 0b00000110,
;0b00110000, 0b00000110,
;0b00110000, 0b00000110,
;0b00110000, 0b00001100,
;0b01111111, 0b11111000,
;0b00000000, 0b00000000,
;0b00000000, 0b00000000,
;};
;
;flash char S_221[32] =
;{
;0b00000000, 0b00000000,
;0b00000111, 0b11100000,
;0b00011110, 0b01111000,
;0b00111000, 0b00011100,
;0b00110000, 0b00001100,
;0b00000000, 0b00001110,
;0b00000000, 0b00001110,
;0b00000000, 0b11111110,
;0b00000000, 0b00001110,
;0b00000000, 0b00001110,
;0b00110000, 0b00001100,
;0b00111000, 0b00011100,
;0b00011110, 0b01111000,
;0b00000111, 0b11100000,
;0b00000000, 0b00000000,
;0b00000000, 0b00000000,
;};
;
;flash char S_222[32] =
;{
;0b00000000, 0b00000000,
;0b01111001, 0b11111000,
;0b00110011, 0b00001100,
;0b00110010, 0b00000100,
;0b00110110, 0b00000110,
;0b00110110, 0b00000110,
;0b00110110, 0b00000110,
;0b00111110, 0b00000110,
;0b00110110, 0b00000110,
;0b00110110, 0b00000110,
;0b00110110, 0b00000110,
;0b00110010, 0b00000100,
;0b00110011, 0b00001100,
;0b01111001, 0b11111000,
;0b00000000, 0b00000000,
;0b00000000, 0b00000000,
;};
;
;flash char S_223[32] =
;{
;0b00000000, 0b00000000,
;0b00000011, 0b11111110,
;0b00000110, 0b00001100,
;0b00001100, 0b00001100,
;0b00001100, 0b00001100,
;0b00001100, 0b00001100,
;0b00000110, 0b00001100,
;0b00000011, 0b11111100,
;0b00000011, 0b00001100,
;0b00000110, 0b00001100,
;0b00001100, 0b00001100,
;0b00011000, 0b00001100,
;0b00110000, 0b00001100,
;0b01111000, 0b00011110,
;0b00000000, 0b00000000,
;0b00000000, 0b00000000,
;};
;
;
;
;#include "SSD1963.c"
;#define flipState       0x03
;#define DISP_WIDTH      480
;#define DISP_HEIGHT     272
;
;#define HDP    (DISP_WIDTH - 1)
;#define HT     900
;#define HPS    90
;#define LPS    8
;#define HPW    10
;
;#define VDP    (DISP_HEIGHT - 1)
;#define VT     300
;#define VPS    12
;#define FPS    4
;#define VPW    10
;
;#define SSD1963_SET_COLUMN_ADDRESS 0x2A
;#define SSD1963_SET_PAGE_ADDRESS 0x2B
;
;// цвет определяется по системе RGB565
;// у пульта лебёдчика идёт всё запутанно
;// вместо 0bRRRRRGGGGGGBBBBB
;// 0bGGGRRRRRBBBBBGGG
;
;// 0bRRRRR GGGGGG BBBBB
;// 0b01111 011111 01111
;
;// 0bGGGRRRRRBBBBBGGG
;// 0b0010000100001000
;#define   BLACK        0x0000
;#define   NAVY         0b111100000000000
;#define   DGREEN       0x03E0
;#define   DCYAN        0x03EF
;#define   MAROON       0x7800
;#define   PURPLE       0x780F
;#define   OLIVE        0x7BE0
;#define   GREY         0xF7DE
;#define   LGRAY        0xC618
;#define   DGRAY        0b0010000100001000
;#define   BLUE         0b0000000011111000
;#define   GREEN        0b1110000000000111
;#define   CYAN         0x07FF
;#define   RED          0b0001111100000000
;#define   MAGENTA      0xF81F
;#define   YELLOW       0b1111111100000111
;#define   WHITE        0xFFFF
;
;#define  SSD1963_RS     PORTD.7
;#define  SSD1963_WR     PORTD.6
;#define  SSD1963_RD     PORTD.5
;#define  SSD1963_CS     PORTE.7
;#define  SSD1963_RESET  PORTE.5
;#define  SSD1963_PORT1  PORTA
;#define  SSD1963_PORT2  PORTC
;
;#define  BACKGROUND_COLOR 0x0000
;#define  FONT_WIDTH 16
;#define  FONT_HEIGHT 16
;
;void SSD1963_PortInit(void)
; 0000 001B {

	.CSEG
_SSD1963_PortInit:
;    //SSD1963_PORT
;    DDRA = 0xFF;
	LDI  R30,LOW(255)
	OUT  0x1A,R30
;    DDRC = 0xFF;
	OUT  0x14,R30
;    //SSD1963 76543210
;    DDRD |= 0b11100000;
	IN   R30,0x11
	ORI  R30,LOW(0xE0)
	OUT  0x11,R30
;    DDRE |= 0b10100000;
	IN   R30,0x2
	ORI  R30,LOW(0xA0)
	OUT  0x2,R30
;}
	RET
;
;#pragma used+
;
;unsigned char RotateByte(unsigned char Value)
;{
_RotateByte:
;  //Value = RotationByte[Value];
;  Value = ((Value >> 1) & 0x55) | ((Value << 1) & 0xaa);
;	Value -> Y+0
	CALL SUBOPT_0x0
	ASR  R31
	ROR  R30
	ANDI R30,LOW(0x55)
	MOV  R26,R30
	LD   R30,Y
	LSL  R30
	ANDI R30,LOW(0xAA)
	OR   R30,R26
	ST   Y,R30
;  Value = ((Value >> 2) & 0x33) | ((Value << 2) & 0xcc);
	CALL SUBOPT_0x0
	CALL __ASRW2
	ANDI R30,LOW(0x33)
	MOV  R26,R30
	LD   R30,Y
	LSL  R30
	LSL  R30
	ANDI R30,LOW(0xCC)
	OR   R30,R26
	ST   Y,R30
;  Value = ((Value >> 4) & 0x0f) | ((Value << 4) & 0xf0);
	CALL SUBOPT_0x0
	CALL __ASRW4
	ANDI R30,LOW(0xF)
	MOV  R26,R30
	LD   R30,Y
	SWAP R30
	ANDI R30,LOW(0xF0)
	OR   R30,R26
	ST   Y,R30
;  return Value;
	RJMP _0x208000C
;}
;
;void SSD1963_Reset(void)
;{
_SSD1963_Reset:
;  SSD1963_RD = 0;
	CBI  0x12,5
;  SSD1963_RESET = 1;
	SBI  0x3,5
;  delay_ms(100);
	CALL SUBOPT_0x1
;  SSD1963_RESET = 0;
	CBI  0x3,5
;  delay_ms(100);
	CALL SUBOPT_0x1
;  SSD1963_RESET = 1;
	SBI  0x3,5
;  SSD1963_RD = 1;
	SBI  0x12,5
;  delay_ms(100);
	CALL SUBOPT_0x1
;}
	RET
;
;// Запись команды в SSD1963
;inline void SSD1963_WriteCmd(unsigned char cmd)
;{
_SSD1963_WriteCmd:
;  SSD1963_RD = 1;
;	cmd -> Y+0
	SBI  0x12,5
;  SSD1963_RS = 0;                                                  //запись команды
	CBI  0x12,7
;  SSD1963_PORT1 = RotateByte(cmd);
	CALL SUBOPT_0x2
;  SSD1963_PORT2 = 0x00;
;  #asm("nop")
	nop
;  //delay_us(5);
;  SSD1963_CS = 0;
	CBI  0x3,7
;  SSD1963_WR = 0;
	CBI  0x12,6
;  #asm("nop")
	nop
;  //delay_us(5);
;  SSD1963_CS = 1;
	SBI  0x3,7
;  SSD1963_WR = 1;
	SBI  0x12,6
;  #asm("nop")
	nop
	RJMP _0x208000B
;} // SSD1963_WriteCmd
;
;// Запись данных в SSD1963
;inline void SSD1963_WriteData_b8(unsigned char data)
;{
_SSD1963_WriteData_b8:
;  SSD1963_RD = 1;
;	data -> Y+0
	SBI  0x12,5
;  SSD1963_RS = 1;                                                  //запись ДАННЫХ
	SBI  0x12,7
;  SSD1963_PORT1 = RotateByte(data);
	CALL SUBOPT_0x2
;  SSD1963_PORT2 = 0x00;
;  #asm("nop")
	nop
;  //delay_us(5);
;  SSD1963_CS = 0;
	CBI  0x3,7
;  SSD1963_WR = 0;
	CBI  0x12,6
;  #asm("nop")
	nop
;  //delay_us(5);
;  SSD1963_CS = 1;
	SBI  0x3,7
;  SSD1963_WR = 1;
	SBI  0x12,6
;  #asm("nop")
	nop
_0x208000B:
;} // SSD1963_Writedata
_0x208000C:
	ADIW R28,1
	RET
;
;// Запись данных в SSD1963
;inline void SSD1963_WriteData_b16(unsigned int data)
;{
_SSD1963_WriteData_b16:
;  char a, b;
;  a = data;
	ST   -Y,R17
	ST   -Y,R16
;	data -> Y+2
;	a -> R17
;	b -> R16
	LDD  R17,Y+2
;  b = data >> 8;
	LDD  R16,Y+3
;  SSD1963_RD = 1;
	SBI  0x12,5
;  SSD1963_RS = 1;                                                  //запись ДАННЫХ
	SBI  0x12,7
;  SSD1963_PORT1 = a;
	OUT  0x1B,R17
;  SSD1963_PORT2 = b;
	OUT  0x15,R16
;  #asm("nop")
	nop
;  //delay_us(5);
;  SSD1963_CS = 0;
	CBI  0x3,7
;  SSD1963_WR = 0;
	CBI  0x12,6
;  #asm("nop")
	nop
;  //delay_us(5);
;  SSD1963_CS = 1;
	SBI  0x3,7
;  SSD1963_WR = 1;
	SBI  0x12,6
;  #asm("nop")
	nop
;} // SSD1963_Writedata
	LDD  R17,Y+1
	LDD  R16,Y+0
	ADIW R28,4
	RET
;
;// Инициализация дисплея
;void SSD1963_Init(void)
;{
_SSD1963_Init:
;  SSD1963_PortInit();
	RCALL _SSD1963_PortInit
;  SSD1963_Reset();
	RCALL _SSD1963_Reset
;  // Soft reset
;  SSD1963_WriteCmd(0x01); //software reset
	CALL SUBOPT_0x3
;  SSD1963_WriteCmd(0x01); //software reset
	CALL SUBOPT_0x3
;  SSD1963_WriteCmd(0x01); //software reset
	CALL SUBOPT_0x3
;  delay_ms(200); //задержка
	CALL SUBOPT_0x4
;
;  SSD1963_WriteCmd(0xE2); //PLLmultiplier, set PLL clock to 120M
	LDI  R30,LOW(226)
	ST   -Y,R30
	RCALL _SSD1963_WriteCmd
;  SSD1963_WriteData_b8(0x23); // множительPLL(M)// N=0x36 for 6.5M, 0x23 for 10M crystal
	LDI  R30,LOW(35)
	ST   -Y,R30
	RCALL _SSD1963_WriteData_b8
;  SSD1963_WriteData_b8(0x02); // делительPLL(N)
	LDI  R30,LOW(2)
	CALL SUBOPT_0x5
;  SSD1963_WriteData_b8(0x04); // команда на использование умножителя и делителя PLL
;  /*SSD1963_WriteData_b8(0x23); // множительPLL(M)// N=0x36 for 6.5M, 0x23 for 10M crystal
;  SSD1963_WriteData_b8(0x02); // делительPLL(N)
;  SSD1963_WriteData_b8(0x04); // команда на использование умножителя и делителя PLL*/
;  SSD1963_WriteCmd(0xE0); // запуск PLL
	LDI  R30,LOW(224)
	CALL SUBOPT_0x6
;  SSD1963_WriteData_b8(0x01); // PLL включена и использовать внутренний генератор как системный
;  delay_ms(1);//ожидание запуска PLL
	CALL SUBOPT_0x7
;
;  SSD1963_WriteCmd(0xE0); // Переключение системы с внутреннего генератора на PLL
	LDI  R30,LOW(224)
	CALL SUBOPT_0x8
;  SSD1963_WriteData_b8(0x03);
;  SSD1963_WriteCmd(0x01); //software reset
	CALL SUBOPT_0x3
;  delay_ms(120); //а здесь лучше сделать 120 вместо 5
	LDI  R30,LOW(120)
	LDI  R31,HIGH(120)
	CALL SUBOPT_0x9
;
;  SSD1963_WriteCmd(0xE6); //Установка частоты переключения пикселя
	LDI  R30,LOW(230)
	CALL SUBOPT_0x6
;  //PLL setting for PCLK, depends on resolution
;  SSD1963_WriteData_b8(0x01); //5,3мГц = PLLfreqx ((частотапереключения+1)/2^20)
;  SSD1963_WriteData_b8(0xDA); // для 100мГц должно быть 0х00D916
	LDI  R30,LOW(218)
	ST   -Y,R30
	RCALL _SSD1963_WriteData_b8
;  SSD1963_WriteData_b8(0x73);
	LDI  R30,LOW(115)
	ST   -Y,R30
	RCALL _SSD1963_WriteData_b8
;
;  SSD1963_WriteCmd(0xB0); //Set LCD mode
	LDI  R30,LOW(176)
	ST   -Y,R30
	RCALL _SSD1963_WriteCmd
;  SSD1963_WriteData_b8(0x24); //24bit
	LDI  R30,LOW(36)
	CALL SUBOPT_0xA
;  SSD1963_WriteData_b8(0x00); //0x0000 и 20 - TFT режим, 40 serial RGB режим
;  SSD1963_WriteData_b8((HDP>>8)&0xFF); //Разрешение по горизонтали //SetHDP
	CALL SUBOPT_0xB
;  SSD1963_WriteData_b8(HDP&0xFF);
	LDI  R30,LOW(223)
	CALL SUBOPT_0xC
;  SSD1963_WriteData_b8((VDP>>8)&0xFF); // Разрешение по вертикали //SetVDP
;  SSD1963_WriteData_b8(VDP&0xFF);
	LDI  R30,LOW(15)
	CALL SUBOPT_0xA
;  SSD1963_WriteData_b8(0x00); // а здесь попробуй поставить 0х2D и тогда не надо мучать 36 регистр
;  //00101101-G[5..3]=101
;  //G[2..0]=101-BGR
;
;  //В4 и В6 частота обновления по горизонтали и вертикали (этовкратце)
;  SSD1963_WriteCmd(0xB4); //Sethorizontalperiod
	LDI  R30,LOW(180)
	CALL SUBOPT_0x8
;  SSD1963_WriteData_b8((HT>>8)&0xFF); //SetHT
;  SSD1963_WriteData_b8(HT&0xFF);
	LDI  R30,LOW(132)
	CALL SUBOPT_0xA
;  SSD1963_WriteData_b8((HPS>>8)&0XFF); //SetHPS
;  SSD1963_WriteData_b8(HPS&0xFF);
	LDI  R30,LOW(90)
	ST   -Y,R30
	RCALL _SSD1963_WriteData_b8
;  SSD1963_WriteData_b8(HPW); //SetHPW
	LDI  R30,LOW(10)
	CALL SUBOPT_0xA
;  SSD1963_WriteData_b8((LPS>>8)&0XFF); //SetHPS
;  SSD1963_WriteData_b8(LPS&0XFF);
	LDI  R30,LOW(8)
	CALL SUBOPT_0xA
;  SSD1963_WriteData_b8(0x00);
;
;  SSD1963_WriteCmd(0xB6); //Set vertical period
	LDI  R30,LOW(182)
	CALL SUBOPT_0x6
;  SSD1963_WriteData_b8((VT>>8)&0xFF); //SetVT
;  SSD1963_WriteData_b8(VT&0xFF);
	LDI  R30,LOW(44)
	CALL SUBOPT_0xA
;  SSD1963_WriteData_b8((VPS>>8)&0xFF); //SetVPS
;  SSD1963_WriteData_b8(VPS&0xFF);
	LDI  R30,LOW(12)
	ST   -Y,R30
	RCALL _SSD1963_WriteData_b8
;  SSD1963_WriteData_b8(VPW); //SetVPW
	LDI  R30,LOW(10)
	ST   -Y,R30
	RCALL _SSD1963_WriteData_b8
;  SSD1963_WriteData_b8((FPS>>8)&0xFF); //SetFPS
	LDI  R30,LOW(0)
	CALL SUBOPT_0x5
;  SSD1963_WriteData_b8(FPS&0xFF);
;
;  //ВА и В8 конфигурация портов между SSD1963 и дисплеем
;  SSD1963_WriteCmd(0xBA);
	LDI  R30,LOW(186)
	ST   -Y,R30
	RCALL _SSD1963_WriteCmd
;  SSD1963_WriteData_b8(0x0F); //GPIO[3:0]out1
	LDI  R30,LOW(15)
	ST   -Y,R30
	RCALL _SSD1963_WriteData_b8
;  SSD1963_WriteCmd(0xB8);
	LDI  R30,LOW(184)
	ST   -Y,R30
	RCALL _SSD1963_WriteCmd
;  SSD1963_WriteData_b8(0x07); //0x07 GPIO3 = input, GPIO[2:0] = output
	LDI  R30,LOW(7)
	CALL SUBOPT_0xC
;  SSD1963_WriteData_b8(0x01); //0x01 GPIO0 normal
;
;  SSD1963_WriteCmd(0x36); //Set Address mode - rotation
	LDI  R30,LOW(54)
	CALL SUBOPT_0x8
;  SSD1963_WriteData_b8(flipState); //бит0 - flipvertical бит1 - fliphorizontal
;
;  SSD1963_WriteCmd(0xBC); //настройка яркости и тд
	LDI  R30,LOW(188)
	ST   -Y,R30
	RCALL _SSD1963_WriteCmd
;  SSD1963_WriteData_b8(0x50); //контраст
	LDI  R30,LOW(80)
	ST   -Y,R30
	RCALL _SSD1963_WriteData_b8
;  SSD1963_WriteData_b8(0x90); //яркость
	LDI  R30,LOW(144)
	ST   -Y,R30
	RCALL _SSD1963_WriteData_b8
;  SSD1963_WriteData_b8(0x50); //насыщеность цвета
	LDI  R30,LOW(80)
	CALL SUBOPT_0xC
;  SSD1963_WriteData_b8(0x01); //постпроцессор (1 - вкл параметры, 0 - выкл)
;
;  SSD1963_WriteCmd(0xF0); //pixel data interface
	LDI  R30,LOW(240)
	CALL SUBOPT_0x8
;  SSD1963_WriteData_b8(0x03); //03h - RGB565
;
;  delay_ms(5);
	LDI  R30,LOW(5)
	LDI  R31,HIGH(5)
	CALL SUBOPT_0x9
;
;  SSD1963_WriteCmd(0x29); //display on
	LDI  R30,LOW(41)
	ST   -Y,R30
	RCALL _SSD1963_WriteCmd
;
;  SSD1963_WriteCmd(0xD0); //отключено ручное управление яркостью //Dynamic Bright Control
	LDI  R30,LOW(208)
	ST   -Y,R30
	RCALL _SSD1963_WriteCmd
;  SSD1963_WriteData_b8(0x0D); //режим энергосбережения - агрессивный
	LDI  R30,LOW(13)
	ST   -Y,R30
	RCALL _SSD1963_WriteData_b8
;} // SSD1963_Init
	RET
;
;void SSD1963_SetArea(unsigned int StartX, unsigned int EndX, unsigned int StartY, unsigned int EndY)
;{
_SSD1963_SetArea:
;  SSD1963_WriteCmd(SSD1963_SET_COLUMN_ADDRESS);
;	StartX -> Y+6
;	EndX -> Y+4
;	StartY -> Y+2
;	EndY -> Y+0
	LDI  R30,LOW(42)
	ST   -Y,R30
	RCALL _SSD1963_WriteCmd
;  SSD1963_WriteData_b8(StartX >> 8);
	LDD  R30,Y+7
	ST   -Y,R30
	RCALL _SSD1963_WriteData_b8
;  SSD1963_WriteData_b8(StartX);
	LDD  R30,Y+6
	ST   -Y,R30
	RCALL _SSD1963_WriteData_b8
;  SSD1963_WriteData_b8((EndX >> 8));
	LDD  R30,Y+5
	ST   -Y,R30
	RCALL _SSD1963_WriteData_b8
;  SSD1963_WriteData_b8(EndX);
	LDD  R30,Y+4
	ST   -Y,R30
	RCALL _SSD1963_WriteData_b8
;
;  SSD1963_WriteCmd(SSD1963_SET_PAGE_ADDRESS);
	LDI  R30,LOW(43)
	ST   -Y,R30
	RCALL _SSD1963_WriteCmd
;  SSD1963_WriteData_b8((StartY >> 8));
	LDD  R30,Y+3
	ST   -Y,R30
	RCALL _SSD1963_WriteData_b8
;  SSD1963_WriteData_b8(StartY);
	LDD  R30,Y+2
	ST   -Y,R30
	RCALL _SSD1963_WriteData_b8
;  SSD1963_WriteData_b8((EndY >> 8));
	LDD  R30,Y+1
	ST   -Y,R30
	RCALL _SSD1963_WriteData_b8
;  SSD1963_WriteData_b8(EndY);
	LD   R30,Y
	ST   -Y,R30
	RCALL _SSD1963_WriteData_b8
;}
	ADIW R28,8
	RET
;
;void SSD1963_ClearScreen(unsigned int color)
;{
_SSD1963_ClearScreen:
;  unsigned int x,y;
;  SSD1963_WriteCmd(0x28);
	CALL __SAVELOCR4
;	color -> Y+4
;	x -> R16,R17
;	y -> R18,R19
	LDI  R30,LOW(40)
	ST   -Y,R30
	RCALL _SSD1963_WriteCmd
;  SSD1963_SetArea(0, HDP , 0, VDP);
	CALL SUBOPT_0xD
	LDI  R30,LOW(479)
	LDI  R31,HIGH(479)
	CALL SUBOPT_0xE
	LDI  R30,LOW(271)
	LDI  R31,HIGH(271)
	CALL SUBOPT_0xF
;  SSD1963_WriteCmd(0x2c);
;  x=0;
	__GETWRN 16,17,0
;  while(x <= VDP)
_0x31:
	__CPWRN 16,17,272
	BRSH _0x33
;  {
;    y=0;
	__GETWRN 18,19,0
;    while(y <= HDP)
_0x34:
	__CPWRN 18,19,480
	BRSH _0x36
;    {
;      SSD1963_WriteData_b16(color);
	LDD  R30,Y+4
	LDD  R31,Y+4+1
	CALL SUBOPT_0x10
;      y++;
	__ADDWRN 18,19,1
;    }
	RJMP _0x34
_0x36:
;  x++;
	__ADDWRN 16,17,1
;  }
	RJMP _0x31
_0x33:
;  SSD1963_WriteCmd(0x29);
	LDI  R30,LOW(41)
	ST   -Y,R30
	RCALL _SSD1963_WriteCmd
;}
	CALL __LOADLOCR4
	ADIW R28,6
	RET
;
;void SSD1963_PrintSymbol16(flash char Symb[32], unsigned int X, unsigned int Y, unsigned int Color, unsigned int BackColor)
;{
_SSD1963_PrintSymbol16:
;  char i, j;
;  SSD1963_SetArea(X, X + FONT_WIDTH - 1, Y, Y + FONT_HEIGHT - 1);
	ST   -Y,R17
	ST   -Y,R16
;	X -> Y+8
;	Y -> Y+6
;	Color -> Y+4
;	BackColor -> Y+2
;	i -> R17
;	j -> R16
	CALL SUBOPT_0x11
	LDD  R26,Y+10
	LDD  R27,Y+10+1
	ADIW R26,16
	SBIW R26,1
	ST   -Y,R27
	ST   -Y,R26
	CALL SUBOPT_0x12
	LDD  R26,Y+12
	LDD  R27,Y+12+1
	ADIW R26,16
	SBIW R26,1
	ST   -Y,R27
	ST   -Y,R26
	RCALL _SSD1963_SetArea
;  SSD1963_WriteCmd(0x2c);
	LDI  R30,LOW(44)
	ST   -Y,R30
	RCALL _SSD1963_WriteCmd
;  for (i = 0; i < 32; i++)
	LDI  R17,LOW(0)
_0x38:
	CPI  R17,32
	BRSH _0x39
;  {
;    for (j = 0; j < 8; j++)
	LDI  R16,LOW(0)
_0x3B:
	CPI  R16,8
	BRSH _0x3C
;    {
;      if ((Symb[i] & (0b10000000 >> j)) > 0) SSD1963_WriteData_b16(Color);
	MOV  R30,R17
	LDD  R26,Y+10
	LDD  R27,Y+10+1
	LDI  R31,0
	ADD  R30,R26
	ADC  R31,R27
	LPM  R1,Z
	MOV  R30,R16
	LDI  R26,LOW(128)
	CALL __LSRB12
	AND  R30,R1
	CPI  R30,LOW(0x1)
	BRLO _0x3D
	LDD  R30,Y+4
	LDD  R31,Y+4+1
	RJMP _0x210
;      else SSD1963_WriteData_b16(BackColor);
_0x3D:
	LDD  R30,Y+2
	LDD  R31,Y+2+1
_0x210:
	ST   -Y,R31
	ST   -Y,R30
	RCALL _SSD1963_WriteData_b16
;    }
	SUBI R16,-1
	RJMP _0x3B
_0x3C:
;  }
	SUBI R17,-1
	RJMP _0x38
_0x39:
;}
	LDD  R17,Y+1
	LDD  R16,Y+0
	RJMP _0x208000A
;
;void SSD1963_PutChar16(char Value, unsigned int X, unsigned int Y, unsigned int Color, unsigned int BackColor)
;{
_SSD1963_PutChar16:
;  switch(Value)
;	Value -> Y+8
;	X -> Y+6
;	Y -> Y+4
;	Color -> Y+2
;	BackColor -> Y+0
	CALL SUBOPT_0x13
;  {
;    case '0' : SSD1963_PrintSymbol16(S_48, X, Y, Color, BackColor);
	CPI  R30,LOW(0x30)
	LDI  R26,HIGH(0x30)
	CPC  R31,R26
	BRNE _0x42
	LDI  R30,LOW(_S_48*2)
	LDI  R31,HIGH(_S_48*2)
	RJMP _0x211
;    break;
;    case '1' : SSD1963_PrintSymbol16(S_49, X, Y, Color, BackColor);
_0x42:
	CPI  R30,LOW(0x31)
	LDI  R26,HIGH(0x31)
	CPC  R31,R26
	BRNE _0x43
	LDI  R30,LOW(_S_49*2)
	LDI  R31,HIGH(_S_49*2)
	RJMP _0x211
;    break;
;    case '2' : SSD1963_PrintSymbol16(S_50, X, Y, Color, BackColor);
_0x43:
	CPI  R30,LOW(0x32)
	LDI  R26,HIGH(0x32)
	CPC  R31,R26
	BRNE _0x44
	LDI  R30,LOW(_S_50*2)
	LDI  R31,HIGH(_S_50*2)
	RJMP _0x211
;    break;
;    case '3' : SSD1963_PrintSymbol16(S_51, X, Y, Color, BackColor);
_0x44:
	CPI  R30,LOW(0x33)
	LDI  R26,HIGH(0x33)
	CPC  R31,R26
	BRNE _0x45
	LDI  R30,LOW(_S_51*2)
	LDI  R31,HIGH(_S_51*2)
	RJMP _0x211
;    break;
;    case '4' : SSD1963_PrintSymbol16(S_52, X, Y, Color, BackColor);
_0x45:
	CPI  R30,LOW(0x34)
	LDI  R26,HIGH(0x34)
	CPC  R31,R26
	BRNE _0x46
	LDI  R30,LOW(_S_52*2)
	LDI  R31,HIGH(_S_52*2)
	RJMP _0x211
;    break;
;    case '5' : SSD1963_PrintSymbol16(S_53, X, Y, Color, BackColor);
_0x46:
	CPI  R30,LOW(0x35)
	LDI  R26,HIGH(0x35)
	CPC  R31,R26
	BRNE _0x47
	LDI  R30,LOW(_S_53*2)
	LDI  R31,HIGH(_S_53*2)
	RJMP _0x211
;    break;
;    case '6' : SSD1963_PrintSymbol16(S_54, X, Y, Color, BackColor);
_0x47:
	CPI  R30,LOW(0x36)
	LDI  R26,HIGH(0x36)
	CPC  R31,R26
	BRNE _0x48
	LDI  R30,LOW(_S_54*2)
	LDI  R31,HIGH(_S_54*2)
	RJMP _0x211
;    break;
;    case '7' : SSD1963_PrintSymbol16(S_55, X, Y, Color, BackColor);
_0x48:
	CPI  R30,LOW(0x37)
	LDI  R26,HIGH(0x37)
	CPC  R31,R26
	BRNE _0x49
	LDI  R30,LOW(_S_55*2)
	LDI  R31,HIGH(_S_55*2)
	RJMP _0x211
;    break;
;    case '8' : SSD1963_PrintSymbol16(S_56, X, Y, Color, BackColor);
_0x49:
	CPI  R30,LOW(0x38)
	LDI  R26,HIGH(0x38)
	CPC  R31,R26
	BRNE _0x4A
	LDI  R30,LOW(_S_56*2)
	LDI  R31,HIGH(_S_56*2)
	RJMP _0x211
;    break;
;    case '9' : SSD1963_PrintSymbol16(S_57, X, Y, Color, BackColor);
_0x4A:
	CPI  R30,LOW(0x39)
	LDI  R26,HIGH(0x39)
	CPC  R31,R26
	BRNE _0x4B
	LDI  R30,LOW(_S_57*2)
	LDI  R31,HIGH(_S_57*2)
	RJMP _0x211
;    break;
;
;    case '!' : SSD1963_PrintSymbol16(S_33, X, Y, Color, BackColor);
_0x4B:
	CPI  R30,LOW(0x21)
	LDI  R26,HIGH(0x21)
	CPC  R31,R26
	BRNE _0x4C
	LDI  R30,LOW(_S_33*2)
	LDI  R31,HIGH(_S_33*2)
	RJMP _0x211
;    break;
;    case '(' : SSD1963_PrintSymbol16(S_40, X, Y, Color, BackColor);
_0x4C:
	CPI  R30,LOW(0x28)
	LDI  R26,HIGH(0x28)
	CPC  R31,R26
	BRNE _0x4D
	LDI  R30,LOW(_S_40*2)
	LDI  R31,HIGH(_S_40*2)
	RJMP _0x211
;    break;
;    case ')' : SSD1963_PrintSymbol16(S_41, X, Y, Color, BackColor);
_0x4D:
	CPI  R30,LOW(0x29)
	LDI  R26,HIGH(0x29)
	CPC  R31,R26
	BRNE _0x4E
	LDI  R30,LOW(_S_41*2)
	LDI  R31,HIGH(_S_41*2)
	RJMP _0x211
;    break;
;    case '/' : SSD1963_PrintSymbol16(S_47, X, Y, Color, BackColor);
_0x4E:
	CPI  R30,LOW(0x2F)
	LDI  R26,HIGH(0x2F)
	CPC  R31,R26
	BRNE _0x4F
	LDI  R30,LOW(_S_47*2)
	LDI  R31,HIGH(_S_47*2)
	RJMP _0x211
;    break;
;    case ':' : SSD1963_PrintSymbol16(S_58, X, Y, Color, BackColor);
_0x4F:
	CPI  R30,LOW(0x3A)
	LDI  R26,HIGH(0x3A)
	CPC  R31,R26
	BRNE _0x50
	LDI  R30,LOW(_S_58*2)
	LDI  R31,HIGH(_S_58*2)
	RJMP _0x211
;    break;
;    case '<' : SSD1963_PrintSymbol16(S_60, X, Y, Color, BackColor);
_0x50:
	CPI  R30,LOW(0x3C)
	LDI  R26,HIGH(0x3C)
	CPC  R31,R26
	BRNE _0x51
	LDI  R30,LOW(_S_60*2)
	LDI  R31,HIGH(_S_60*2)
	RJMP _0x211
;    break;
;    case '=' : SSD1963_PrintSymbol16(S_61, X, Y, Color, BackColor);
_0x51:
	CPI  R30,LOW(0x3D)
	LDI  R26,HIGH(0x3D)
	CPC  R31,R26
	BRNE _0x52
	LDI  R30,LOW(_S_61*2)
	LDI  R31,HIGH(_S_61*2)
	RJMP _0x211
;    break;
;    case '>' : SSD1963_PrintSymbol16(S_62, X, Y, Color, BackColor);
_0x52:
	CPI  R30,LOW(0x3E)
	LDI  R26,HIGH(0x3E)
	CPC  R31,R26
	BRNE _0x53
	LDI  R30,LOW(_S_62*2)
	LDI  R31,HIGH(_S_62*2)
	RJMP _0x211
;    break;
;    case '?' : SSD1963_PrintSymbol16(S_63, X, Y, Color, BackColor);
_0x53:
	CPI  R30,LOW(0x3F)
	LDI  R26,HIGH(0x3F)
	CPC  R31,R26
	BRNE _0x54
	LDI  R30,LOW(_S_63*2)
	LDI  R31,HIGH(_S_63*2)
	RJMP _0x211
;    break;
;    case '+' : SSD1963_PrintSymbol16(S_43, X, Y, Color, BackColor);
_0x54:
	CPI  R30,LOW(0x2B)
	LDI  R26,HIGH(0x2B)
	CPC  R31,R26
	BRNE _0x55
	LDI  R30,LOW(_S_43*2)
	LDI  R31,HIGH(_S_43*2)
	RJMP _0x211
;    break;
;    case '-' : SSD1963_PrintSymbol16(S_45, X, Y, Color, BackColor);
_0x55:
	CPI  R30,LOW(0x2D)
	LDI  R26,HIGH(0x2D)
	CPC  R31,R26
	BRNE _0x56
	LDI  R30,LOW(_S_45*2)
	LDI  R31,HIGH(_S_45*2)
	RJMP _0x211
;    break;
;
;    case 'А' : SSD1963_PrintSymbol16(S_192, X, Y, Color, BackColor);
_0x56:
	CPI  R30,LOW(0xC0)
	LDI  R26,HIGH(0xC0)
	CPC  R31,R26
	BRNE _0x57
	LDI  R30,LOW(_S_192*2)
	LDI  R31,HIGH(_S_192*2)
	RJMP _0x211
;    break;
;    case 'Б' : SSD1963_PrintSymbol16(S_193, X, Y, Color, BackColor);
_0x57:
	CPI  R30,LOW(0xC1)
	LDI  R26,HIGH(0xC1)
	CPC  R31,R26
	BRNE _0x58
	LDI  R30,LOW(_S_193*2)
	LDI  R31,HIGH(_S_193*2)
	RJMP _0x211
;    break;
;    case 'В' : SSD1963_PrintSymbol16(S_194, X, Y, Color, BackColor);
_0x58:
	CPI  R30,LOW(0xC2)
	LDI  R26,HIGH(0xC2)
	CPC  R31,R26
	BRNE _0x59
	LDI  R30,LOW(_S_194*2)
	LDI  R31,HIGH(_S_194*2)
	RJMP _0x211
;    break;
;    case 'Г' : SSD1963_PrintSymbol16(S_195, X, Y, Color, BackColor);
_0x59:
	CPI  R30,LOW(0xC3)
	LDI  R26,HIGH(0xC3)
	CPC  R31,R26
	BRNE _0x5A
	LDI  R30,LOW(_S_195*2)
	LDI  R31,HIGH(_S_195*2)
	RJMP _0x211
;    break;
;    case 'Д' : SSD1963_PrintSymbol16(S_196, X, Y, Color, BackColor);
_0x5A:
	CPI  R30,LOW(0xC4)
	LDI  R26,HIGH(0xC4)
	CPC  R31,R26
	BRNE _0x5B
	LDI  R30,LOW(_S_196*2)
	LDI  R31,HIGH(_S_196*2)
	RJMP _0x211
;    break;
;    case 'Е' : SSD1963_PrintSymbol16(S_197, X, Y, Color, BackColor);
_0x5B:
	CPI  R30,LOW(0xC5)
	LDI  R26,HIGH(0xC5)
	CPC  R31,R26
	BRNE _0x5C
	LDI  R30,LOW(_S_197*2)
	LDI  R31,HIGH(_S_197*2)
	RJMP _0x211
;    break;
;    case 'Ж' : SSD1963_PrintSymbol16(S_198, X, Y, Color, BackColor);
_0x5C:
	CPI  R30,LOW(0xC6)
	LDI  R26,HIGH(0xC6)
	CPC  R31,R26
	BRNE _0x5D
	LDI  R30,LOW(_S_198*2)
	LDI  R31,HIGH(_S_198*2)
	RJMP _0x211
;    break;
;    case 'З' : SSD1963_PrintSymbol16(S_199, X, Y, Color, BackColor);
_0x5D:
	CPI  R30,LOW(0xC7)
	LDI  R26,HIGH(0xC7)
	CPC  R31,R26
	BRNE _0x5E
	LDI  R30,LOW(_S_199*2)
	LDI  R31,HIGH(_S_199*2)
	RJMP _0x211
;    break;
;    case 'И' : SSD1963_PrintSymbol16(S_200, X, Y, Color, BackColor);
_0x5E:
	CPI  R30,LOW(0xC8)
	LDI  R26,HIGH(0xC8)
	CPC  R31,R26
	BRNE _0x5F
	LDI  R30,LOW(_S_200*2)
	LDI  R31,HIGH(_S_200*2)
	RJMP _0x211
;    break;
;    case 'Й' : SSD1963_PrintSymbol16(S_201, X, Y, Color, BackColor);
_0x5F:
	CPI  R30,LOW(0xC9)
	LDI  R26,HIGH(0xC9)
	CPC  R31,R26
	BRNE _0x60
	LDI  R30,LOW(_S_201*2)
	LDI  R31,HIGH(_S_201*2)
	RJMP _0x211
;    break;
;    case 'К' : SSD1963_PrintSymbol16(S_202, X, Y, Color, BackColor);
_0x60:
	CPI  R30,LOW(0xCA)
	LDI  R26,HIGH(0xCA)
	CPC  R31,R26
	BRNE _0x61
	LDI  R30,LOW(_S_202*2)
	LDI  R31,HIGH(_S_202*2)
	RJMP _0x211
;    break;
;    case 'Л' : SSD1963_PrintSymbol16(S_203, X, Y, Color, BackColor);
_0x61:
	CPI  R30,LOW(0xCB)
	LDI  R26,HIGH(0xCB)
	CPC  R31,R26
	BRNE _0x62
	LDI  R30,LOW(_S_203*2)
	LDI  R31,HIGH(_S_203*2)
	RJMP _0x211
;    break;
;    case 'М' : SSD1963_PrintSymbol16(S_204, X, Y, Color, BackColor);
_0x62:
	CPI  R30,LOW(0xCC)
	LDI  R26,HIGH(0xCC)
	CPC  R31,R26
	BRNE _0x63
	LDI  R30,LOW(_S_204*2)
	LDI  R31,HIGH(_S_204*2)
	RJMP _0x211
;    break;
;    case 'Н' : SSD1963_PrintSymbol16(S_205, X, Y, Color, BackColor);
_0x63:
	CPI  R30,LOW(0xCD)
	LDI  R26,HIGH(0xCD)
	CPC  R31,R26
	BRNE _0x64
	LDI  R30,LOW(_S_205*2)
	LDI  R31,HIGH(_S_205*2)
	RJMP _0x211
;    break;
;    case 'О' : SSD1963_PrintSymbol16(S_206, X, Y, Color, BackColor);
_0x64:
	CPI  R30,LOW(0xCE)
	LDI  R26,HIGH(0xCE)
	CPC  R31,R26
	BRNE _0x65
	LDI  R30,LOW(_S_206*2)
	LDI  R31,HIGH(_S_206*2)
	RJMP _0x211
;    break;
;    case 'П' : SSD1963_PrintSymbol16(S_207, X, Y, Color, BackColor);
_0x65:
	CPI  R30,LOW(0xCF)
	LDI  R26,HIGH(0xCF)
	CPC  R31,R26
	BRNE _0x66
	LDI  R30,LOW(_S_207*2)
	LDI  R31,HIGH(_S_207*2)
	RJMP _0x211
;    break;
;    case 'Р' : SSD1963_PrintSymbol16(S_208, X, Y, Color, BackColor);
_0x66:
	CPI  R30,LOW(0xD0)
	LDI  R26,HIGH(0xD0)
	CPC  R31,R26
	BRNE _0x67
	LDI  R30,LOW(_S_208*2)
	LDI  R31,HIGH(_S_208*2)
	RJMP _0x211
;    break;
;    case 'С' : SSD1963_PrintSymbol16(S_209, X, Y, Color, BackColor);
_0x67:
	CPI  R30,LOW(0xD1)
	LDI  R26,HIGH(0xD1)
	CPC  R31,R26
	BRNE _0x68
	LDI  R30,LOW(_S_209*2)
	LDI  R31,HIGH(_S_209*2)
	RJMP _0x211
;    break;
;    case 'Т' : SSD1963_PrintSymbol16(S_210, X, Y, Color, BackColor);
_0x68:
	CPI  R30,LOW(0xD2)
	LDI  R26,HIGH(0xD2)
	CPC  R31,R26
	BRNE _0x69
	LDI  R30,LOW(_S_210*2)
	LDI  R31,HIGH(_S_210*2)
	RJMP _0x211
;    break;
;    case 'У' : SSD1963_PrintSymbol16(S_211, X, Y, Color, BackColor);
_0x69:
	CPI  R30,LOW(0xD3)
	LDI  R26,HIGH(0xD3)
	CPC  R31,R26
	BRNE _0x6A
	LDI  R30,LOW(_S_211*2)
	LDI  R31,HIGH(_S_211*2)
	RJMP _0x211
;    break;
;    case 'Ф' : SSD1963_PrintSymbol16(S_212, X, Y, Color, BackColor);
_0x6A:
	CPI  R30,LOW(0xD4)
	LDI  R26,HIGH(0xD4)
	CPC  R31,R26
	BRNE _0x6B
	LDI  R30,LOW(_S_212*2)
	LDI  R31,HIGH(_S_212*2)
	RJMP _0x211
;    break;
;    case 'Х' : SSD1963_PrintSymbol16(S_213, X, Y, Color, BackColor);
_0x6B:
	CPI  R30,LOW(0xD5)
	LDI  R26,HIGH(0xD5)
	CPC  R31,R26
	BRNE _0x6C
	LDI  R30,LOW(_S_213*2)
	LDI  R31,HIGH(_S_213*2)
	RJMP _0x211
;    break;
;    case 'Ц' : SSD1963_PrintSymbol16(S_214, X, Y, Color, BackColor);
_0x6C:
	CPI  R30,LOW(0xD6)
	LDI  R26,HIGH(0xD6)
	CPC  R31,R26
	BRNE _0x6D
	LDI  R30,LOW(_S_214*2)
	LDI  R31,HIGH(_S_214*2)
	RJMP _0x211
;    break;
;    case 'Ч' : SSD1963_PrintSymbol16(S_215, X, Y, Color, BackColor);
_0x6D:
	CPI  R30,LOW(0xD7)
	LDI  R26,HIGH(0xD7)
	CPC  R31,R26
	BRNE _0x6E
	LDI  R30,LOW(_S_215*2)
	LDI  R31,HIGH(_S_215*2)
	RJMP _0x211
;    break;
;    case 'Ш' : SSD1963_PrintSymbol16(S_216, X, Y, Color, BackColor);
_0x6E:
	CPI  R30,LOW(0xD8)
	LDI  R26,HIGH(0xD8)
	CPC  R31,R26
	BRNE _0x6F
	LDI  R30,LOW(_S_216*2)
	LDI  R31,HIGH(_S_216*2)
	RJMP _0x211
;    break;
;    case 'Щ' : SSD1963_PrintSymbol16(S_217, X, Y, Color, BackColor);
_0x6F:
	CPI  R30,LOW(0xD9)
	LDI  R26,HIGH(0xD9)
	CPC  R31,R26
	BRNE _0x70
	LDI  R30,LOW(_S_217*2)
	LDI  R31,HIGH(_S_217*2)
	RJMP _0x211
;    break;
;    case 'Ъ' : SSD1963_PrintSymbol16(S_218, X, Y, Color, BackColor);
_0x70:
	CPI  R30,LOW(0xDA)
	LDI  R26,HIGH(0xDA)
	CPC  R31,R26
	BRNE _0x71
	LDI  R30,LOW(_S_218*2)
	LDI  R31,HIGH(_S_218*2)
	RJMP _0x211
;    break;
;    case 'Ы' : SSD1963_PrintSymbol16(S_219, X, Y, Color, BackColor);
_0x71:
	CPI  R30,LOW(0xDB)
	LDI  R26,HIGH(0xDB)
	CPC  R31,R26
	BRNE _0x72
	LDI  R30,LOW(_S_219*2)
	LDI  R31,HIGH(_S_219*2)
	RJMP _0x211
;    break;
;    case 'Ь' : SSD1963_PrintSymbol16(S_220, X, Y, Color, BackColor);
_0x72:
	CPI  R30,LOW(0xDC)
	LDI  R26,HIGH(0xDC)
	CPC  R31,R26
	BRNE _0x73
	LDI  R30,LOW(_S_220*2)
	LDI  R31,HIGH(_S_220*2)
	RJMP _0x211
;    break;
;    case 'Э' : SSD1963_PrintSymbol16(S_221, X, Y, Color, BackColor);
_0x73:
	CPI  R30,LOW(0xDD)
	LDI  R26,HIGH(0xDD)
	CPC  R31,R26
	BRNE _0x74
	LDI  R30,LOW(_S_221*2)
	LDI  R31,HIGH(_S_221*2)
	RJMP _0x211
;    break;
;    case 'Ю' : SSD1963_PrintSymbol16(S_222, X, Y, Color, BackColor);
_0x74:
	CPI  R30,LOW(0xDE)
	LDI  R26,HIGH(0xDE)
	CPC  R31,R26
	BRNE _0x75
	LDI  R30,LOW(_S_222*2)
	LDI  R31,HIGH(_S_222*2)
	RJMP _0x211
;    break;
;    case 'Я' : SSD1963_PrintSymbol16(S_223, X, Y, Color, BackColor);
_0x75:
	CPI  R30,LOW(0xDF)
	LDI  R26,HIGH(0xDF)
	CPC  R31,R26
	BRNE _0x76
	LDI  R30,LOW(_S_223*2)
	LDI  R31,HIGH(_S_223*2)
	RJMP _0x211
;    break;
;
;    case '.' : SSD1963_PrintSymbol16(S_46, X, Y, Color, BackColor);
_0x76:
	CPI  R30,LOW(0x2E)
	LDI  R26,HIGH(0x2E)
	CPC  R31,R26
	BRNE _0x77
	LDI  R30,LOW(_S_46*2)
	LDI  R31,HIGH(_S_46*2)
	RJMP _0x211
;    break;
;    case ' ' : SSD1963_PrintSymbol16(S_32, X, Y, Color, BackColor);
_0x77:
	CPI  R30,LOW(0x20)
	LDI  R26,HIGH(0x20)
	CPC  R31,R26
	BRNE _0x78
	LDI  R30,LOW(_S_32*2)
	LDI  R31,HIGH(_S_32*2)
	RJMP _0x211
;    break;
;    case 1 : SSD1963_PrintSymbol16(S_UP, X, Y, Color, BackColor);
_0x78:
	CPI  R30,LOW(0x1)
	LDI  R26,HIGH(0x1)
	CPC  R31,R26
	BRNE _0x79
	LDI  R30,LOW(_S_UP*2)
	LDI  R31,HIGH(_S_UP*2)
	RJMP _0x211
;    break;
;    case 2 : SSD1963_PrintSymbol16(S_DOWN, X, Y, Color, BackColor);
_0x79:
	CPI  R30,LOW(0x2)
	LDI  R26,HIGH(0x2)
	CPC  R31,R26
	BRNE _0x7A
	LDI  R30,LOW(_S_DOWN*2)
	LDI  R31,HIGH(_S_DOWN*2)
	RJMP _0x211
;    break;
;    case 3 : SSD1963_PrintSymbol16(blank_symb, X, Y, Color, BackColor);
_0x7A:
	CPI  R30,LOW(0x3)
	LDI  R26,HIGH(0x3)
	CPC  R31,R26
	BRNE _0x41
	LDI  R30,LOW(_blank_symb*2)
	LDI  R31,HIGH(_blank_symb*2)
_0x211:
	ST   -Y,R31
	ST   -Y,R30
	CALL SUBOPT_0x11
	CALL SUBOPT_0x11
	CALL SUBOPT_0x11
	CALL SUBOPT_0x11
	RCALL _SSD1963_PrintSymbol16
;    break;
;  }
_0x41:
;}
	ADIW R28,9
	RET
;
;void SSD1963_PutString16(unsigned char* string, unsigned int X, unsigned int Y, unsigned int Color, unsigned int BackColor)
;{
_SSD1963_PutString16:
;  while (*string) {SSD1963_PutChar16(*string++, X, Y, Color, BackColor); X += FONT_WIDTH;}
;	*string -> Y+8
;	X -> Y+6
;	Y -> Y+4
;	Color -> Y+2
;	BackColor -> Y+0
_0x7C:
	LDD  R26,Y+8
	LDD  R27,Y+8+1
	LD   R30,X
	CPI  R30,0
	BREQ _0x7E
	LD   R30,X+
	STD  Y+8,R26
	STD  Y+8+1,R27
	ST   -Y,R30
	CALL SUBOPT_0x14
	CALL SUBOPT_0x14
	CALL SUBOPT_0x14
	CALL SUBOPT_0x14
	RCALL _SSD1963_PutChar16
	LDD  R30,Y+6
	LDD  R31,Y+6+1
	ADIW R30,16
	STD  Y+6,R30
	STD  Y+6+1,R31
	RJMP _0x7C
_0x7E:
;}
	ADIW R28,10
	RET
;
;void SSD1963_PutValue16(unsigned int Value, unsigned int X, unsigned int Y, char N, unsigned int Color, unsigned int BackColor)
;{
_SSD1963_PutValue16:
;  switch(N)
;	Value -> Y+9
;	X -> Y+7
;	Y -> Y+5
;	N -> Y+4
;	Color -> Y+2
;	BackColor -> Y+0
	LDD  R30,Y+4
	LDI  R31,0
;  {
;    case 5 :
	CPI  R30,LOW(0x5)
	LDI  R26,HIGH(0x5)
	CPC  R31,R26
	BRNE _0x82
;      SSD1963_PutChar16(Value / 10000 + 48, X, Y, Color, BackColor);
	LDD  R26,Y+9
	LDD  R27,Y+9+1
	LDI  R30,LOW(10000)
	LDI  R31,HIGH(10000)
	CALL SUBOPT_0x15
	CALL SUBOPT_0x11
	CALL SUBOPT_0x14
	CALL SUBOPT_0x14
	CALL SUBOPT_0x16
;      Value %= 10000;
	LDI  R30,LOW(10000)
	LDI  R31,HIGH(10000)
	CALL SUBOPT_0x17
;      X += FONT_WIDTH;
;    case 4 :
	RJMP _0x83
_0x82:
	CPI  R30,LOW(0x4)
	LDI  R26,HIGH(0x4)
	CPC  R31,R26
	BRNE _0x84
_0x83:
;      SSD1963_PutChar16(Value / 1000 + 48, X, Y, Color, BackColor);
	LDD  R26,Y+9
	LDD  R27,Y+9+1
	LDI  R30,LOW(1000)
	LDI  R31,HIGH(1000)
	CALL SUBOPT_0x15
	CALL SUBOPT_0x11
	CALL SUBOPT_0x14
	CALL SUBOPT_0x14
	CALL SUBOPT_0x16
;      Value %= 1000;
	LDI  R30,LOW(1000)
	LDI  R31,HIGH(1000)
	CALL SUBOPT_0x17
;      X += FONT_WIDTH;
;    case 3 :
	RJMP _0x85
_0x84:
	CPI  R30,LOW(0x3)
	LDI  R26,HIGH(0x3)
	CPC  R31,R26
	BRNE _0x86
_0x85:
;      SSD1963_PutChar16(Value / 100 + 48, X, Y, Color, BackColor);
	LDD  R26,Y+9
	LDD  R27,Y+9+1
	LDI  R30,LOW(100)
	LDI  R31,HIGH(100)
	CALL SUBOPT_0x15
	CALL SUBOPT_0x11
	CALL SUBOPT_0x14
	CALL SUBOPT_0x14
	CALL SUBOPT_0x16
;      Value %= 100;
	LDI  R30,LOW(100)
	LDI  R31,HIGH(100)
	CALL SUBOPT_0x17
;      X += FONT_WIDTH;
;    case 2 :
	RJMP _0x87
_0x86:
	CPI  R30,LOW(0x2)
	LDI  R26,HIGH(0x2)
	CPC  R31,R26
	BRNE _0x88
_0x87:
;      SSD1963_PutChar16(Value / 10 + 48, X, Y, Color, BackColor);
	LDD  R26,Y+9
	LDD  R27,Y+9+1
	LDI  R30,LOW(10)
	LDI  R31,HIGH(10)
	CALL SUBOPT_0x15
	CALL SUBOPT_0x11
	CALL SUBOPT_0x14
	CALL SUBOPT_0x14
	CALL SUBOPT_0x16
;      Value %= 10;
	LDI  R30,LOW(10)
	LDI  R31,HIGH(10)
	CALL SUBOPT_0x17
;      X += FONT_WIDTH;
;    case 1 :
	RJMP _0x89
_0x88:
	CPI  R30,LOW(0x1)
	LDI  R26,HIGH(0x1)
	CPC  R31,R26
	BRNE _0x81
_0x89:
;      SSD1963_PutChar16(Value + 48, X, Y, Color, BackColor);
	LDD  R30,Y+9
	SUBI R30,-LOW(48)
	ST   -Y,R30
	CALL SUBOPT_0x11
	CALL SUBOPT_0x11
	CALL SUBOPT_0x14
	CALL SUBOPT_0x14
	RCALL _SSD1963_PutChar16
;    break;
;  }
_0x81:
;}
	ADIW R28,11
	RET
;
;void SSD1963_DrawFastLine(unsigned int StartX, unsigned int StopX, unsigned int StartY, unsigned int StopY, unsigned int Color)
;{
_SSD1963_DrawFastLine:
;  signed int j;
;  long i, k;
;  SSD1963_SetArea(StartX, StopX, StartY, StopY);
	CALL SUBOPT_0x18
;	StartX -> Y+18
;	StopX -> Y+16
;	StartY -> Y+14
;	StopY -> Y+12
;	Color -> Y+10
;	j -> R16,R17
;	i -> Y+6
;	k -> Y+2
;  SSD1963_WriteCmd(0x2c);
;  j = StopX - StartX + 1;
	CALL SUBOPT_0x19
;  if (j < 0) j *= -1;
	BRPL _0x8B
	CALL SUBOPT_0x1A
;  k = StopY - StartY + 1;
_0x8B:
	CALL SUBOPT_0x1B
;  if (k < 0) k *= -1;
	BRPL _0x8C
	CALL SUBOPT_0x1C
	CALL SUBOPT_0x1D
;  k = k * j;
_0x8C:
	CALL SUBOPT_0x1E
;  for (i = 0; i < k; i++) SSD1963_WriteData_b16(Color);
_0x8E:
	CALL SUBOPT_0x1F
	BRGE _0x8F
	LDD  R30,Y+10
	LDD  R31,Y+10+1
	CALL SUBOPT_0x10
	CALL SUBOPT_0x20
	RJMP _0x8E
_0x8F:
	RJMP _0x2080009
;
;void SSD1963_DrawLine (unsigned int StartX, unsigned int StopX, unsigned int StartY, unsigned int StopY, unsigned int Color, char Width)
;{
_SSD1963_DrawLine:
;	int i, k;
;  int deltaX, deltaY, signX, signY, error, error2;
;  deltaX = (StopX - StartX);
	SBIW R28,10
	CALL __SAVELOCR6
;	StartX -> Y+25
;	StopX -> Y+23
;	StartY -> Y+21
;	StopY -> Y+19
;	Color -> Y+17
;	Width -> Y+16
;	i -> R16,R17
;	k -> R18,R19
;	deltaX -> R20,R21
;	deltaY -> Y+14
;	signX -> Y+12
;	signY -> Y+10
;	error -> Y+8
;	error2 -> Y+6
	LDD  R26,Y+25
	LDD  R27,Y+25+1
	LDD  R30,Y+23
	LDD  R31,Y+23+1
	SUB  R30,R26
	SBC  R31,R27
	MOVW R20,R30
;  if (deltaX < 0) deltaX *= -1;
	TST  R21
	BRPL _0x90
	MOVW R30,R20
	LDI  R26,LOW(65535)
	LDI  R27,HIGH(65535)
	CALL __MULW12
	MOVW R20,R30
;	deltaY = (StopY - StartY);
_0x90:
	LDD  R26,Y+21
	LDD  R27,Y+21+1
	LDD  R30,Y+19
	LDD  R31,Y+19+1
	SUB  R30,R26
	SBC  R31,R27
	STD  Y+14,R30
	STD  Y+14+1,R31
;  if (deltaY < 0) deltaY *= -1;
	LDD  R26,Y+15
	TST  R26
	BRPL _0x91
	LDI  R26,LOW(65535)
	LDI  R27,HIGH(65535)
	CALL __MULW12
	STD  Y+14,R30
	STD  Y+14+1,R31
;	signX = StartX < StopX ? 1 : -1;
_0x91:
	LDD  R30,Y+23
	LDD  R31,Y+23+1
	LDD  R26,Y+25
	LDD  R27,Y+25+1
	CP   R26,R30
	CPC  R27,R31
	BRSH _0x92
	LDI  R30,LOW(1)
	LDI  R31,HIGH(1)
	RJMP _0x93
_0x92:
	LDI  R30,LOW(65535)
	LDI  R31,HIGH(65535)
_0x93:
	STD  Y+12,R30
	STD  Y+12+1,R31
;	signY = StartY < StopY ? 1 : -1;
	LDD  R30,Y+19
	LDD  R31,Y+19+1
	LDD  R26,Y+21
	LDD  R27,Y+21+1
	CP   R26,R30
	CPC  R27,R31
	BRSH _0x95
	LDI  R30,LOW(1)
	LDI  R31,HIGH(1)
	RJMP _0x96
_0x95:
	LDI  R30,LOW(65535)
	LDI  R31,HIGH(65535)
_0x96:
	STD  Y+10,R30
	STD  Y+10+1,R31
;	error = deltaX - deltaY;
	LDD  R26,Y+14
	LDD  R27,Y+14+1
	MOVW R30,R20
	SUB  R30,R26
	SBC  R31,R27
	STD  Y+8,R30
	STD  Y+8+1,R31
;
;	while(1)
_0x98:
;	{
;	  SSD1963_SetArea(StartX, StartX + Width, StartY, StartY + Width);
	LDD  R30,Y+25
	LDD  R31,Y+25+1
	ST   -Y,R31
	ST   -Y,R30
	LDD  R30,Y+18
	CALL SUBOPT_0x21
	ST   -Y,R31
	ST   -Y,R30
	LDD  R30,Y+25
	LDD  R31,Y+25+1
	ST   -Y,R31
	ST   -Y,R30
	LDD  R30,Y+22
	CALL SUBOPT_0x21
	CALL SUBOPT_0xF
;    SSD1963_WriteCmd(0x2c);
;    k = Width * Width;
	LDD  R26,Y+16
	CLR  R27
	LDD  R30,Y+16
	LDI  R31,0
	CALL __MULW12
	MOVW R18,R30
;    for (i = 0; i <= k; i++) SSD1963_WriteData_b16(Color);
	__GETWRN 16,17,0
_0x9C:
	__CPWRR 18,19,16,17
	BRLT _0x9D
	LDD  R30,Y+17
	LDD  R31,Y+17+1
	CALL SUBOPT_0x10
	__ADDWRN 16,17,1
	RJMP _0x9C
_0x9D:
	LDD  R30,Y+23
	LDD  R31,Y+23+1
	LDD  R26,Y+25
	LDD  R27,Y+25+1
	CP   R30,R26
	CPC  R31,R27
	BRNE _0x9F
	LDD  R30,Y+19
	LDD  R31,Y+19+1
	LDD  R26,Y+21
	LDD  R27,Y+21+1
	CP   R30,R26
	CPC  R31,R27
	BREQ _0xA0
_0x9F:
	RJMP _0x9E
_0xA0:
;		break;
	RJMP _0x9A
;
;		error2 = error * 2;
_0x9E:
	LDD  R30,Y+8
	LDD  R31,Y+8+1
	LSL  R30
	ROL  R31
	STD  Y+6,R30
	STD  Y+6+1,R31
;
;		if(error2 > -deltaY)
	LDD  R30,Y+14
	LDD  R31,Y+14+1
	CALL __ANEGW1
	LDD  R26,Y+6
	LDD  R27,Y+6+1
	CP   R30,R26
	CPC  R31,R27
	BRGE _0xA1
;		{
;			error -= deltaY;
	LDD  R26,Y+14
	LDD  R27,Y+14+1
	CALL SUBOPT_0x22
	STD  Y+8,R30
	STD  Y+8+1,R31
;			StartX += signX;
	LDD  R30,Y+12
	LDD  R31,Y+12+1
	LDD  R26,Y+25
	LDD  R27,Y+25+1
	ADD  R30,R26
	ADC  R31,R27
	STD  Y+25,R30
	STD  Y+25+1,R31
;		}
;
;		if(error2 < deltaX)
_0xA1:
	LDD  R26,Y+6
	LDD  R27,Y+6+1
	CP   R26,R20
	CPC  R27,R21
	BRGE _0xA2
;		{
;			error += deltaX;
	MOVW R30,R20
	LDD  R26,Y+8
	LDD  R27,Y+8+1
	ADD  R30,R26
	ADC  R31,R27
	STD  Y+8,R30
	STD  Y+8+1,R31
;			StartY += signY;
	LDD  R30,Y+10
	LDD  R31,Y+10+1
	LDD  R26,Y+21
	LDD  R27,Y+21+1
	ADD  R30,R26
	ADC  R31,R27
	STD  Y+21,R30
	STD  Y+21+1,R31
;		}
;	}
_0xA2:
	RJMP _0x98
_0x9A:
;}
	CALL __LOADLOCR6
	ADIW R28,27
	RET
;
;void SSD1963_DrawRect(unsigned int StartX, unsigned int StopX, unsigned int StartY, unsigned int StopY, unsigned int Width, unsigned int Color)
;{
_SSD1963_DrawRect:
;  SSD1963_DrawFastLine(StartX, StopX, StartY, StartY + Width, Color);
;	StartX -> Y+10
;	StopX -> Y+8
;	StartY -> Y+6
;	StopY -> Y+4
;	Width -> Y+2
;	Color -> Y+0
	CALL SUBOPT_0x12
	CALL SUBOPT_0x12
	CALL SUBOPT_0x12
	LDD  R30,Y+8
	LDD  R31,Y+8+1
	CALL SUBOPT_0x23
	CALL SUBOPT_0x11
	RCALL _SSD1963_DrawFastLine
;  SSD1963_DrawFastLine(StartX, StartX + Width, StartY, StopY, Color);
	CALL SUBOPT_0x12
	LDD  R30,Y+4
	LDD  R31,Y+4+1
	CALL SUBOPT_0x23
	CALL SUBOPT_0x12
	CALL SUBOPT_0x12
	CALL SUBOPT_0x11
	RCALL _SSD1963_DrawFastLine
;  SSD1963_DrawFastLine(StartX, StopX, StopY - Width, StopY, Color);
	CALL SUBOPT_0x12
	CALL SUBOPT_0x12
	LDD  R26,Y+6
	LDD  R27,Y+6+1
	CALL SUBOPT_0x22
	ST   -Y,R31
	ST   -Y,R30
	CALL SUBOPT_0x12
	CALL SUBOPT_0x11
	RCALL _SSD1963_DrawFastLine
;  SSD1963_DrawFastLine(StopX - Width, StopX, StartY, StopY, Color);
	LDD  R26,Y+2
	LDD  R27,Y+2+1
	CALL SUBOPT_0x22
	ST   -Y,R31
	ST   -Y,R30
	CALL SUBOPT_0x12
	CALL SUBOPT_0x12
	CALL SUBOPT_0x12
	CALL SUBOPT_0x11
	RCALL _SSD1963_DrawFastLine
;}
_0x208000A:
	ADIW R28,12
	RET
;
;void SSD1963_DrawFillRect(unsigned int StartX, unsigned int StopX, unsigned int StartY, unsigned int StopY, unsigned int Color)
;{
_SSD1963_DrawFillRect:
;  signed int j;
;  long i, k;
;  SSD1963_SetArea(StartX, StopX, StartY, StopY);
	CALL SUBOPT_0x18
;	StartX -> Y+18
;	StopX -> Y+16
;	StartY -> Y+14
;	StopY -> Y+12
;	Color -> Y+10
;	j -> R16,R17
;	i -> Y+6
;	k -> Y+2
;  SSD1963_WriteCmd(0x2c);
;  j = StopX - StartX + 1;
	CALL SUBOPT_0x19
;  if (j < 0) j *= -1;
	BRPL _0xA3
	CALL SUBOPT_0x1A
;  k = StopY - StartY + 1;
_0xA3:
	CALL SUBOPT_0x1B
;  if (k < 0) k *= -1;
	BRPL _0xA4
	CALL SUBOPT_0x1C
	CALL SUBOPT_0x1D
;  k = k * j;
_0xA4:
	CALL SUBOPT_0x1E
;  for (i = 0; i < k; i++) SSD1963_WriteData_b16(Color);
_0xA6:
	CALL SUBOPT_0x1F
	BRGE _0xA7
	LDD  R30,Y+10
	LDD  R31,Y+10+1
	CALL SUBOPT_0x10
	CALL SUBOPT_0x20
	RJMP _0xA6
_0xA7:
_0x2080009:
	LDD  R17,Y+1
	LDD  R16,Y+0
	ADIW R28,20
	RET
;
;void SSD1963_PutFloatValue16(unsigned int Value, unsigned int X, unsigned int Y, unsigned int Color, unsigned int BackColor)
;{
;  SSD1963_PutChar16(Value / 10000 + 48, X, Y, Color, BackColor);
;	Value -> Y+8
;	X -> Y+6
;	Y -> Y+4
;	Color -> Y+2
;	BackColor -> Y+0
;  Value %= 10000;
;  X += FONT_WIDTH;
;  SSD1963_PutChar16(Value / 1000 + 48, X, Y, Color, BackColor);
;  Value %= 1000;
;  X += FONT_WIDTH;
;  SSD1963_PutChar16('.', X, Y, Color, BackColor);
;  X += FONT_WIDTH;
;  SSD1963_PutChar16(Value / 100 + 48, X, Y, Color, BackColor);
;  Value %= 100;
;  X += FONT_WIDTH;
;  SSD1963_PutChar16(Value / 10 + 48, X, Y, Color, BackColor);
;  Value %= 10;
;  X += FONT_WIDTH;
;  SSD1963_PutChar16(Value + 48, X, Y, Color, BackColor);
;}
;
;#pragma used-
;
;#include "TSC2046.c"
;#include <spi.h>
;#include <delay.h>
;
;#define TOUCH_CS PORTE.2
;#define TOUCH_IRQ_PORT PORTE.3
;#define TOUCH_IRQ PINE.3
;
;#define ADC_X_MIN 1300
;#define ADC_Y_MIN 2100
;#define ADC_X_K 61.458333333333333333333333333333
;#define ADC_Y_K 103.30882352941176470588235294118
;
;#define TOUCH_Calc_Max 16
;
;void TSC2046_PortInit(void)
; 0000 001C {
_TSC2046_PortInit:
;  DDRE |= 0b00000100;
	SBI  0x2,2
;  DDRE &= 0b11110111;
	CBI  0x2,3
;}
	RET
;
;#pragma used+
;long tempX, tempY;
;unsigned int TOUCH_X, TOUCH_Y, TOUCH_X_LAST, TOUCH_Y_LAST;
;
;unsigned int TSC2046_getADC_Bat(void)
;{
;  unsigned int res;
;  TOUCH_CS = 0;
;	res -> R16,R17
;  delay_ms(1);
;  spi(0b10100011);
;  delay_us(100);
;  res = spi(0x00);
;  res = res << 8;
;  res += spi(0x00);
;  //res = res >> 3;
;  TOUCH_CS = 1;
;  return res;
;}
;
;unsigned int TSC2046_getADC_X(void)
;{
_TSC2046_getADC_X:
;  unsigned int res;
;  TOUCH_CS = 0;
	ST   -Y,R17
	ST   -Y,R16
;	res -> R16,R17
	CBI  0x3,2
;  delay_ms(1);
	CALL SUBOPT_0x7
;  spi(0b11010011);
	LDI  R30,LOW(211)
	CALL SUBOPT_0x24
;  delay_us(100);
;  res = spi(0x00);
;  res = res << 8;
;  res += spi(0x00);
;  //res = res >> 3;
;  TOUCH_CS = 1;
;  return res;
	RJMP _0x2080008
;}
;
;unsigned int TSC2046_getADC_Y(void)
;{
_TSC2046_getADC_Y:
;  unsigned int res;
;  TOUCH_CS = 0;
	ST   -Y,R17
	ST   -Y,R16
;	res -> R16,R17
	CBI  0x3,2
;  delay_ms(1);
	CALL SUBOPT_0x7
;  spi(0b10010011);
	LDI  R30,LOW(147)
	CALL SUBOPT_0x24
;  delay_us(100);
;  res = spi(0x00);
;  res = res << 8;
;  res += spi(0x00);
;  //res = res >> 3;
;  TOUCH_CS = 1;
;  return res;
	RJMP _0x2080008
;}
;
;void TSC2046_Stop()
;{
_TSC2046_Stop:
;  TOUCH_CS = 0;
	CBI  0x3,2
;  delay_ms(5);
	LDI  R30,LOW(5)
	LDI  R31,HIGH(5)
	CALL SUBOPT_0x9
;  spi(0b10010000);
	LDI  R30,LOW(144)
	ST   -Y,R30
	CALL _spi
;  delay_us(100);
	__DELAY_USW 400
;  spi(0x00);
	LDI  R30,LOW(0)
	ST   -Y,R30
	CALL _spi
;  spi(0x00);
	LDI  R30,LOW(0)
	ST   -Y,R30
	CALL _spi
;  TOUCH_CS = 1;
	SBI  0x3,2
;}
	RET
;
;unsigned int TSC2046_getX(void)
;{
_TSC2046_getX:
;  signed int res;
;  res = TSC2046_getADC_X() - ADC_X_MIN;
	ST   -Y,R17
	ST   -Y,R16
;	res -> R16,R17
	RCALL _TSC2046_getADC_X
	SUBI R30,LOW(1300)
	SBCI R31,HIGH(1300)
	MOVW R16,R30
;  if (res < 0) res = 0;
	TST  R17
	BRPL _0xB8
	__GETWRN 16,17,0
;  res = res / ADC_X_K;
_0xB8:
	CALL SUBOPT_0x25
	__GETD1N 0x4275D555
	CALL SUBOPT_0x26
;  return res;
	RJMP _0x2080008
;}
;
;unsigned int TSC2046_getY(void)
;{
_TSC2046_getY:
;  signed int res;
;  res = TSC2046_getADC_Y() - ADC_Y_MIN;
	ST   -Y,R17
	ST   -Y,R16
;	res -> R16,R17
	RCALL _TSC2046_getADC_Y
	SUBI R30,LOW(2100)
	SBCI R31,HIGH(2100)
	MOVW R16,R30
;  if (res < 0) res = 0;
	TST  R17
	BRPL _0xB9
	__GETWRN 16,17,0
;  res = res / ADC_Y_K;
_0xB9:
	CALL SUBOPT_0x25
	__GETD1N 0x42CE9E1E
	CALL SUBOPT_0x26
;  return res;
	RJMP _0x2080008
;}
;
;char TSC2046_GetCoordinates(void)
;{
_TSC2046_GetCoordinates:
;  char res = 0, i;
;
;  if (TOUCH_IRQ < 1)
	ST   -Y,R17
	ST   -Y,R16
;	res -> R17
;	i -> R16
	LDI  R17,0
	CALL SUBOPT_0x27
	BRLO PC+3
	JMP _0xBA
;  {
;    tempX = 0;
	CALL SUBOPT_0x28
;    tempY = 0;
	CALL SUBOPT_0x29
;    for (i = 0; i < TOUCH_Calc_Max; i++)
	LDI  R16,LOW(0)
_0xBC:
	CPI  R16,16
	BRSH _0xBD
;    {
;        tempX += TSC2046_getADC_X() - ADC_X_MIN;
	RCALL _TSC2046_getADC_X
	SUBI R30,LOW(1300)
	SBCI R31,HIGH(1300)
	CALL SUBOPT_0x2A
;        tempY += TSC2046_getADC_Y() - ADC_Y_MIN;
	RCALL _TSC2046_getADC_Y
	SUBI R30,LOW(2100)
	SBCI R31,HIGH(2100)
	CALL SUBOPT_0x2B
;    }
	SUBI R16,-1
	RJMP _0xBC
_0xBD:
;    if (tempX < 0) tempX = 0;
	LDS  R26,_tempX+3
	TST  R26
	BRPL _0xBE
	CALL SUBOPT_0x28
;    if (tempY < 0) tempY = 0;
_0xBE:
	LDS  R26,_tempY+3
	TST  R26
	BRPL _0xBF
	CALL SUBOPT_0x29
;
;    TOUCH_X = tempX / (TOUCH_Calc_Max * ADC_X_K);
_0xBF:
	LDS  R30,_tempX
	LDS  R31,_tempX+1
	LDS  R22,_tempX+2
	LDS  R23,_tempX+3
	CALL __CDF1
	MOVW R26,R30
	MOVW R24,R22
	__GETD1N 0x4475D555
	CALL __DIVF21
	CALL __CFD1U
	MOVW R4,R30
;    TOUCH_Y = tempY / (TOUCH_Calc_Max * ADC_Y_K);
	LDS  R30,_tempY
	LDS  R31,_tempY+1
	LDS  R22,_tempY+2
	LDS  R23,_tempY+3
	CALL __CDF1
	MOVW R26,R30
	MOVW R24,R22
	__GETD1N 0x44CE9E1E
	CALL __DIVF21
	CALL __CFD1U
	MOVW R6,R30
;
;    TSC2046_Stop();
	RCALL _TSC2046_Stop
;    res = 1;
	LDI  R17,LOW(1)
;  }
;
;  return res;
_0xBA:
	MOV  R30,R17
_0x2080008:
	LD   R16,Y+
	LD   R17,Y+
	RET
;}
;
;void TSC2046_Init(void)
;{
_TSC2046_Init:
;  char i;
;  TSC2046_PortInit();
	ST   -Y,R17
;	i -> R17
	RCALL _TSC2046_PortInit
;  TOUCH_CS = 0;
	CBI  0x3,2
;  TOUCH_IRQ_PORT = 0;
	CBI  0x3,3
;  delay_us(10);
	__DELAY_USB 53
;  TOUCH_CS = 1;
	SBI  0x3,2
;  TOUCH_IRQ_PORT = 1;
	SBI  0x3,3
;  tempX = 0;
	CALL SUBOPT_0x28
;    tempY = 0;
	CALL SUBOPT_0x29
;    for (i = 0; i < TOUCH_Calc_Max; i++)
	LDI  R17,LOW(0)
_0xC9:
	CPI  R17,16
	BRSH _0xCA
;    {
;      tempX += TSC2046_getX();
	RCALL _TSC2046_getX
	CALL SUBOPT_0x2A
;      tempY += TSC2046_getY();
	RCALL _TSC2046_getY
	CALL SUBOPT_0x2B
;    }
	SUBI R17,-1
	RJMP _0xC9
_0xCA:
;    TOUCH_X = tempX / TOUCH_Calc_Max;
	LDS  R26,_tempX
	LDS  R27,_tempX+1
	LDS  R24,_tempX+2
	LDS  R25,_tempX+3
	CALL SUBOPT_0x2C
	MOVW R4,R30
;    TOUCH_Y = tempY / TOUCH_Calc_Max;
	LDS  R26,_tempY
	LDS  R27,_tempY+1
	LDS  R24,_tempY+2
	LDS  R25,_tempY+3
	CALL SUBOPT_0x2C
	MOVW R6,R30
;    TSC2046_Stop();
	RCALL _TSC2046_Stop
;}
	RJMP _0x2080005
;
;#pragma used-
;
;#ifndef RXB8
;#define RXB8 1
;#endif
;
;#ifndef TXB8
;#define TXB8 0
;#endif
;
;#ifndef UPE
;#define UPE 2
;#endif
;
;#ifndef DOR
;#define DOR 3
;#endif
;
;#ifndef FE
;#define FE 4
;#endif
;
;#ifndef UDRE
;#define UDRE 5
;#endif
;
;#ifndef RXC
;#define RXC 7
;#endif
;
;#define FRAMING_ERROR (1<<FE)
;#define PARITY_ERROR (1<<UPE)
;#define DATA_OVERRUN (1<<DOR)
;#define DATA_REGISTER_EMPTY (1<<UDRE)
;#define RX_COMPLETE (1<<RXC)
;
;// USART2 Receiver buffer
;#define RX_BUFFER_SIZE2 20
;char rx_buffer2[RX_BUFFER_SIZE2];
;
;#if RX_BUFFER_SIZE2 <= 256
;unsigned char rx_wr_index2,rx_rd_index2,rx_counter2;
;#else
;unsigned int rx_wr_index2,rx_rd_index2,rx_counter2;
;#endif
;
;//Переключатель юарта
;char uart_swap = 0;
;
;// USART0 Receiver buffer
;#define RX_BUFFER_SIZE0 256
;char rx_buffer0[RX_BUFFER_SIZE0];
;
;#if RX_BUFFER_SIZE0 <= 256
;unsigned char rx_wr_index0,rx_rd_index0,rx_counter0;
;#else
;unsigned int rx_wr_index0,rx_rd_index0,rx_counter0;
;#endif
;
;// This flag is set on USART0 Receiver buffer overflow
;bit rx_buffer_overflow0;
;
;// USART0 Receiver interrupt service routine
;interrupt [USART0_RXC] void usart0_rx_isr(void)
; 0000 005C {
_usart0_rx_isr:
	ST   -Y,R30
	ST   -Y,R31
	IN   R30,SREG
	ST   -Y,R30
; 0000 005D char status,data;
; 0000 005E status=UCSR0A;
	ST   -Y,R17
	ST   -Y,R16
;	status -> R17
;	data -> R16
	IN   R17,11
; 0000 005F data=UDR0;
	IN   R16,12
; 0000 0060 if ((status & (FRAMING_ERROR | PARITY_ERROR | DATA_OVERRUN))==0)
	MOV  R30,R17
	ANDI R30,LOW(0x1C)
	BRNE _0xCB
; 0000 0061 {
; 0000 0062    if(uart_swap) //Юарт 2
	LDS  R30,_uart_swap
	CPI  R30,0
	BREQ _0xCC
; 0000 0063    {
; 0000 0064       rx_buffer2[rx_wr_index2++]=data;
	MOV  R30,R13
	INC  R13
	LDI  R31,0
	SUBI R30,LOW(-_rx_buffer2)
	SBCI R31,HIGH(-_rx_buffer2)
	ST   Z,R16
; 0000 0065       if (rx_wr_index2 == RX_BUFFER_SIZE2) rx_wr_index2=0;
	LDI  R30,LOW(20)
	CP   R30,R13
	BRNE _0xCD
	CLR  R13
; 0000 0066       ++rx_counter2;
_0xCD:
	LDS  R30,_rx_counter2
	SUBI R30,-LOW(1)
	STS  _rx_counter2,R30
; 0000 0067    }
; 0000 0068    else if(!rx_buffer_overflow0) //Юарт 0
	RJMP _0xCE
_0xCC:
	SBRC R2,0
	RJMP _0xCF
; 0000 0069    {
; 0000 006A    rx_buffer0[rx_wr_index0++]=data;
	LDS  R30,_rx_wr_index0
	SUBI R30,-LOW(1)
	STS  _rx_wr_index0,R30
	CALL SUBOPT_0x2D
	ST   Z,R16
; 0000 006B #if RX_BUFFER_SIZE0 == 256
; 0000 006C    // special case for receiver buffer size=256
; 0000 006D    if (++rx_counter0 == 0)
	LDS  R30,_rx_counter0
	SUBI R30,-LOW(1)
	STS  _rx_counter0,R30
	CPI  R30,0
	BRNE _0xD0
; 0000 006E       {
; 0000 006F #else
; 0000 0070    if (rx_wr_index0 == RX_BUFFER_SIZE0) rx_wr_index0=0;
; 0000 0071    if (++rx_counter0 == RX_BUFFER_SIZE0)
; 0000 0072       {
; 0000 0073       //rx_counter0=0;
; 0000 0074 #endif
; 0000 0075       rx_buffer_overflow0=1;  //Ааааа переполнение
	SET
	BLD  R2,0
; 0000 0076       rx_counter0=RX_BUFFER_SIZE0-1;
	LDI  R30,LOW(255)
	STS  _rx_counter0,R30
; 0000 0077       if(rx_wr_index0) rx_wr_index0--; else rx_wr_index0=rx_counter0;
	LDS  R30,_rx_wr_index0
	CPI  R30,0
	BREQ _0xD1
	SUBI R30,LOW(1)
	RJMP _0x212
_0xD1:
	LDS  R30,_rx_counter0
_0x212:
	STS  _rx_wr_index0,R30
; 0000 0078       }
; 0000 0079    }
_0xD0:
; 0000 007A }
_0xCF:
_0xCE:
; 0000 007B }
_0xCB:
	LD   R16,Y+
	LD   R17,Y+
	LD   R30,Y+
	OUT  SREG,R30
	LD   R31,Y+
	LD   R30,Y+
	RETI
;
;#ifndef _DEBUG_TERMINAL_IO_
;// Get a character from the USART0 Receiver buffer
;#define _ALTERNATE_GETCHAR_
;#pragma used+
;char getchar0(void)
; 0000 0082 {
_getchar0:
; 0000 0083 char data;
; 0000 0084 while (rx_counter0==0);
	ST   -Y,R17
;	data -> R17
_0xD3:
	LDS  R30,_rx_counter0
	CPI  R30,0
	BREQ _0xD3
; 0000 0085 data=rx_buffer0[rx_rd_index0++];
	LDS  R30,_rx_rd_index0
	SUBI R30,-LOW(1)
	STS  _rx_rd_index0,R30
	CALL SUBOPT_0x2D
	LD   R17,Z
; 0000 0086 #if RX_BUFFER_SIZE0 != 256
; 0000 0087 if (rx_rd_index0 == RX_BUFFER_SIZE0) rx_rd_index0=0;
; 0000 0088 #endif
; 0000 0089 #asm("cli")
	cli
; 0000 008A --rx_counter0;
	LDS  R30,_rx_counter0
	SUBI R30,LOW(1)
	STS  _rx_counter0,R30
; 0000 008B #asm("sei")
	sei
; 0000 008C return data;
	RJMP _0x2080004
; 0000 008D }
;
;
;char getchar2(void) //Юарт 2
; 0000 0091 {
_getchar2:
; 0000 0092 char data;
; 0000 0093 while (rx_counter2==0);
	ST   -Y,R17
;	data -> R17
_0xD6:
	LDS  R30,_rx_counter2
	CPI  R30,0
	BREQ _0xD6
; 0000 0094 data=rx_buffer2[rx_rd_index2++];
	MOV  R30,R12
	INC  R12
	LDI  R31,0
	SUBI R30,LOW(-_rx_buffer2)
	SBCI R31,HIGH(-_rx_buffer2)
	LD   R17,Z
; 0000 0095 if (rx_rd_index2 == RX_BUFFER_SIZE2) rx_rd_index2=0;
	LDI  R30,LOW(20)
	CP   R30,R12
	BRNE _0xD9
	CLR  R12
; 0000 0096 #asm("cli")
_0xD9:
	cli
; 0000 0097 --rx_counter2;
	LDS  R30,_rx_counter2
	SUBI R30,LOW(1)
	STS  _rx_counter2,R30
; 0000 0098 #asm("sei")
	sei
; 0000 0099 return data;
	RJMP _0x2080004
; 0000 009A }
;
;#pragma used-
;#endif
;
;// USART0 Transmitter buffer
;#define TX_BUFFER_SIZE0 8
;char tx_buffer0[TX_BUFFER_SIZE0];
;
;#if TX_BUFFER_SIZE0 <= 256
;unsigned char tx_wr_index0,tx_rd_index0,tx_counter0;
;#else
;unsigned int tx_wr_index0,tx_rd_index0,tx_counter0;
;#endif
;
;// USART0 Transmitter interrupt service routine
;interrupt [USART0_TXC] void usart0_tx_isr(void)
; 0000 00AB {
_usart0_tx_isr:
	CALL SUBOPT_0x2E
; 0000 00AC if (tx_counter0)
	LDS  R30,_tx_counter0
	CPI  R30,0
	BREQ _0xDA
; 0000 00AD    {
; 0000 00AE    --tx_counter0;
	SUBI R30,LOW(1)
	STS  _tx_counter0,R30
; 0000 00AF    UDR0=tx_buffer0[tx_rd_index0++];
	LDS  R30,_tx_rd_index0
	SUBI R30,-LOW(1)
	STS  _tx_rd_index0,R30
	CALL SUBOPT_0x2F
	LD   R30,Z
	OUT  0xC,R30
; 0000 00B0 #if TX_BUFFER_SIZE0 != 256
; 0000 00B1    if (tx_rd_index0 == TX_BUFFER_SIZE0) tx_rd_index0=0;
	LDS  R26,_tx_rd_index0
	CPI  R26,LOW(0x8)
	BRNE _0xDB
	LDI  R30,LOW(0)
	STS  _tx_rd_index0,R30
; 0000 00B2 #endif
; 0000 00B3    }
_0xDB:
; 0000 00B4 }
_0xDA:
	RJMP _0x218
;
;#ifndef _DEBUG_TERMINAL_IO_
;// Write a character to the USART0 Transmitter buffer
;#define _ALTERNATE_PUTCHAR_
;#pragma used+
;void putchar0_i(char c)
; 0000 00BB {
_putchar0_i:
; 0000 00BC while (tx_counter0 == TX_BUFFER_SIZE0);
;	c -> Y+0
_0xDC:
	LDS  R26,_tx_counter0
	CPI  R26,LOW(0x8)
	BREQ _0xDC
; 0000 00BD #asm("cli")
	cli
; 0000 00BE if (tx_counter0 || ((UCSR0A & DATA_REGISTER_EMPTY)==0))
	LDS  R30,_tx_counter0
	CPI  R30,0
	BRNE _0xE0
	SBIC 0xB,5
	RJMP _0xDF
_0xE0:
; 0000 00BF    {
; 0000 00C0    tx_buffer0[tx_wr_index0++]=c;
	LDS  R30,_tx_wr_index0
	SUBI R30,-LOW(1)
	STS  _tx_wr_index0,R30
	CALL SUBOPT_0x2F
	LD   R26,Y
	STD  Z+0,R26
; 0000 00C1 #if TX_BUFFER_SIZE0 != 256
; 0000 00C2    if (tx_wr_index0 == TX_BUFFER_SIZE0) tx_wr_index0=0;
	LDS  R26,_tx_wr_index0
	CPI  R26,LOW(0x8)
	BRNE _0xE2
	LDI  R30,LOW(0)
	STS  _tx_wr_index0,R30
; 0000 00C3 #endif
; 0000 00C4    ++tx_counter0;
_0xE2:
	LDS  R30,_tx_counter0
	SUBI R30,-LOW(1)
	STS  _tx_counter0,R30
; 0000 00C5    }
; 0000 00C6 else
	RJMP _0xE3
_0xDF:
; 0000 00C7    UDR0=c;
	LD   R30,Y
	OUT  0xC,R30
; 0000 00C8 #asm("sei")
_0xE3:
	sei
	RJMP _0x2080007
; 0000 00C9 }
;
;inline void putchar0(char c)
; 0000 00CC {
_putchar0:
; 0000 00CD     uart_swap = 0;
;	c -> Y+0
	LDI  R30,LOW(0)
	CALL SUBOPT_0x30
; 0000 00CE     putchar0_i(c);
; 0000 00CF }
	RJMP _0x2080006
;
;inline void putchar2(char c)
; 0000 00D2 {
_putchar2:
; 0000 00D3     uart_swap = 2;
;	c -> Y+0
	LDI  R30,LOW(2)
	CALL SUBOPT_0x30
; 0000 00D4     putchar0_i(c);
; 0000 00D5 }
	RJMP _0x2080006
;
;#pragma used-
;#endif
;
;// USART1 Receiver buffer
;#define RX_BUFFER_SIZE1 32
;char rx_buffer1[RX_BUFFER_SIZE1];
;
;#if RX_BUFFER_SIZE1 <= 256
;unsigned char rx_wr_index1,rx_rd_index1,rx_counter1;
;#else
;unsigned int rx_wr_index1,rx_rd_index1,rx_counter1;
;#endif
;
;// This flag is set on USART1 Receiver buffer overflow
;bit rx_buffer_overflow1;
;
;// USART1 Receiver interrupt service routine
;interrupt [USART1_RXC] void usart1_rx_isr(void)
; 0000 00E9 {
_usart1_rx_isr:
	CALL SUBOPT_0x2E
; 0000 00EA char status,data;
; 0000 00EB status=UCSR1A;
	ST   -Y,R17
	ST   -Y,R16
;	status -> R17
;	data -> R16
	LDS  R17,155
; 0000 00EC data=UDR1;
	LDS  R16,156
; 0000 00ED if ((status & (FRAMING_ERROR | PARITY_ERROR | DATA_OVERRUN))==0)
	MOV  R30,R17
	ANDI R30,LOW(0x1C)
	BRNE _0xE4
; 0000 00EE    {
; 0000 00EF    rx_buffer1[rx_wr_index1++]=data;
	LDS  R30,_rx_wr_index1
	SUBI R30,-LOW(1)
	STS  _rx_wr_index1,R30
	CALL SUBOPT_0x31
	SUBI R30,LOW(-_rx_buffer1)
	SBCI R31,HIGH(-_rx_buffer1)
	ST   Z,R16
; 0000 00F0 #if RX_BUFFER_SIZE1 == 256
; 0000 00F1    // special case for receiver buffer size=256
; 0000 00F2    if (++rx_counter1 == 0)
; 0000 00F3       {
; 0000 00F4 #else
; 0000 00F5    if (rx_wr_index1 == RX_BUFFER_SIZE1) rx_wr_index1=0;
	LDS  R26,_rx_wr_index1
	CPI  R26,LOW(0x20)
	BRNE _0xE5
	LDI  R30,LOW(0)
	STS  _rx_wr_index1,R30
; 0000 00F6    if (++rx_counter1 == RX_BUFFER_SIZE1)
_0xE5:
	LDS  R26,_rx_counter1
	SUBI R26,-LOW(1)
	STS  _rx_counter1,R26
	CPI  R26,LOW(0x20)
	BRNE _0xE6
; 0000 00F7       {
; 0000 00F8       rx_counter1=0;
	LDI  R30,LOW(0)
	STS  _rx_counter1,R30
; 0000 00F9 #endif
; 0000 00FA       rx_buffer_overflow1=1;
	SET
	BLD  R2,1
; 0000 00FB       }
; 0000 00FC    }
_0xE6:
; 0000 00FD }
_0xE4:
	LD   R16,Y+
	LD   R17,Y+
	RJMP _0x218
;
;// Get a character from the USART1 Receiver buffer
;#pragma used+
;char getchar(void)
; 0000 0102 {
; 0000 0103 char data;
; 0000 0104 while (rx_counter1==0);
;	data -> R17
; 0000 0105 data=rx_buffer1[rx_rd_index1++];
; 0000 0106 #if RX_BUFFER_SIZE1 != 256
; 0000 0107 if (rx_rd_index1 == RX_BUFFER_SIZE1) rx_rd_index1=0;
; 0000 0108 #endif
; 0000 0109 #asm("cli")
; 0000 010A --rx_counter1;
; 0000 010B #asm("sei")
; 0000 010C return data;
; 0000 010D }
;#pragma used-
;// USART1 Transmitter buffer
;#define TX_BUFFER_SIZE1 64
;char tx_buffer1[TX_BUFFER_SIZE1];
;
;#if TX_BUFFER_SIZE1 <= 256
;unsigned char tx_wr_index1,tx_rd_index1,tx_counter1;
;#else
;unsigned int tx_wr_index1,tx_rd_index1,tx_counter1;
;#endif
;
;// USART1 Transmitter interrupt service routine
;interrupt [USART1_TXC] void usart1_tx_isr(void)
; 0000 011B {
_usart1_tx_isr:
	CALL SUBOPT_0x2E
; 0000 011C if (tx_counter1)
	LDS  R30,_tx_counter1
	CPI  R30,0
	BREQ _0xEB
; 0000 011D    {
; 0000 011E    --tx_counter1;
	SUBI R30,LOW(1)
	STS  _tx_counter1,R30
; 0000 011F    UDR1=tx_buffer1[tx_rd_index1++];
	LDS  R30,_tx_rd_index1
	SUBI R30,-LOW(1)
	STS  _tx_rd_index1,R30
	CALL SUBOPT_0x31
	SUBI R30,LOW(-_tx_buffer1)
	SBCI R31,HIGH(-_tx_buffer1)
	LD   R30,Z
	STS  156,R30
; 0000 0120 #if TX_BUFFER_SIZE1 != 256
; 0000 0121    if (tx_rd_index1 == TX_BUFFER_SIZE1) tx_rd_index1=0;
	LDS  R26,_tx_rd_index1
	CPI  R26,LOW(0x40)
	BRNE _0xEC
	LDI  R30,LOW(0)
	STS  _tx_rd_index1,R30
; 0000 0122 #endif
; 0000 0123    }
_0xEC:
; 0000 0124 }
_0xEB:
_0x218:
	LD   R30,Y+
	OUT  SREG,R30
	LD   R31,Y+
	LD   R30,Y+
	LD   R26,Y+
	RETI
;
;// Write a character to the USART1 Transmitter buffer
;#pragma used+
;void putchar(char c)
; 0000 0129 {
_putchar:
; 0000 012A while (tx_counter1 == TX_BUFFER_SIZE1);
;	c -> Y+0
_0xED:
	LDS  R26,_tx_counter1
	CPI  R26,LOW(0x40)
	BREQ _0xED
; 0000 012B #asm("cli")
	cli
; 0000 012C if (tx_counter1 || ((UCSR1A & DATA_REGISTER_EMPTY)==0))
	LDS  R30,_tx_counter1
	CPI  R30,0
	BRNE _0xF1
	LDS  R30,155
	ANDI R30,LOW(0x20)
	BRNE _0xF0
_0xF1:
; 0000 012D    {
; 0000 012E    tx_buffer1[tx_wr_index1++]=c;
	LDS  R30,_tx_wr_index1
	SUBI R30,-LOW(1)
	STS  _tx_wr_index1,R30
	CALL SUBOPT_0x31
	SUBI R30,LOW(-_tx_buffer1)
	SBCI R31,HIGH(-_tx_buffer1)
	LD   R26,Y
	STD  Z+0,R26
; 0000 012F #if TX_BUFFER_SIZE1 != 256
; 0000 0130    if (tx_wr_index1 == TX_BUFFER_SIZE1) tx_wr_index1=0;
	LDS  R26,_tx_wr_index1
	CPI  R26,LOW(0x40)
	BRNE _0xF3
	LDI  R30,LOW(0)
	STS  _tx_wr_index1,R30
; 0000 0131 #endif
; 0000 0132    ++tx_counter1;
_0xF3:
	LDS  R30,_tx_counter1
	SUBI R30,-LOW(1)
	STS  _tx_counter1,R30
; 0000 0133    }
; 0000 0134 else
	RJMP _0xF4
_0xF0:
; 0000 0135    UDR1=c;
	LD   R30,Y
	STS  156,R30
; 0000 0136 #asm("sei")
_0xF4:
	sei
_0x2080007:
; 0000 0137 }
_0x2080006:
	ADIW R28,1
	RET
;#pragma used-
;
;// Standard Input/Output functions
;#include <stdio.h>
;
;
;/////////////////////////////////////////////////////////////////////////////////
;/////////////////////////////////////////////////////////////////////////////////
;#define RS485 PORTD.4
;#define BACKLIGHT PORTB.7
;
;#define Graph_X_Min 0
;#define Graph_X_Max 478
;#define Graph_Y_Min 42
;#define Graph_Y_Max 232
;#define Graph_Step_N 2 //1..3
;#define Graph_PointCount 80
;
;flash unsigned int Graph_X_Step = (Graph_X_Max-Graph_X_Min+2)/Graph_PointCount;
;flash unsigned int Graph_Y_Mid = (Graph_Y_Max-Graph_Y_Min)/2 + Graph_Y_Min;
;
;#define Text_StartX 16
;#define Text_StartY 6
;
;#define Value_StartX 290
;#define Value_StartY 6
;#define Value_Lenght (16*4)
;
;#define BTN_StartX 6
;#define BTN_StartY 240
;#define BTN_Width 100
;#define BTN_Height 30
;#define BTN_Between 20
;
;flash unsigned int BTN1_Y_Begin = BTN_StartY;
;flash unsigned int BTN1_Y_End = BTN_StartY + BTN_Height;
;flash unsigned int BTN1_X_Begin = BTN_StartX;
;flash unsigned int BTN1_X_End = BTN_StartX + BTN_Width;
;
;flash unsigned int BTN2_Y_Begin = BTN_StartY;
;flash unsigned int BTN2_Y_End = BTN_StartY + BTN_Height;
;flash unsigned int BTN2_X_Begin = BTN_StartX + BTN_Width + BTN_Between;
;flash unsigned int BTN2_X_End = BTN_StartX + (BTN_Width * 2) + BTN_Between;
;
;flash unsigned int BTN3_Y_Begin = BTN_StartY;
;flash unsigned int BTN3_Y_End = BTN_StartY + BTN_Height;
;flash unsigned int BTN3_X_Begin = BTN_StartX + (BTN_Width * 2) + (BTN_Between * 2);
;flash unsigned int BTN3_X_End = BTN_StartX + (BTN_Width * 3) + (BTN_Between * 2);
;
;flash unsigned int BTN4_Y_Begin = BTN_StartY;
;flash unsigned int BTN4_Y_End = BTN_StartY + BTN_Height;
;flash unsigned int BTN4_X_Begin = BTN_StartX + (BTN_Width * 3) + (BTN_Between * 3);
;flash unsigned int BTN4_X_End = BTN_StartX + (BTN_Width * 4) + (BTN_Between * 3);
;
;void Repaint_Button(unsigned char* String, char Number, unsigned int Color, unsigned int BackColor)
; 0000 016F {
_Repaint_Button:
; 0000 0170   switch(Number)
;	*String -> Y+5
;	Number -> Y+4
;	Color -> Y+2
;	BackColor -> Y+0
	LDD  R30,Y+4
	CALL SUBOPT_0x32
; 0000 0171   {
; 0000 0172     case 1 :
	BRNE _0xF8
; 0000 0173       SSD1963_PutString16("     ", BTN1_X_Begin + 10, BTN1_Y_Begin + (BTN_Height / 2) - (FONT_HEIGHT / 2), Color, BackColor);
	__POINTW1MN _0xF9,0
	ST   -Y,R31
	ST   -Y,R30
	LDI  R30,LOW(16)
	LDI  R31,HIGH(16)
	CALL SUBOPT_0x33
	CALL SUBOPT_0x11
	CALL SUBOPT_0x34
; 0000 0174       SSD1963_PutString16(String, BTN1_X_Begin + 10, BTN1_Y_Begin + (BTN_Height / 2) - (FONT_HEIGHT / 2), Color, BackColor);
	LDI  R30,LOW(16)
	LDI  R31,HIGH(16)
	RJMP _0x213
; 0000 0175     break;
; 0000 0176     case 2 :
_0xF8:
	CPI  R30,LOW(0x2)
	LDI  R26,HIGH(0x2)
	CPC  R31,R26
	BRNE _0xFA
; 0000 0177       SSD1963_PutString16("     ", BTN2_X_Begin + 10, BTN2_Y_Begin + (BTN_Height / 2) - (FONT_HEIGHT / 2), Color, BackColor);
	__POINTW1MN _0xF9,6
	ST   -Y,R31
	ST   -Y,R30
	LDI  R30,LOW(136)
	LDI  R31,HIGH(136)
	CALL SUBOPT_0x33
	CALL SUBOPT_0x11
	CALL SUBOPT_0x34
; 0000 0178       SSD1963_PutString16(String, BTN2_X_Begin + 10, BTN2_Y_Begin + (BTN_Height / 2) - (FONT_HEIGHT / 2), Color, BackColor);
	LDI  R30,LOW(136)
	LDI  R31,HIGH(136)
	RJMP _0x213
; 0000 0179     break;
; 0000 017A     case 3 :
_0xFA:
	CPI  R30,LOW(0x3)
	LDI  R26,HIGH(0x3)
	CPC  R31,R26
	BRNE _0xFB
; 0000 017B       SSD1963_PutString16("     ", BTN3_X_Begin + 10, BTN3_Y_Begin + (BTN_Height / 2) - (FONT_HEIGHT / 2), Color, BackColor);
	__POINTW1MN _0xF9,12
	ST   -Y,R31
	ST   -Y,R30
	LDI  R30,LOW(256)
	LDI  R31,HIGH(256)
	CALL SUBOPT_0x33
	CALL SUBOPT_0x11
	CALL SUBOPT_0x34
; 0000 017C       SSD1963_PutString16(String, BTN3_X_Begin + 10, BTN3_Y_Begin + (BTN_Height / 2) - (FONT_HEIGHT / 2), Color, BackColor);
	LDI  R30,LOW(256)
	LDI  R31,HIGH(256)
	RJMP _0x213
; 0000 017D     break;
; 0000 017E     case 4 :
_0xFB:
	CPI  R30,LOW(0x4)
	LDI  R26,HIGH(0x4)
	CPC  R31,R26
	BRNE _0xF7
; 0000 017F       SSD1963_PutString16("     ", BTN4_X_Begin + 10, BTN4_Y_Begin + (BTN_Height / 2) - (FONT_HEIGHT / 2), Color, BackColor);
	__POINTW1MN _0xF9,18
	ST   -Y,R31
	ST   -Y,R30
	LDI  R30,LOW(376)
	LDI  R31,HIGH(376)
	CALL SUBOPT_0x33
	CALL SUBOPT_0x11
	CALL SUBOPT_0x34
; 0000 0180       SSD1963_PutString16(String, BTN4_X_Begin + 10, BTN4_Y_Begin + (BTN_Height / 2) - (FONT_HEIGHT / 2), Color, BackColor);
	LDI  R30,LOW(376)
	LDI  R31,HIGH(376)
_0x213:
	ST   -Y,R31
	ST   -Y,R30
	LDI  R30,LOW(247)
	LDI  R31,HIGH(247)
	ST   -Y,R31
	ST   -Y,R30
	CALL SUBOPT_0x11
	CALL SUBOPT_0x11
	CALL _SSD1963_PutString16
; 0000 0181     break;
; 0000 0182   }
_0xF7:
; 0000 0183 }
	RJMP _0x2080003

	.DSEG
_0xF9:
	.BYTE 0x18
;
;void Prepare_Screen(void)
; 0000 0186 {

	.CSEG
_Prepare_Screen:
; 0000 0187   // рисуем кнопки
; 0000 0188   SSD1963_DrawFillRect(BTN1_X_Begin, BTN1_X_End, BTN1_Y_Begin, BTN1_Y_End, WHITE);
	LDI  R30,LOW(6)
	LDI  R31,HIGH(6)
	ST   -Y,R31
	ST   -Y,R30
	LDI  R30,LOW(106)
	LDI  R31,HIGH(106)
	CALL SUBOPT_0x35
; 0000 0189   SSD1963_DrawFillRect(BTN2_X_Begin, BTN2_X_End, BTN2_Y_Begin, BTN2_Y_End, WHITE);
	LDI  R30,LOW(126)
	LDI  R31,HIGH(126)
	ST   -Y,R31
	ST   -Y,R30
	LDI  R30,LOW(226)
	LDI  R31,HIGH(226)
	CALL SUBOPT_0x35
; 0000 018A   SSD1963_DrawFillRect(BTN3_X_Begin, BTN3_X_End, BTN3_Y_Begin, BTN3_Y_End, WHITE);
	LDI  R30,LOW(246)
	LDI  R31,HIGH(246)
	ST   -Y,R31
	ST   -Y,R30
	LDI  R30,LOW(346)
	LDI  R31,HIGH(346)
	CALL SUBOPT_0x35
; 0000 018B   SSD1963_DrawFillRect(BTN4_X_Begin, BTN4_X_End, BTN4_Y_Begin, BTN4_Y_End, WHITE);
	LDI  R30,LOW(366)
	LDI  R31,HIGH(366)
	ST   -Y,R31
	ST   -Y,R30
	LDI  R30,LOW(466)
	LDI  R31,HIGH(466)
	CALL SUBOPT_0x35
; 0000 018C   // рисуем окантовку
; 0000 018D   SSD1963_DrawRect(BTN1_X_Begin + 1, BTN1_X_End - 1, BTN1_Y_Begin + 1, BTN1_Y_End - 1, 1, BLACK);
	LDI  R30,LOW(7)
	LDI  R31,HIGH(7)
	ST   -Y,R31
	ST   -Y,R30
	LDI  R30,LOW(105)
	LDI  R31,HIGH(105)
	CALL SUBOPT_0x36
	RCALL _SSD1963_DrawRect
; 0000 018E   SSD1963_DrawRect(BTN2_X_Begin + 1, BTN2_X_End - 1, BTN2_Y_Begin + 1, BTN2_Y_End - 1, 1, BLACK);
	LDI  R30,LOW(127)
	LDI  R31,HIGH(127)
	ST   -Y,R31
	ST   -Y,R30
	LDI  R30,LOW(225)
	LDI  R31,HIGH(225)
	CALL SUBOPT_0x36
	RCALL _SSD1963_DrawRect
; 0000 018F   SSD1963_DrawRect(BTN3_X_Begin + 1, BTN3_X_End - 1, BTN3_Y_Begin + 1, BTN3_Y_End - 1, 1, BLACK);
	LDI  R30,LOW(247)
	LDI  R31,HIGH(247)
	ST   -Y,R31
	ST   -Y,R30
	LDI  R30,LOW(345)
	LDI  R31,HIGH(345)
	CALL SUBOPT_0x36
	RCALL _SSD1963_DrawRect
; 0000 0190   SSD1963_DrawRect(BTN4_X_Begin + 1, BTN4_X_End - 1, BTN4_Y_Begin + 1, BTN4_Y_End - 1, 1, BLACK);
	LDI  R30,LOW(367)
	LDI  R31,HIGH(367)
	ST   -Y,R31
	ST   -Y,R30
	LDI  R30,LOW(465)
	LDI  R31,HIGH(465)
	CALL SUBOPT_0x36
	RCALL _SSD1963_DrawRect
; 0000 0191 
; 0000 0192   Repaint_Button("СЛЕД", 1, BLACK, WHITE);
	__POINTW1MN _0xFD,0
	ST   -Y,R31
	ST   -Y,R30
	LDI  R30,LOW(1)
	ST   -Y,R30
	CALL SUBOPT_0xD
	CALL SUBOPT_0x37
; 0000 0193   Repaint_Button("  +", 2, BLACK, WHITE);
	__POINTW1MN _0xFD,5
	CALL SUBOPT_0x38
	CALL SUBOPT_0xD
	CALL SUBOPT_0x37
; 0000 0194   Repaint_Button("  -", 3, BLACK, WHITE);
	__POINTW1MN _0xFD,9
	ST   -Y,R31
	ST   -Y,R30
	LDI  R30,LOW(3)
	ST   -Y,R30
	CALL SUBOPT_0xD
	CALL SUBOPT_0x37
; 0000 0195   Repaint_Button("ПАУЗА", 4, BLACK, WHITE);
	__POINTW1MN _0xFD,13
	CALL SUBOPT_0x39
	CALL SUBOPT_0x37
; 0000 0196 }
	RET

	.DSEG
_0xFD:
	.BYTE 0x13
;
;///////////////////////////////////////////////
;char State=0, ParameterState=0, ValueState=0, GraphState=0, ConfigState=0;
;unsigned int Touch_mSec = 0, ValueUpd_mSec = 0, GraphUpd_mSec = 0;
;
;unsigned int GraphUpdTime = 0;
;signed int Graph_X = -Graph_X_Step;
;signed int ValueLast[3] = {0,0,0};
;
;unsigned int ConfigValue[12], old_confVal;
;eeprom unsigned int ConfigValue_mem[3];
;flash unsigned int ConfigParam[4][12] = {
;//Графики        //АЦП                              //FastAdc
;{10,  10,  10,  5,   5,   5,   5,   5,   5,   5,   5,   1}, //0 - шаг
;{20,  20,  20,  5,   5,   5,   5,   5,   5,   5,   5,   0}, //1 - мин
;{220, 220, 220, 600, 600, 600, 600, 600, 600, 600, 600, 1}, //2 - макс
;{90,  90,  45,  100, 100, 100, 100, 100, 100, 100, 100, 0}  //3 - дефолт
;};
;
;//////////////////////////////////////////////
;
;// Timer 0 overflow interrupt 1 ms
;interrupt [TIM0_OVF] void timer0_ovf_isr(void)
; 0000 01AE {

	.CSEG
_timer0_ovf_isr:
	ST   -Y,R26
	ST   -Y,R27
	ST   -Y,R30
	ST   -Y,R31
	IN   R30,SREG
	ST   -Y,R30
; 0000 01AF // Reinitialize Timer 0 value
; 0000 01B0 TCNT0=0x06;
	LDI  R30,LOW(6)
	OUT  0x32,R30
; 0000 01B1 // Place your code here
; 0000 01B2 if(Touch_mSec < 0xFF) Touch_mSec++;
	CALL SUBOPT_0x3A
	CPI  R26,LOW(0xFF)
	LDI  R30,HIGH(0xFF)
	CPC  R27,R30
	BRSH _0xFF
	LDI  R26,LOW(_Touch_mSec)
	LDI  R27,HIGH(_Touch_mSec)
	CALL SUBOPT_0x3B
; 0000 01B3 ValueUpd_mSec++;
_0xFF:
	LDI  R26,LOW(_ValueUpd_mSec)
	LDI  R27,HIGH(_ValueUpd_mSec)
	CALL SUBOPT_0x3B
; 0000 01B4 GraphUpd_mSec++;
	LDI  R26,LOW(_GraphUpd_mSec)
	LDI  R27,HIGH(_GraphUpd_mSec)
	CALL SUBOPT_0x3B
; 0000 01B5 }
	LD   R30,Y+
	OUT  SREG,R30
	LD   R31,Y+
	LD   R30,Y+
	LD   R27,Y+
	LD   R26,Y+
	RETI
;
;char GetButton(void)
; 0000 01B8 {
_GetButton:
; 0000 01B9   char res = 0;
; 0000 01BA   if (Touch_mSec > 50 && TSC2046_GetCoordinates())
	ST   -Y,R17
;	res -> R17
	LDI  R17,0
	CALL SUBOPT_0x3A
	SBIW R26,51
	BRLO _0x101
	RCALL _TSC2046_GetCoordinates
	CPI  R30,0
	BRNE _0x102
_0x101:
	RJMP _0x100
_0x102:
; 0000 01BB   {
; 0000 01BC     if ((TOUCH_X > BTN1_X_Begin) && (TOUCH_X < BTN1_X_End)) // если X внутри заданного диапазона
	LDI  R30,LOW(6)
	LDI  R31,HIGH(6)
	CP   R30,R4
	CPC  R31,R5
	BRSH _0x104
	LDI  R30,LOW(106)
	LDI  R31,HIGH(106)
	CP   R4,R30
	CPC  R5,R31
	BRLO _0x105
_0x104:
	RJMP _0x103
_0x105:
; 0000 01BD     {
; 0000 01BE       if ((TOUCH_Y > BTN1_Y_Begin) && (TOUCH_Y < BTN1_Y_End) && (Touch_mSec > 150)) res = 1;
	CALL SUBOPT_0x3C
	BRSH _0x107
	CALL SUBOPT_0x3D
	BRSH _0x107
	CALL SUBOPT_0x3A
	CPI  R26,LOW(0x97)
	LDI  R30,HIGH(0x97)
	CPC  R27,R30
	BRSH _0x108
_0x107:
	RJMP _0x106
_0x108:
	LDI  R17,LOW(1)
; 0000 01BF     }
_0x106:
; 0000 01C0     if ((TOUCH_X > BTN2_X_Begin) && (TOUCH_X < BTN2_X_End)) // если X внутри заданного диапазона
_0x103:
	LDI  R30,LOW(126)
	LDI  R31,HIGH(126)
	CP   R30,R4
	CPC  R31,R5
	BRSH _0x10A
	LDI  R30,LOW(226)
	LDI  R31,HIGH(226)
	CP   R4,R30
	CPC  R5,R31
	BRLO _0x10B
_0x10A:
	RJMP _0x109
_0x10B:
; 0000 01C1     {
; 0000 01C2       if ((TOUCH_Y > BTN2_Y_Begin) && (TOUCH_Y < BTN2_Y_End)) res = 2;
	CALL SUBOPT_0x3C
	BRSH _0x10D
	CALL SUBOPT_0x3D
	BRLO _0x10E
_0x10D:
	RJMP _0x10C
_0x10E:
	LDI  R17,LOW(2)
; 0000 01C3     }
_0x10C:
; 0000 01C4     if ((TOUCH_X > BTN3_X_Begin) && (TOUCH_X < BTN3_X_End)) // если X внутри заданного диапазона
_0x109:
	LDI  R30,LOW(246)
	LDI  R31,HIGH(246)
	CP   R30,R4
	CPC  R31,R5
	BRSH _0x110
	LDI  R30,LOW(346)
	LDI  R31,HIGH(346)
	CP   R4,R30
	CPC  R5,R31
	BRLO _0x111
_0x110:
	RJMP _0x10F
_0x111:
; 0000 01C5     {
; 0000 01C6       if ((TOUCH_Y > BTN3_Y_Begin) && (TOUCH_Y < BTN3_Y_End)) res = 3;
	CALL SUBOPT_0x3C
	BRSH _0x113
	CALL SUBOPT_0x3D
	BRLO _0x114
_0x113:
	RJMP _0x112
_0x114:
	LDI  R17,LOW(3)
; 0000 01C7     }
_0x112:
; 0000 01C8     if ((TOUCH_X > BTN4_X_Begin) && (TOUCH_X < BTN4_X_End)) // если X внутри заданного диапазона
_0x10F:
	LDI  R30,LOW(366)
	LDI  R31,HIGH(366)
	CP   R30,R4
	CPC  R31,R5
	BRSH _0x116
	LDI  R30,LOW(466)
	LDI  R31,HIGH(466)
	CP   R4,R30
	CPC  R5,R31
	BRLO _0x117
_0x116:
	RJMP _0x115
_0x117:
; 0000 01C9     {
; 0000 01CA       if ((TOUCH_Y > BTN4_Y_Begin) && (TOUCH_Y < BTN4_Y_End) && (Touch_mSec > 150)) res = 4;
	CALL SUBOPT_0x3C
	BRSH _0x119
	CALL SUBOPT_0x3D
	BRSH _0x119
	CALL SUBOPT_0x3A
	CPI  R26,LOW(0x97)
	LDI  R30,HIGH(0x97)
	CPC  R27,R30
	BRSH _0x11A
_0x119:
	RJMP _0x118
_0x11A:
	LDI  R17,LOW(4)
; 0000 01CB     }
_0x118:
; 0000 01CC       Touch_mSec = 0;
_0x115:
	LDI  R30,LOW(0)
	STS  _Touch_mSec,R30
	STS  _Touch_mSec+1,R30
; 0000 01CD   }
; 0000 01CE   return res;
_0x100:
_0x2080004:
	MOV  R30,R17
_0x2080005:
	LD   R17,Y+
	RET
; 0000 01CF }
;
;void PutParameterText(char Number, unsigned int Color)
; 0000 01D2 {
_PutParameterText:
; 0000 01D3   int X = Text_StartX;
; 0000 01D4   int Y = Text_StartY;
; 0000 01D5 
; 0000 01D6   SSD1963_PutString16("                ", X, Y, Color, BLACK);
	CALL __SAVELOCR4
;	Number -> Y+6
;	Color -> Y+4
;	X -> R16,R17
;	Y -> R18,R19
	__GETWRN 16,17,16
	__GETWRN 18,19,6
	__POINTW1MN _0x11B,0
	CALL SUBOPT_0x3E
	CALL SUBOPT_0x3F
	CALL _SSD1963_PutString16
; 0000 01D7   SSD1963_PutString16("                ", X, Y + FONT_HEIGHT, Color, BLACK);
	__POINTW1MN _0x11B,17
	CALL SUBOPT_0x3E
	CALL SUBOPT_0x40
	CALL _SSD1963_PutString16
; 0000 01D8   switch (Number)
	LDD  R30,Y+6
	CALL SUBOPT_0x41
; 0000 01D9   {
; 0000 01DA     case 0 :
	BRNE _0x11F
; 0000 01DB       SSD1963_PutString16("НАПРЯЖЕНИЕ", X, Y, Color, BLACK);
	__POINTW1MN _0x11B,34
	CALL SUBOPT_0x3E
	CALL SUBOPT_0x3F
	CALL _SSD1963_PutString16
; 0000 01DC       SSD1963_PutString16("ФАЗ", X, Y + FONT_HEIGHT, Color, BLACK);
	__POINTW1MN _0x11B,45
	CALL SUBOPT_0x3E
	CALL SUBOPT_0x40
	CALL _SSD1963_PutString16
; 0000 01DD     break;
	RJMP _0x11E
; 0000 01DE     case 1 :
_0x11F:
	CPI  R30,LOW(0x1)
	LDI  R26,HIGH(0x1)
	CPC  R31,R26
	BRNE _0x120
; 0000 01DF       SSD1963_PutString16("ТОК", X, Y, Color, BLACK);
	__POINTW1MN _0x11B,49
	CALL SUBOPT_0x3E
	CALL SUBOPT_0x3F
	CALL _SSD1963_PutString16
; 0000 01E0       SSD1963_PutString16("ФАЗ", X, Y + FONT_HEIGHT, Color, BLACK);
	__POINTW1MN _0x11B,53
	CALL SUBOPT_0x3E
	CALL SUBOPT_0x40
	CALL _SSD1963_PutString16
; 0000 01E1     break;
	RJMP _0x11E
; 0000 01E2     case 2 :
_0x120:
	CPI  R30,LOW(0x2)
	LDI  R26,HIGH(0x2)
	CPC  R31,R26
	BRNE _0x121
; 0000 01E3       SSD1963_PutString16("НАПРЯЖЕНИЕ И ТОК", X, Y, Color, BLACK);
	__POINTW1MN _0x11B,57
	CALL SUBOPT_0x3E
	CALL SUBOPT_0x3F
	CALL _SSD1963_PutString16
; 0000 01E4       SSD1963_PutString16("ВОЗБУЖДЕНИЯ", X, Y + FONT_HEIGHT, Color, BLACK);
	__POINTW1MN _0x11B,74
	CALL SUBOPT_0x3E
	CALL SUBOPT_0x40
	CALL _SSD1963_PutString16
; 0000 01E5     break;
	RJMP _0x11E
; 0000 01E6     /*
; 0000 01E7     case 3 :
; 0000 01E8       SSD1963_PutString16("ВРЕМЯ ОБРАБОТКИ", X, Y, Color, BLACK);
; 0000 01E9       SSD1963_PutString16("СКОРОСТИ", X, Y + FONT_HEIGHT, Color, BLACK);
; 0000 01EA     break;
; 0000 01EB     case 4 :
; 0000 01EC       SSD1963_PutString16("СКОРОСТЬ ТПЧ", X, Y, Color, BLACK);
; 0000 01ED       SSD1963_PutString16("МАКСИМАЛЬНАЯ", X, Y + FONT_HEIGHT, Color, BLACK);
; 0000 01EE     break;
; 0000 01EF    */
; 0000 01F0 
; 0000 01F1     case 5:
_0x121:
	CPI  R30,LOW(0x5)
	LDI  R26,HIGH(0x5)
	CPC  R31,R26
	BREQ _0x123
; 0000 01F2     case 6:
	CPI  R30,LOW(0x6)
	LDI  R26,HIGH(0x6)
	CPC  R31,R26
	BRNE _0x124
_0x123:
; 0000 01F3     case 7:
	RJMP _0x125
_0x124:
	CPI  R30,LOW(0x7)
	LDI  R26,HIGH(0x7)
	CPC  R31,R26
	BREQ PC+3
	JMP _0x126
_0x125:
; 0000 01F4       SSD1963_PutString16("ОБН", X, Y, Color, BLACK);
	__POINTW1MN _0x11B,86
	CALL SUBOPT_0x3E
	CALL SUBOPT_0x3F
	CALL _SSD1963_PutString16
; 0000 01F5       SSD1963_PutString16("АМП", X, Y + FONT_HEIGHT, Color, BLACK);
	__POINTW1MN _0x11B,90
	CALL SUBOPT_0x3E
	CALL SUBOPT_0x40
	CALL _SSD1963_PutString16
; 0000 01F6 
; 0000 01F7       X = Text_StartX + Value_Lenght;
	__GETWRN 16,17,80
; 0000 01F8       SSD1963_PutValue16(GraphUpdTime, X, Y, 4, Color, BLACK);
	LDS  R30,_GraphUpdTime
	LDS  R31,_GraphUpdTime+1
	CALL SUBOPT_0x3E
	ST   -Y,R19
	ST   -Y,R18
	LDI  R30,LOW(4)
	ST   -Y,R30
	LDD  R30,Y+11
	LDD  R31,Y+11+1
	CALL SUBOPT_0xE
	CALL _SSD1963_PutValue16
; 0000 01F9       X += Value_Lenght + FONT_HEIGHT + FONT_HEIGHT;
	__ADDWRN 16,17,96
; 0000 01FA       SSD1963_PutString16("ПЕР", X, Y, Color, BLACK);
	__POINTW1MN _0x11B,94
	CALL SUBOPT_0x3E
	CALL SUBOPT_0x3F
	CALL _SSD1963_PutString16
; 0000 01FB       X += Value_Lenght;
	__ADDWRN 16,17,64
; 0000 01FC       SSD1963_PutValue16(rx_buffer_overflow0, X, Y, 1, Color, BLACK);
	LDI  R30,0
	SBRC R2,0
	LDI  R30,1
	CALL SUBOPT_0x42
	CALL SUBOPT_0x43
	CALL SUBOPT_0xE
	CALL SUBOPT_0x44
; 0000 01FD 
; 0000 01FE       X = Text_StartX + Value_Lenght;
; 0000 01FF       Y = Text_StartY + FONT_HEIGHT;
; 0000 0200       SSD1963_PutValue16(ConfigValue[0], X, Y, 3, Color, (Number==5)?DGRAY:BLACK);
	LDS  R30,_ConfigValue
	LDS  R31,_ConfigValue+1
	CALL SUBOPT_0x3E
	CALL SUBOPT_0x45
	SBIW R26,5
	BRNE _0x127
	LDI  R30,LOW(8456)
	LDI  R31,HIGH(8456)
	RJMP _0x128
_0x127:
	LDI  R30,LOW(0)
	LDI  R31,HIGH(0)
_0x128:
	CALL SUBOPT_0x46
; 0000 0201       X += Value_Lenght;
; 0000 0202       SSD1963_PutValue16(ConfigValue[1], X, Y, 3, Color, (Number==6)?DGRAY:BLACK);
	__GETW1MN _ConfigValue,2
	CALL SUBOPT_0x3E
	CALL SUBOPT_0x45
	SBIW R26,6
	BRNE _0x12A
	LDI  R30,LOW(8456)
	LDI  R31,HIGH(8456)
	RJMP _0x12B
_0x12A:
	LDI  R30,LOW(0)
	LDI  R31,HIGH(0)
_0x12B:
	CALL SUBOPT_0x46
; 0000 0203       X += Value_Lenght;
; 0000 0204       SSD1963_PutValue16(ConfigValue[2], X, Y, 3, Color, (Number==7)?DGRAY:BLACK);
	__GETW1MN _ConfigValue,4
	CALL SUBOPT_0x3E
	CALL SUBOPT_0x45
	SBIW R26,7
	BRNE _0x12D
	LDI  R30,LOW(8456)
	LDI  R31,HIGH(8456)
	RJMP _0x12E
_0x12D:
	LDI  R30,LOW(0)
	LDI  R31,HIGH(0)
_0x12E:
	RJMP _0x214
; 0000 0205     break;
; 0000 0206     case 8:
_0x126:
	CPI  R30,LOW(0x8)
	LDI  R26,HIGH(0x8)
	CPC  R31,R26
	BREQ _0x131
; 0000 0207     case 9:
	CPI  R30,LOW(0x9)
	LDI  R26,HIGH(0x9)
	CPC  R31,R26
	BRNE _0x132
_0x131:
; 0000 0208     case 10:
	RJMP _0x133
_0x132:
	CPI  R30,LOW(0xA)
	LDI  R26,HIGH(0xA)
	CPC  R31,R26
	BRNE _0x134
_0x133:
; 0000 0209     case 11:
	RJMP _0x135
_0x134:
	CPI  R30,LOW(0xB)
	LDI  R26,HIGH(0xB)
	CPC  R31,R26
	BRNE _0x136
_0x135:
; 0000 020A     case 12:
	RJMP _0x137
_0x136:
	CPI  R30,LOW(0xC)
	LDI  R26,HIGH(0xC)
	CPC  R31,R26
	BRNE _0x138
_0x137:
; 0000 020B     case 13:
	RJMP _0x139
_0x138:
	CPI  R30,LOW(0xD)
	LDI  R26,HIGH(0xD)
	CPC  R31,R26
	BREQ PC+3
	JMP _0x13A
_0x139:
; 0000 020C       SSD1963_PutString16(" КН", X, Y, Color, BLACK);
	__POINTW1MN _0x11B,98
	CALL SUBOPT_0x3E
	CALL SUBOPT_0x3F
	CALL _SSD1963_PutString16
; 0000 020D       SSD1963_PutString16(" КТ", X, Y + FONT_HEIGHT, Color, BLACK);
	__POINTW1MN _0x11B,102
	CALL SUBOPT_0x3E
	CALL SUBOPT_0x40
	CALL _SSD1963_PutString16
; 0000 020E 
; 0000 020F       X = Text_StartX + Value_Lenght;
	__GETWRN 16,17,80
; 0000 0210       SSD1963_PutValue16(ConfigValue[3], X, Y, 3, Color, (Number==8)?DGRAY:BLACK);
	__GETW1MN _ConfigValue,6
	CALL SUBOPT_0x3E
	CALL SUBOPT_0x45
	SBIW R26,8
	BRNE _0x13B
	LDI  R30,LOW(8456)
	LDI  R31,HIGH(8456)
	RJMP _0x13C
_0x13B:
	LDI  R30,LOW(0)
	LDI  R31,HIGH(0)
_0x13C:
	CALL SUBOPT_0x46
; 0000 0211       X += Value_Lenght;
; 0000 0212       SSD1963_PutValue16(ConfigValue[4], X, Y, 3, Color, (Number==9)?DGRAY:BLACK);
	__GETW1MN _ConfigValue,8
	CALL SUBOPT_0x3E
	CALL SUBOPT_0x45
	SBIW R26,9
	BRNE _0x13E
	LDI  R30,LOW(8456)
	LDI  R31,HIGH(8456)
	RJMP _0x13F
_0x13E:
	LDI  R30,LOW(0)
	LDI  R31,HIGH(0)
_0x13F:
	CALL SUBOPT_0x46
; 0000 0213       X += Value_Lenght;
; 0000 0214       SSD1963_PutValue16(ConfigValue[5], X, Y, 3, Color, (Number==10)?DGRAY:BLACK);
	__GETW1MN _ConfigValue,10
	CALL SUBOPT_0x3E
	CALL SUBOPT_0x45
	SBIW R26,10
	BRNE _0x141
	LDI  R30,LOW(8456)
	LDI  R31,HIGH(8456)
	RJMP _0x142
_0x141:
	LDI  R30,LOW(0)
	LDI  R31,HIGH(0)
_0x142:
	ST   -Y,R31
	ST   -Y,R30
	CALL SUBOPT_0x44
; 0000 0215 
; 0000 0216       X = Text_StartX + Value_Lenght;
; 0000 0217       Y = Text_StartY + FONT_HEIGHT;
; 0000 0218       SSD1963_PutValue16(ConfigValue[6], X, Y, 3, Color, (Number==11)?DGRAY:BLACK);
	__GETW1MN _ConfigValue,12
	CALL SUBOPT_0x3E
	CALL SUBOPT_0x45
	SBIW R26,11
	BRNE _0x144
	LDI  R30,LOW(8456)
	LDI  R31,HIGH(8456)
	RJMP _0x145
_0x144:
	LDI  R30,LOW(0)
	LDI  R31,HIGH(0)
_0x145:
	CALL SUBOPT_0x46
; 0000 0219       X += Value_Lenght;
; 0000 021A       SSD1963_PutValue16(ConfigValue[7], X, Y, 3, Color, (Number==12)?DGRAY:BLACK);
	__GETW1MN _ConfigValue,14
	CALL SUBOPT_0x3E
	CALL SUBOPT_0x45
	SBIW R26,12
	BRNE _0x147
	LDI  R30,LOW(8456)
	LDI  R31,HIGH(8456)
	RJMP _0x148
_0x147:
	LDI  R30,LOW(0)
	LDI  R31,HIGH(0)
_0x148:
	CALL SUBOPT_0x46
; 0000 021B       X += Value_Lenght;
; 0000 021C       SSD1963_PutValue16(ConfigValue[8], X, Y, 3, Color, (Number==13)?DGRAY:BLACK);
	__GETW1MN _ConfigValue,16
	CALL SUBOPT_0x3E
	CALL SUBOPT_0x45
	SBIW R26,13
	BRNE _0x14A
	LDI  R30,LOW(8456)
	LDI  R31,HIGH(8456)
	RJMP _0x14B
_0x14A:
	LDI  R30,LOW(0)
	LDI  R31,HIGH(0)
_0x14B:
	RJMP _0x214
; 0000 021D     break;
; 0000 021E     case 14:
_0x13A:
	CPI  R30,LOW(0xE)
	LDI  R26,HIGH(0xE)
	CPC  R31,R26
	BREQ _0x14E
; 0000 021F     case 15:
	CPI  R30,LOW(0xF)
	LDI  R26,HIGH(0xF)
	CPC  R31,R26
	BRNE _0x14F
_0x14E:
; 0000 0220     case 16:
	RJMP _0x150
_0x14F:
	CPI  R30,LOW(0x10)
	LDI  R26,HIGH(0x10)
	CPC  R31,R26
	BREQ PC+3
	JMP _0x11E
_0x150:
; 0000 0221       SSD1963_PutString16("КНТ", X, Y, Color, BLACK);
	__POINTW1MN _0x11B,106
	CALL SUBOPT_0x3E
	CALL SUBOPT_0x3F
	CALL _SSD1963_PutString16
; 0000 0222       SSD1963_PutString16("БЫСТАЦП", X, Y + FONT_HEIGHT, Color, BLACK);
	__POINTW1MN _0x11B,110
	CALL SUBOPT_0x3E
	CALL SUBOPT_0x40
	CALL _SSD1963_PutString16
; 0000 0223       X += Value_Lenght;
	__ADDWRN 16,17,64
; 0000 0224       SSD1963_PutValue16(ConfigValue[9], X, Y, 3, Color, (Number==14)?DGRAY:BLACK);
	__GETW1MN _ConfigValue,18
	CALL SUBOPT_0x3E
	CALL SUBOPT_0x45
	SBIW R26,14
	BRNE _0x152
	LDI  R30,LOW(8456)
	LDI  R31,HIGH(8456)
	RJMP _0x153
_0x152:
	LDI  R30,LOW(0)
	LDI  R31,HIGH(0)
_0x153:
	CALL SUBOPT_0x46
; 0000 0225       X += Value_Lenght;
; 0000 0226       SSD1963_PutValue16(ConfigValue[10], X, Y, 3, Color, (Number==15)?DGRAY:BLACK);
	__GETW1MN _ConfigValue,20
	CALL SUBOPT_0x3E
	CALL SUBOPT_0x45
	SBIW R26,15
	BRNE _0x155
	LDI  R30,LOW(8456)
	LDI  R31,HIGH(8456)
	RJMP _0x156
_0x155:
	LDI  R30,LOW(0)
	LDI  R31,HIGH(0)
_0x156:
	ST   -Y,R31
	ST   -Y,R30
	CALL _SSD1963_PutValue16
; 0000 0227       Y += FONT_HEIGHT;
	__ADDWRN 18,19,16
; 0000 0228       SSD1963_PutValue16(ConfigValue[11], X, Y, 1, Color, (Number==16)?DGRAY:BLACK);
	__GETW1MN _ConfigValue,22
	CALL SUBOPT_0x3E
	CALL SUBOPT_0x43
	ST   -Y,R31
	ST   -Y,R30
	LDD  R26,Y+15
	LDI  R27,0
	SBIW R26,16
	BRNE _0x158
	LDI  R30,LOW(8456)
	LDI  R31,HIGH(8456)
	RJMP _0x159
_0x158:
	LDI  R30,LOW(0)
	LDI  R31,HIGH(0)
_0x159:
_0x214:
	ST   -Y,R31
	ST   -Y,R30
	CALL _SSD1963_PutValue16
; 0000 0229     break;
; 0000 022A   }
_0x11E:
; 0000 022B }
	CALL __LOADLOCR4
_0x2080003:
	ADIW R28,7
	RET

	.DSEG
_0x11B:
	.BYTE 0x76
;
;//Функция вывода напряжения(тока) и частоты
;void PutParameterValue(char v1, char v2, char v3, char fHz)
; 0000 022F {

	.CSEG
_PutParameterValue:
; 0000 0230     int X = Value_StartX;
; 0000 0231     int Y = Value_StartY ;
; 0000 0232     unsigned int Color = BLUE;
; 0000 0233 
; 0000 0234     SSD1963_PutString16("            ", X, Y, Color, BLACK);
	CALL __SAVELOCR6
;	v1 -> Y+9
;	v2 -> Y+8
;	v3 -> Y+7
;	fHz -> Y+6
;	X -> R16,R17
;	Y -> R18,R19
;	Color -> R20,R21
	__GETWRN 16,17,290
	__GETWRN 18,19,6
	__GETWRN 20,21,248
	__POINTW1MN _0x15B,0
	CALL SUBOPT_0x3E
	CALL SUBOPT_0x47
	CALL _SSD1963_PutString16
; 0000 0235     SSD1963_PutString16("            ", X, Y + FONT_HEIGHT, Color, BLACK);
	__POINTW1MN _0x15B,13
	CALL SUBOPT_0x3E
	MOVW R30,R18
	ADIW R30,16
	ST   -Y,R31
	ST   -Y,R30
	CALL SUBOPT_0x48
	CALL _SSD1963_PutString16
; 0000 0236 
; 0000 0237     if(ParameterState != 2)
	LDS  R26,_ParameterState
	CPI  R26,LOW(0x2)
	BREQ _0x15C
; 0000 0238     {
; 0000 0239         SSD1963_PutValue16(v1, X, Y, 3, Color, BLACK);
	LDD  R30,Y+9
	CALL SUBOPT_0x42
	CALL SUBOPT_0x49
	CALL SUBOPT_0x4A
; 0000 023A         X += Value_Lenght;
; 0000 023B         SSD1963_PutValue16(v2, X, Y, 3, Color, BLACK);
	CALL SUBOPT_0x13
	CALL SUBOPT_0x3E
	CALL SUBOPT_0x49
	CALL SUBOPT_0x4A
; 0000 023C         X += Value_Lenght;
; 0000 023D         SSD1963_PutValue16(v3, X, Y, 3, Color, BLACK);
	LDD  R30,Y+7
	CALL SUBOPT_0x42
	CALL SUBOPT_0x49
	CALL _SSD1963_PutValue16
; 0000 023E         X = Value_StartX + Value_Lenght;
	__GETWRN 16,17,354
; 0000 023F         Y += FONT_HEIGHT;
	__ADDWRN 18,19,16
; 0000 0240         SSD1963_PutValue16(fHz, X, Y, 3, Color, BLACK);
	LDD  R30,Y+6
	CALL SUBOPT_0x42
	CALL SUBOPT_0x49
	CALL SUBOPT_0x4A
; 0000 0241         X += Value_Lenght;
; 0000 0242         SSD1963_PutString16("ГЦ", X, Y, Color, BLACK);
	__POINTW1MN _0x15B,26
	CALL SUBOPT_0x3E
	CALL SUBOPT_0x47
	CALL _SSD1963_PutString16
; 0000 0243     }
; 0000 0244     else
	RJMP _0x15D
_0x15C:
; 0000 0245     {
; 0000 0246         X += Value_Lenght;
	__ADDWRN 16,17,64
; 0000 0247         SSD1963_PutValue16(v1, X, Y, 3, Color, BLACK);
	LDD  R30,Y+9
	CALL SUBOPT_0x42
	CALL SUBOPT_0x49
	CALL _SSD1963_PutValue16
; 0000 0248         Y += FONT_HEIGHT;
	__ADDWRN 18,19,16
; 0000 0249         SSD1963_PutValue16(v2, X, Y, 3, Color, BLACK);
	CALL SUBOPT_0x13
	CALL SUBOPT_0x3E
	CALL SUBOPT_0x49
	CALL _SSD1963_PutValue16
; 0000 024A     }
_0x15D:
; 0000 024B }
	CALL __LOADLOCR6
	ADIW R28,10
	RET

	.DSEG
_0x15B:
	.BYTE 0x1D
;
;void StartPaint()
; 0000 024E {

	.CSEG
_StartPaint:
; 0000 024F     //Чтоб первая точка легла
; 0000 0250     Graph_X = -Graph_X_Step;
	LDI  R30,LOW(65530)
	LDI  R31,HIGH(65530)
	CALL SUBOPT_0x4B
; 0000 0251 }
	RET
;
;inline void Paint_Phase(void)
; 0000 0254 {
_Paint_Phase:
; 0000 0255     signed int Value[3];
; 0000 0256     unsigned int Color[] = {RED, YELLOW, GREEN};
; 0000 0257     signed int Lenght = Graph_X + (Graph_X_Step * Graph_Step_N);
; 0000 0258     signed int mid = Graph_Y_Mid;
; 0000 0259     char i, j;
; 0000 025A 
; 0000 025B     if(Graph_X > Graph_X_Max)  //Некуда дальше
	SBIW R28,12
	LDI  R30,LOW(0)
	ST   Y,R30
	LDI  R30,LOW(31)
	STD  Y+1,R30
	LDI  R30,LOW(7)
	STD  Y+2,R30
	LDI  R30,LOW(255)
	STD  Y+3,R30
	LDI  R30,LOW(7)
	STD  Y+4,R30
	LDI  R30,LOW(224)
	STD  Y+5,R30
	CALL __SAVELOCR6
;	Value -> Y+12
;	Color -> Y+6
;	Lenght -> R16,R17
;	mid -> R18,R19
;	i -> R21
;	j -> R20
	CALL SUBOPT_0x4C
	ADIW R30,12
	MOVW R16,R30
	__GETWRN 18,19,137
	CALL SUBOPT_0x4D
	BRLT _0x15E
; 0000 025C     {
; 0000 025D         GraphUpdTime = GraphUpd_mSec;
	CALL SUBOPT_0x4E
; 0000 025E         while(rx_counter0) getchar0();
_0x15F:
	LDS  R30,_rx_counter0
	CPI  R30,0
	BREQ _0x161
	CALL _getchar0
	RJMP _0x15F
_0x161:
; 0000 025F GraphState = 0;
	LDI  R30,LOW(0)
	STS  _GraphState,R30
; 0000 0260     }
; 0000 0261 
; 0000 0262     if( rx_counter0 < 2 || (rx_counter0 < 3 && ParameterState != 2))
_0x15E:
	LDS  R26,_rx_counter0
	CPI  R26,LOW(0x2)
	BRLO _0x163
	CPI  R26,LOW(0x3)
	BRSH _0x164
	LDS  R26,_ParameterState
	CPI  R26,LOW(0x2)
	BRNE _0x163
_0x164:
	RJMP _0x162
_0x163:
; 0000 0263     {
; 0000 0264         if(GraphUpd_mSec > 100)
	CALL SUBOPT_0x4F
	CPI  R26,LOW(0x65)
	LDI  R30,HIGH(0x65)
	CPC  R27,R30
	BRLO _0x167
; 0000 0265         {
; 0000 0266             GraphUpdTime = GraphUpd_mSec;
	CALL SUBOPT_0x4E
; 0000 0267             while(rx_counter0) getchar0();
_0x168:
	LDS  R30,_rx_counter0
	CPI  R30,0
	BREQ _0x16A
	CALL _getchar0
	RJMP _0x168
_0x16A:
; 0000 0268 GraphState = 0;
	LDI  R30,LOW(0)
	STS  _GraphState,R30
; 0000 0269         }
; 0000 026A     }
_0x167:
; 0000 026B 
; 0000 026C     if(GraphState == 0 || (TOUCH_IRQ < 1 && Touch_mSec > 50)) goto _return; //Увеличиваем
_0x162:
	LDS  R26,_GraphState
	CPI  R26,LOW(0x0)
	BREQ _0x16C
	CALL SUBOPT_0x27
	BRSH _0x16D
	CALL SUBOPT_0x3A
	SBIW R26,51
	BRSH _0x16C
_0x16D:
	RJMP _0x16B
_0x16C:
	RJMP _0x170
; 0000 026D 
; 0000 026E     if(Lenght > Graph_X_Max) Lenght = Graph_X_Max;
_0x16B:
	__CPWRN 16,17,479
	BRLT _0x171
	__GETWRN 16,17,478
; 0000 026F 
; 0000 0270     if(Graph_X >= Graph_X_Min)
_0x171:
	LDS  R26,_Graph_X+1
	TST  R26
	BRPL PC+3
	JMP _0x172
; 0000 0271     {
; 0000 0272         // очищаем перед собой столбец пикселей
; 0000 0273         SSD1963_DrawFillRect(Graph_X, Lenght+2, Graph_Y_Min, Graph_Y_Max+1, BLACK);
	CALL SUBOPT_0x4C
	ST   -Y,R31
	ST   -Y,R30
	MOVW R30,R16
	ADIW R30,2
	ST   -Y,R31
	ST   -Y,R30
	LDI  R30,LOW(42)
	LDI  R31,HIGH(42)
	ST   -Y,R31
	ST   -Y,R30
	LDI  R30,LOW(233)
	LDI  R31,HIGH(233)
	CALL SUBOPT_0xE
	CALL _SSD1963_DrawFillRect
; 0000 0274         //Линия нуля
; 0000 0275         SSD1963_DrawFastLine(Graph_X, Lenght, mid, mid, DGRAY);
	CALL SUBOPT_0x50
	ST   -Y,R19
	ST   -Y,R18
	ST   -Y,R19
	ST   -Y,R18
	CALL SUBOPT_0x51
; 0000 0276         SSD1963_DrawFastLine(Graph_X, Lenght, mid+45, mid+45, DGRAY);
	MOVW R30,R18
	ADIW R30,45
	ST   -Y,R31
	ST   -Y,R30
	MOVW R30,R18
	ADIW R30,45
	CALL SUBOPT_0x52
; 0000 0277         SSD1963_DrawFastLine(Graph_X, Lenght, mid-45, mid-45, DGRAY);
	MOVW R30,R18
	SBIW R30,45
	ST   -Y,R31
	ST   -Y,R30
	MOVW R30,R18
	SBIW R30,45
	CALL SUBOPT_0x52
; 0000 0278         SSD1963_DrawFastLine(Graph_X, Lenght, mid+90, mid+90, DGRAY);
	MOVW R30,R18
	SUBI R30,LOW(-90)
	SBCI R31,HIGH(-90)
	ST   -Y,R31
	ST   -Y,R30
	MOVW R30,R18
	SUBI R30,LOW(-90)
	SBCI R31,HIGH(-90)
	CALL SUBOPT_0x52
; 0000 0279         SSD1963_DrawFastLine(Graph_X, Lenght, mid-90, mid-90, DGRAY);
	MOVW R30,R18
	SUBI R30,LOW(90)
	SBCI R31,HIGH(90)
	ST   -Y,R31
	ST   -Y,R30
	MOVW R30,R18
	SUBI R30,LOW(90)
	SBCI R31,HIGH(90)
	ST   -Y,R31
	ST   -Y,R30
	LDI  R30,LOW(8456)
	LDI  R31,HIGH(8456)
	ST   -Y,R31
	ST   -Y,R30
	CALL _SSD1963_DrawFastLine
; 0000 027A     }
; 0000 027B 
; 0000 027C     if(TOUCH_IRQ < 1 && Touch_mSec > 60) goto _return; //Отзывчивость
_0x172:
	CALL SUBOPT_0x27
	BRSH _0x174
	CALL SUBOPT_0x3A
	SBIW R26,61
	BRSH _0x175
_0x174:
	RJMP _0x173
_0x175:
	RJMP _0x170
; 0000 027D 
; 0000 027E     if(ParameterState != 2)
_0x173:
	LDS  R26,_ParameterState
	CPI  R26,LOW(0x2)
	BRNE PC+3
	JMP _0x176
; 0000 027F     {
; 0000 0280         for(j=0; j<Graph_Step_N; j++)
	LDI  R20,LOW(0)
_0x178:
	CPI  R20,2
	BRLO PC+3
	JMP _0x179
; 0000 0281         {
; 0000 0282             if(Graph_X > Graph_X_Max) break;
	CALL SUBOPT_0x4D
	BRLT _0x17A
	RJMP _0x179
; 0000 0283             Lenght = Graph_X + Graph_X_Step;
_0x17A:
	CALL SUBOPT_0x53
; 0000 0284             if(Lenght > Graph_X_Max) Lenght = Graph_X_Max;
	BRLT _0x17B
	__GETWRN 16,17,478
; 0000 0285 
; 0000 0286             if(rx_counter0 < 3 || (TOUCH_IRQ < 1 && Touch_mSec > 70)) goto _return; //Интерфейса
_0x17B:
	LDS  R26,_rx_counter0
	CPI  R26,LOW(0x3)
	BRLO _0x17D
	CALL SUBOPT_0x27
	BRSH _0x17E
	CALL SUBOPT_0x3A
	CPI  R26,LOW(0x47)
	LDI  R30,HIGH(0x47)
	CPC  R27,R30
	BRSH _0x17D
_0x17E:
	RJMP _0x17C
_0x17D:
	RJMP _0x170
; 0000 0287 
; 0000 0288             Value[0] = getchar0();
_0x17C:
	CALL SUBOPT_0x54
	STD  Y+12,R30
	STD  Y+12+1,R31
; 0000 0289             Value[1] = getchar0();
	CALL SUBOPT_0x54
	STD  Y+14,R30
	STD  Y+14+1,R31
; 0000 028A             Value[2] = getchar0();
	CALL SUBOPT_0x54
	STD  Y+16,R30
	STD  Y+16+1,R31
; 0000 028B 
; 0000 028C             for(i=0; i<3; i++)
	LDI  R21,LOW(0)
_0x182:
	CPI  R21,3
	BRLO PC+3
	JMP _0x183
; 0000 028D             {
; 0000 028E                 Value[i] = 128 - Value[i];
	CALL SUBOPT_0x55
	ADD  R30,R26
	ADC  R31,R27
	MOVW R22,R30
	CALL SUBOPT_0x55
	CALL SUBOPT_0x56
	CALL SUBOPT_0x57
; 0000 028F                 Value[i] *= ConfigValue[ParameterState];
	CALL SUBOPT_0x58
	CALL SUBOPT_0x59
; 0000 0290                 Value[i] >>= 7;
	CALL SUBOPT_0x5A
	CALL SUBOPT_0x5B
; 0000 0291                 if(Value[i]&0x0100) Value[i] |= 0xFF00;
	CALL SUBOPT_0x56
	ANDI R31,HIGH(0x100)
	BREQ _0x184
	CALL SUBOPT_0x55
	CALL SUBOPT_0x5A
	ORI  R31,HIGH(0xFF00)
	ST   -X,R31
	ST   -X,R30
; 0000 0292 
; 0000 0293                 Value[i] += mid;
_0x184:
	CALL SUBOPT_0x55
	CALL SUBOPT_0x5A
	ADD  R30,R18
	ADC  R31,R19
	ST   -X,R31
	ST   -X,R30
; 0000 0294                 if(Value[i] > Graph_Y_Max) Value[i] = Graph_Y_Max;
	CALL SUBOPT_0x55
	CALL SUBOPT_0x56
	CPI  R30,LOW(0xE9)
	LDI  R26,HIGH(0xE9)
	CPC  R31,R26
	BRLT _0x185
	CALL SUBOPT_0x55
	CALL SUBOPT_0x5C
; 0000 0295                 if(Value[i] < Graph_Y_Min) Value[i] = Graph_Y_Min;
_0x185:
	CALL SUBOPT_0x55
	CALL SUBOPT_0x56
	SBIW R30,42
	BRGE _0x186
	CALL SUBOPT_0x55
	CALL SUBOPT_0x5D
; 0000 0296 
; 0000 0297                 if(Graph_X >= Graph_X_Min)
_0x186:
	LDS  R26,_Graph_X+1
	TST  R26
	BRMI _0x187
; 0000 0298                 {   // пишем точку в столбце
; 0000 0299                     SSD1963_DrawLine(Graph_X, Lenght, ValueLast[i], Value[i], Color[i], 2);
	CALL SUBOPT_0x50
	CALL SUBOPT_0x5E
	CALL SUBOPT_0x56
	CALL SUBOPT_0x5F
	CALL SUBOPT_0x60
	CALL SUBOPT_0x5F
	CALL SUBOPT_0x61
	CALL SUBOPT_0x38
	CALL _SSD1963_DrawLine
; 0000 029A                 }
; 0000 029B                     // определяем предыдущую точку диограммы
; 0000 029C                     ValueLast[i] = Value[i];
_0x187:
	CALL SUBOPT_0x5E
	ADD  R30,R26
	ADC  R31,R27
	MOVW R0,R30
	CALL SUBOPT_0x55
	CALL SUBOPT_0x56
	MOVW R26,R0
	ST   X+,R30
	ST   X,R31
; 0000 029D             }
	SUBI R21,-1
	RJMP _0x182
_0x183:
; 0000 029E             Graph_X += Graph_X_Step; // увеличеваем Х диограммы
	CALL SUBOPT_0x4C
	ADIW R30,6
	CALL SUBOPT_0x4B
; 0000 029F         }
	SUBI R20,-1
	RJMP _0x178
_0x179:
; 0000 02A0     }
; 0000 02A1     else
	RJMP _0x188
_0x176:
; 0000 02A2     {
; 0000 02A3         for(j=0; j<Graph_Step_N; j++)
	LDI  R20,LOW(0)
_0x18A:
	CPI  R20,2
	BRLO PC+3
	JMP _0x18B
; 0000 02A4         {
; 0000 02A5             if(Graph_X > Graph_X_Max) break;
	CALL SUBOPT_0x4D
	BRLT _0x18C
	RJMP _0x18B
; 0000 02A6             Lenght = Graph_X + Graph_X_Step;
_0x18C:
	CALL SUBOPT_0x53
; 0000 02A7             if(Lenght > Graph_X_Max) Lenght = Graph_X_Max;
	BRLT _0x18D
	__GETWRN 16,17,478
; 0000 02A8 
; 0000 02A9             if(rx_counter0 < 2 || (TOUCH_IRQ < 1 && Touch_mSec > 70)) goto _return;
_0x18D:
	LDS  R26,_rx_counter0
	CPI  R26,LOW(0x2)
	BRLO _0x18F
	CALL SUBOPT_0x27
	BRSH _0x190
	CALL SUBOPT_0x3A
	CPI  R26,LOW(0x47)
	LDI  R30,HIGH(0x47)
	CPC  R27,R30
	BRSH _0x18F
_0x190:
	RJMP _0x18E
_0x18F:
	RJMP _0x170
; 0000 02AA 
; 0000 02AB             Value[0] = getchar0();
_0x18E:
	CALL SUBOPT_0x54
	STD  Y+12,R30
	STD  Y+12+1,R31
; 0000 02AC             Value[1] = getchar0();
	CALL SUBOPT_0x54
	STD  Y+14,R30
	STD  Y+14+1,R31
; 0000 02AD 
; 0000 02AE             for(i=0; i<2; i++)
	LDI  R21,LOW(0)
_0x194:
	CPI  R21,2
	BRLO PC+3
	JMP _0x195
; 0000 02AF             {
; 0000 02B0                 Value[i] = 128 - Value[i];
	CALL SUBOPT_0x55
	ADD  R30,R26
	ADC  R31,R27
	MOVW R22,R30
	CALL SUBOPT_0x55
	CALL SUBOPT_0x56
	CALL SUBOPT_0x57
; 0000 02B1                 Value[i] *= ConfigValue[ParameterState];
	CALL SUBOPT_0x58
	CALL SUBOPT_0x59
; 0000 02B2                 Value[i] >>= 7;
	CALL SUBOPT_0x5A
	CALL SUBOPT_0x5B
; 0000 02B3                 if(Value[i]&0x0100) Value[i] |= 0xFF00;
	CALL SUBOPT_0x56
	ANDI R31,HIGH(0x100)
	BREQ _0x196
	CALL SUBOPT_0x55
	CALL SUBOPT_0x5A
	ORI  R31,HIGH(0xFF00)
	ST   -X,R31
	ST   -X,R30
; 0000 02B4 
; 0000 02B5                 Value[i] += mid + ((i==1)?(45):(-45));
_0x196:
	CALL SUBOPT_0x55
	ADD  R30,R26
	ADC  R31,R27
	MOVW R22,R30
	LD   R0,Z
	LDD  R1,Z+1
	MOV  R26,R21
	LDI  R27,0
	SBIW R26,1
	BRNE _0x197
	LDI  R30,LOW(45)
	LDI  R31,HIGH(45)
	RJMP _0x198
_0x197:
	LDI  R30,LOW(65491)
	LDI  R31,HIGH(65491)
_0x198:
	ADD  R30,R18
	ADC  R31,R19
	ADD  R30,R0
	ADC  R31,R1
	MOVW R26,R22
	ST   X+,R30
	ST   X,R31
; 0000 02B6                 if(Value[i] > Graph_Y_Max) Value[i] = Graph_Y_Max;
	CALL SUBOPT_0x55
	CALL SUBOPT_0x56
	CPI  R30,LOW(0xE9)
	LDI  R26,HIGH(0xE9)
	CPC  R31,R26
	BRLT _0x19A
	CALL SUBOPT_0x55
	CALL SUBOPT_0x5C
; 0000 02B7                 if(Value[i] < Graph_Y_Min) Value[i] = Graph_Y_Min;
_0x19A:
	CALL SUBOPT_0x55
	CALL SUBOPT_0x56
	SBIW R30,42
	BRGE _0x19B
	CALL SUBOPT_0x55
	CALL SUBOPT_0x5D
; 0000 02B8 
; 0000 02B9                 if(Graph_X >= Graph_X_Min)
_0x19B:
	LDS  R26,_Graph_X+1
	TST  R26
	BRMI _0x19C
; 0000 02BA                 {   // пишем точку в столбце
; 0000 02BB                     SSD1963_DrawLine(Graph_X, Lenght, ValueLast[i], Value[i], Color[i], 2);
	CALL SUBOPT_0x50
	CALL SUBOPT_0x5E
	CALL SUBOPT_0x56
	CALL SUBOPT_0x5F
	CALL SUBOPT_0x60
	CALL SUBOPT_0x5F
	CALL SUBOPT_0x61
	CALL SUBOPT_0x38
	CALL _SSD1963_DrawLine
; 0000 02BC                 }
; 0000 02BD                     // определяем предыдущую точку диограммы
; 0000 02BE                     ValueLast[i] = Value[i];
_0x19C:
	CALL SUBOPT_0x5E
	ADD  R30,R26
	ADC  R31,R27
	MOVW R0,R30
	CALL SUBOPT_0x55
	CALL SUBOPT_0x56
	MOVW R26,R0
	ST   X+,R30
	ST   X,R31
; 0000 02BF             }
	SUBI R21,-1
	RJMP _0x194
_0x195:
; 0000 02C0             Graph_X += Graph_X_Step; // увеличеваем Х диограммы
	CALL SUBOPT_0x4C
	ADIW R30,6
	CALL SUBOPT_0x4B
; 0000 02C1         }
	SUBI R20,-1
	RJMP _0x18A
_0x18B:
; 0000 02C2     }
_0x188:
; 0000 02C3     _return:;
_0x170:
; 0000 02C4 }
	CALL __LOADLOCR6
	ADIW R28,18
	RET
;
;//Функция посылающаа управление куда подальше
;void TestParameterFun(char a, char b, char c, char fHz)
; 0000 02C8 {
_TestParameterFun:
; 0000 02C9     RS485 = 1; //Передача
;	a -> Y+3
;	b -> Y+2
;	c -> Y+1
;	fHz -> Y+0
	SBI  0x12,4
; 0000 02CA     if(b > 110) printf("Напругу убавь \n");
	LDD  R26,Y+2
	CPI  R26,LOW(0x6F)
	BRLO _0x19F
	__POINTW1FN _0x0,125
	CALL SUBOPT_0x62
; 0000 02CB     if(b < 90)  printf("Напруги прибавь \n");
_0x19F:
	LDD  R26,Y+2
	CPI  R26,LOW(0x5A)
	BRSH _0x1A0
	__POINTW1FN _0x0,141
	CALL SUBOPT_0x62
; 0000 02CC     if(fHz < 50)printf("Поддай оборотов \n");
_0x1A0:
	LD   R26,Y
	CPI  R26,LOW(0x32)
	BRSH _0x1A1
	__POINTW1FN _0x0,159
	CALL SUBOPT_0x62
; 0000 02CD     if(fHz > 50)printf("Не гони, помедленнее \n");
_0x1A1:
	LD   R26,Y
	CPI  R26,LOW(0x33)
	BRLO _0x1A2
	__POINTW1FN _0x0,177
	CALL SUBOPT_0x62
; 0000 02CE }
_0x1A2:
	RJMP _0x2080002
;
;void Save_Eeprom(char Number)
; 0000 02D1 {
_Save_Eeprom:
; 0000 02D2     if(Number > 2)
;	Number -> Y+0
	LD   R26,Y
	CPI  R26,LOW(0x3)
	BRLO _0x1A3
; 0000 02D3     {
; 0000 02D4         putchar0_i('K');
	LDI  R30,LOW(75)
	ST   -Y,R30
	CALL _putchar0_i
; 0000 02D5         putchar0_i(Number-3);
	CALL SUBOPT_0x0
	SBIW R30,3
	CALL SUBOPT_0x63
; 0000 02D6         putchar0_i(ConfigValue[Number] & 0xFF);
	ADD  R26,R30
	ADC  R27,R31
	LD   R30,X
	CALL SUBOPT_0x63
; 0000 02D7         putchar0_i(ConfigValue[Number] >> 8);
	CALL SUBOPT_0x56
	MOV  R30,R31
	LDI  R31,0
	ST   -Y,R30
	CALL _putchar0_i
; 0000 02D8     }
; 0000 02D9     else
	RJMP _0x1A4
_0x1A3:
; 0000 02DA     {
; 0000 02DB         ConfigValue_mem[Number] = ConfigValue[Number];
	LD   R30,Y
	CALL SUBOPT_0x64
	ADD  R30,R26
	ADC  R31,R27
	MOVW R0,R30
	LD   R30,Y
	CALL SUBOPT_0x65
	CALL SUBOPT_0x56
	MOVW R26,R0
	CALL __EEPROMWRW
; 0000 02DC     }
_0x1A4:
; 0000 02DD 
; 0000 02DE }
	JMP  _0x2080001
;
;inline void main_loop()  // основной рабочий режим
; 0000 02E1 {
_main_loop:
; 0000 02E2     char fHz, a, b, c;
; 0000 02E3 
; 0000 02E4             switch(ValueState)
	CALL __SAVELOCR4
;	fHz -> R17
;	a -> R16
;	b -> R19
;	c -> R18
	LDS  R30,_ValueState
	CALL SUBOPT_0x41
; 0000 02E5             {
; 0000 02E6                 case 0:
	BREQ PC+3
	JMP _0x1A8
; 0000 02E7                   if(ValueUpd_mSec > 300) //Надо обновить значения, но как?
	LDS  R26,_ValueUpd_mSec
	LDS  R27,_ValueUpd_mSec+1
	CPI  R26,LOW(0x12D)
	LDI  R30,HIGH(0x12D)
	CPC  R27,R30
	BRLO _0x1A9
; 0000 02E8                   {
; 0000 02E9                       if(ValueState < 2)
	LDS  R26,_ValueState
	CPI  R26,LOW(0x2)
	BRSH _0x1AA
; 0000 02EA                       {
; 0000 02EB                           while(rx_counter2) getchar2();
_0x1AB:
	LDS  R30,_rx_counter2
	CPI  R30,0
	BREQ _0x1AD
	CALL _getchar2
	RJMP _0x1AB
_0x1AD:
; 0000 02EC putchar2('S');
	LDI  R30,LOW(83)
	ST   -Y,R30
	RCALL _putchar2
; 0000 02ED                           ValueState = 1;
	LDI  R30,LOW(1)
	STS  _ValueState,R30
; 0000 02EE                           ValueUpd_mSec = 0;
	LDI  R30,LOW(0)
	STS  _ValueUpd_mSec,R30
	STS  _ValueUpd_mSec+1,R30
; 0000 02EF                       }
; 0000 02F0                   }
_0x1AA:
; 0000 02F1                   if(GraphState == 0 && State == 0 && ValueState == 0) //Надо обновить график
_0x1A9:
	LDS  R26,_GraphState
	CPI  R26,LOW(0x0)
	BRNE _0x1AF
	LDS  R26,_State
	CPI  R26,LOW(0x0)
	BRNE _0x1AF
	LDS  R26,_ValueState
	CPI  R26,LOW(0x0)
	BREQ _0x1B0
_0x1AF:
	RJMP _0x1AE
_0x1B0:
; 0000 02F2                   {
; 0000 02F3                       while(rx_counter0) getchar0();
_0x1B1:
	LDS  R30,_rx_counter0
	CPI  R30,0
	BREQ _0x1B3
	CALL _getchar0
	RJMP _0x1B1
_0x1B3:
; 0000 02F4 switch(ParameterState)
	LDS  R30,_ParameterState
	CALL SUBOPT_0x41
; 0000 02F5                       {
; 0000 02F6                           case 0: putchar0('U'); break;
	BRNE _0x1B7
	LDI  R30,LOW(85)
	RJMP _0x215
; 0000 02F7                           case 1: putchar0('I'); break;
_0x1B7:
	CPI  R30,LOW(0x1)
	LDI  R26,HIGH(0x1)
	CPC  R31,R26
	BRNE _0x1B8
	LDI  R30,LOW(73)
	RJMP _0x215
; 0000 02F8                           case 2: putchar0('Z'); break;
_0x1B8:
	CPI  R30,LOW(0x2)
	LDI  R26,HIGH(0x2)
	CPC  R31,R26
	BRNE _0x1B6
	LDI  R30,LOW(90)
_0x215:
	ST   -Y,R30
	CALL _putchar0
; 0000 02F9                       }
_0x1B6:
; 0000 02FA                       ValueState = 2;
	LDI  R30,LOW(2)
	STS  _ValueState,R30
; 0000 02FB                       GraphState = 1;
	LDI  R30,LOW(1)
	STS  _GraphState,R30
; 0000 02FC 
; 0000 02FD                       StartPaint();
	RCALL _StartPaint
; 0000 02FE                       GraphUpd_mSec = 0;
	LDI  R30,LOW(0)
	STS  _GraphUpd_mSec,R30
	STS  _GraphUpd_mSec+1,R30
; 0000 02FF                       rx_buffer_overflow0 = 0;
	CLT
	BLD  R2,0
; 0000 0300                   }
; 0000 0301                 break;
_0x1AE:
	RJMP _0x1A7
; 0000 0302                 case 1:
_0x1A8:
	CPI  R30,LOW(0x1)
	LDI  R26,HIGH(0x1)
	CPC  R31,R26
	BRNE _0x1BA
; 0000 0303                   if(rx_counter2 > 8)
	LDS  R26,_rx_counter2
	CPI  R26,LOW(0x9)
	BRLO _0x1BB
; 0000 0304                   {
; 0000 0305                       fHz = getchar2();
	CALL _getchar2
	MOV  R17,R30
; 0000 0306                       a = getchar2();
	CALL SUBOPT_0x66
; 0000 0307                       b = getchar2();
; 0000 0308                       c = getchar2();
; 0000 0309                       TestParameterFun(a, b, c, fHz);
	ST   -Y,R16
	ST   -Y,R19
	ST   -Y,R18
	ST   -Y,R17
	RCALL _TestParameterFun
; 0000 030A 
; 0000 030B                       if(State == 0) //Надо обновить значения на дисплее
	LDS  R30,_State
	CPI  R30,0
	BRNE _0x1BC
; 0000 030C                       {
; 0000 030D                         switch(ParameterState)
	CALL SUBOPT_0x67
; 0000 030E                         {
; 0000 030F                           case 2:
	CPI  R30,LOW(0x2)
	LDI  R26,HIGH(0x2)
	CPC  R31,R26
	BRNE _0x1C0
; 0000 0310                               {
; 0000 0311                               getchar2();
	CALL _getchar2
; 0000 0312                               getchar2();
	CALL _getchar2
; 0000 0313                               getchar2();
	CALL _getchar2
; 0000 0314                               }
; 0000 0315                               a = getchar2();
	CALL _getchar2
	MOV  R16,R30
; 0000 0316                               b = getchar2();
	CALL _getchar2
	MOV  R19,R30
; 0000 0317                               PutParameterValue(a, b, c, fHz);
	RJMP _0x216
; 0000 0318                           break;
; 0000 0319                           case 1:
_0x1C0:
	CPI  R30,LOW(0x1)
	LDI  R26,HIGH(0x1)
	CPC  R31,R26
	BRNE _0x1C1
; 0000 031A                               a = getchar2();
	CALL SUBOPT_0x66
; 0000 031B                               b = getchar2();
; 0000 031C                               c = getchar2();
; 0000 031D                           case 0:
	RJMP _0x1C2
_0x1C1:
	SBIW R30,0
	BRNE _0x1BF
_0x1C2:
; 0000 031E                               PutParameterValue(a, b, c, fHz);
_0x216:
	ST   -Y,R16
	ST   -Y,R19
	ST   -Y,R18
	ST   -Y,R17
	RCALL _PutParameterValue
; 0000 031F                           break;
; 0000 0320                         }
_0x1BF:
; 0000 0321                       }
; 0000 0322 
; 0000 0323                       while(rx_counter2) getchar2();
_0x1BC:
_0x1C4:
	LDS  R30,_rx_counter2
	CPI  R30,0
	BREQ _0x1C6
	CALL _getchar2
	RJMP _0x1C4
_0x1C6:
; 0000 0324 ValueState = 0;
	LDI  R30,LOW(0)
	STS  _ValueState,R30
; 0000 0325                   }
; 0000 0326                 break;
_0x1BB:
	RJMP _0x1A7
; 0000 0327                 case 2:
_0x1BA:
	CPI  R30,LOW(0x2)
	LDI  R26,HIGH(0x2)
	CPC  R31,R26
	BRNE _0x1A7
; 0000 0328                     if(ParameterState == 2 && GraphUpd_mSec < 80 && GraphUpd_mSec > 30)
	LDS  R26,_ParameterState
	CPI  R26,LOW(0x2)
	BRNE _0x1C9
	CALL SUBOPT_0x4F
	CPI  R26,LOW(0x50)
	LDI  R30,HIGH(0x50)
	CPC  R27,R30
	BRSH _0x1C9
	CALL SUBOPT_0x4F
	SBIW R26,31
	BRSH _0x1CA
_0x1C9:
	RJMP _0x1C8
_0x1CA:
; 0000 0329                     {
; 0000 032A                         if(tx_counter0 == 0 && rx_buffer_overflow0 == 0) putchar0('Z'); //Вытягиваем недостающие точки
	LDS  R26,_tx_counter0
	CPI  R26,LOW(0x0)
	BRNE _0x1CC
	LDI  R26,0
	SBRC R2,0
	LDI  R26,1
	CPI  R26,LOW(0x0)
	BREQ _0x1CD
_0x1CC:
	RJMP _0x1CB
_0x1CD:
	LDI  R30,LOW(90)
	ST   -Y,R30
	CALL _putchar0
; 0000 032B                     }
_0x1CB:
; 0000 032C                     if(GraphUpd_mSec > 200)
_0x1C8:
	CALL SUBOPT_0x4F
	CPI  R26,LOW(0xC9)
	LDI  R30,HIGH(0xC9)
	CPC  R27,R30
	BRLO _0x1CE
; 0000 032D                     {
; 0000 032E                         ValueState = 0;
	LDI  R30,LOW(0)
	STS  _ValueState,R30
; 0000 032F                     }
; 0000 0330                 break;
_0x1CE:
; 0000 0331             }
_0x1A7:
; 0000 0332 
; 0000 0333             switch(State)
	LDS  R30,_State
	CALL SUBOPT_0x32
; 0000 0334             {
; 0000 0335                 case 1:
	BRNE _0x1D2
; 0000 0336                     State = 0;
	LDI  R30,LOW(0)
	STS  _State,R30
; 0000 0337                     Repaint_Button("МЕНЮ", 4, BLACK, WHITE);
	__POINTW1MN _0x1D3,0
	CALL SUBOPT_0x39
	CALL SUBOPT_0x37
; 0000 0338                     PutParameterText(ParameterState, BLUE);
	CALL SUBOPT_0x68
; 0000 0339 
; 0000 033A                 case 0: // основной рабочий режим
	RJMP _0x1D4
_0x1D2:
	SBIW R30,0
	BREQ PC+3
	JMP _0x1D5
_0x1D4:
; 0000 033B                 {
; 0000 033C                       if(GraphState) Paint_Phase(); //Рисуем график
	LDS  R30,_GraphState
	CPI  R30,0
	BREQ _0x1D6
	RCALL _Paint_Phase
; 0000 033D 
; 0000 033E                       switch (GetButton())
_0x1D6:
	RCALL _GetButton
; 0000 033F                       {
; 0000 0340                           case 1:  //Переключение графиков
	CPI  R30,LOW(0x1)
	BRNE _0x1DA
; 0000 0341                               if(++ParameterState > 2) ParameterState = 0;
	LDS  R26,_ParameterState
	SUBI R26,-LOW(1)
	STS  _ParameterState,R26
	CPI  R26,LOW(0x3)
	BRLO _0x1DB
	LDI  R30,LOW(0)
	STS  _ParameterState,R30
; 0000 0342                               PutParameterText(ParameterState, BLUE);
_0x1DB:
	CALL SUBOPT_0x68
; 0000 0343                           break;
	RJMP _0x1D9
; 0000 0344                           case 2:
_0x1DA:
	CPI  R30,LOW(0x2)
	BRNE _0x1DC
; 0000 0345                               if(ConfigValue[ParameterState] < ConfigParam[2][ParameterState])
	CALL SUBOPT_0x69
	CALL SUBOPT_0x6A
	__POINTW1FN _ConfigParam,48
	MOVW R26,R30
	CALL SUBOPT_0x67
	CALL SUBOPT_0x6B
	CP   R22,R30
	CPC  R23,R31
	BRSH _0x1DD
; 0000 0346                               {
; 0000 0347                                   ConfigValue[ParameterState] += ConfigParam[0][ParameterState];
	CALL SUBOPT_0x69
	ADD  R30,R26
	ADC  R31,R27
	MOVW R24,R30
	CALL SUBOPT_0x6C
	CALL SUBOPT_0x6B
	ADD  R30,R22
	ADC  R31,R23
	MOVW R26,R24
	ST   X+,R30
	ST   X,R31
; 0000 0348                               }
; 0000 0349                           break;
_0x1DD:
	RJMP _0x1D9
; 0000 034A                           case 3:
_0x1DC:
	CPI  R30,LOW(0x3)
	BRNE _0x1DE
; 0000 034B                               if(ConfigValue[ParameterState] > ConfigParam[1][ParameterState])
	CALL SUBOPT_0x69
	CALL SUBOPT_0x6A
	__POINTW1FN _ConfigParam,24
	MOVW R26,R30
	CALL SUBOPT_0x67
	CALL SUBOPT_0x6B
	CP   R30,R22
	CPC  R31,R23
	BRSH _0x1DF
; 0000 034C                               {
; 0000 034D                                   ConfigValue[ParameterState] -= ConfigParam[0][ParameterState];
	CALL SUBOPT_0x69
	ADD  R30,R26
	ADC  R31,R27
	MOVW R0,R30
	CALL SUBOPT_0x6C
	CALL SUBOPT_0x6D
; 0000 034E                               }
; 0000 034F                           break;
_0x1DF:
	RJMP _0x1D9
; 0000 0350                           case 4:  //Уходим в настройки
_0x1DE:
	CPI  R30,LOW(0x4)
	BRNE _0x1D9
; 0000 0351                                State = 4;
	LDI  R30,LOW(4)
	STS  _State,R30
; 0000 0352                           break;
; 0000 0353                       }
_0x1D9:
; 0000 0354                 }
; 0000 0355                 break;
	RJMP _0x1D1
; 0000 0356                 case 4:
_0x1D5:
	CPI  R30,LOW(0x4)
	LDI  R26,HIGH(0x4)
	CPC  R31,R26
	BRNE _0x1E1
; 0000 0357                     State = 5;
	LDI  R30,LOW(5)
	STS  _State,R30
; 0000 0358                     ConfigState = 0;
	LDI  R30,LOW(0)
	STS  _ConfigState,R30
; 0000 0359                     Repaint_Button("НАЗАД", 4, BLACK, WHITE);
	__POINTW1MN _0x1D3,5
	CALL SUBOPT_0x39
	CALL SUBOPT_0x37
; 0000 035A                     PutParameterText(ConfigState + State, PURPLE);
	CALL SUBOPT_0x6E
; 0000 035B                     old_confVal = ConfigValue[ConfigState];
	CALL SUBOPT_0x56
	STS  _old_confVal,R30
	STS  _old_confVal+1,R31
; 0000 035C 
; 0000 035D                 case 5: // настройки
	RJMP _0x1E2
_0x1E1:
	CPI  R30,LOW(0x5)
	LDI  R26,HIGH(0x5)
	CPC  R31,R26
	BREQ PC+3
	JMP _0x1E3
_0x1E2:
; 0000 035E                 {
; 0000 035F                     switch (GetButton())
	RCALL _GetButton
; 0000 0360                     {
; 0000 0361                         case 1:
	CPI  R30,LOW(0x1)
	BRNE _0x1E7
; 0000 0362                             if(old_confVal != ConfigValue[ConfigState])
	CALL SUBOPT_0x6F
	CALL SUBOPT_0x56
	LDS  R26,_old_confVal
	LDS  R27,_old_confVal+1
	CP   R30,R26
	CPC  R31,R27
	BREQ _0x1E8
; 0000 0363                             {
; 0000 0364                                 //Сохраняем значение
; 0000 0365                                 Save_Eeprom(ConfigState);
	LDS  R30,_ConfigState
	ST   -Y,R30
	RCALL _Save_Eeprom
; 0000 0366                             }
; 0000 0367 
; 0000 0368                             if(++ConfigState > 11) ConfigState = 0;
_0x1E8:
	LDS  R26,_ConfigState
	SUBI R26,-LOW(1)
	STS  _ConfigState,R26
	CPI  R26,LOW(0xC)
	BRLO _0x1E9
	LDI  R30,LOW(0)
	STS  _ConfigState,R30
; 0000 0369                             PutParameterText(ConfigState + State, PURPLE);
_0x1E9:
	CALL SUBOPT_0x6E
; 0000 036A 
; 0000 036B                             old_confVal = ConfigValue[ConfigState];
	CALL SUBOPT_0x56
	STS  _old_confVal,R30
	STS  _old_confVal+1,R31
; 0000 036C                         break;
	RJMP _0x1E6
; 0000 036D                         case 2:
_0x1E7:
	CPI  R30,LOW(0x2)
	BRNE _0x1EA
; 0000 036E                               if(ConfigValue[ConfigState] < ConfigParam[2][ConfigState])
	CALL SUBOPT_0x6F
	CALL SUBOPT_0x6A
	__POINTW1FN _ConfigParam,48
	CALL SUBOPT_0x70
	CP   R22,R30
	CPC  R23,R31
	BRSH _0x1EB
; 0000 036F                               {
; 0000 0370                                   ConfigValue[ConfigState] += ConfigParam[0][ConfigState];
	CALL SUBOPT_0x6F
	ADD  R30,R26
	ADC  R31,R27
	MOVW R24,R30
	CALL SUBOPT_0x71
	CALL SUBOPT_0x6B
	ADD  R30,R22
	ADC  R31,R23
	MOVW R26,R24
	ST   X+,R30
	ST   X,R31
; 0000 0371                                   PutParameterText(ConfigState + State, PURPLE);
	CALL SUBOPT_0x72
; 0000 0372                               }
; 0000 0373                         break;
_0x1EB:
	RJMP _0x1E6
; 0000 0374                         case 3:
_0x1EA:
	CPI  R30,LOW(0x3)
	BRNE _0x1EC
; 0000 0375                               if(ConfigValue[ConfigState] > ConfigParam[1][ConfigState])
	CALL SUBOPT_0x6F
	CALL SUBOPT_0x6A
	__POINTW1FN _ConfigParam,24
	CALL SUBOPT_0x70
	CP   R30,R22
	CPC  R31,R23
	BRSH _0x1ED
; 0000 0376                               {
; 0000 0377                                   ConfigValue[ConfigState] -= ConfigParam[0][ConfigState];
	CALL SUBOPT_0x6F
	ADD  R30,R26
	ADC  R31,R27
	MOVW R0,R30
	CALL SUBOPT_0x71
	CALL SUBOPT_0x6D
; 0000 0378                                   PutParameterText(ConfigState + State, PURPLE);
	CALL SUBOPT_0x72
; 0000 0379                               }
; 0000 037A                         break;
_0x1ED:
	RJMP _0x1E6
; 0000 037B                         case 4:
_0x1EC:
	CPI  R30,LOW(0x4)
	BRNE _0x1E6
; 0000 037C                             State = 1;
	LDI  R30,LOW(1)
	STS  _State,R30
; 0000 037D                         break;
; 0000 037E                     }
_0x1E6:
; 0000 037F                 }
; 0000 0380                 break;
	RJMP _0x1D1
; 0000 0381                 case 200 : // пауза
_0x1E3:
	CPI  R30,LOW(0xC8)
	LDI  R26,HIGH(0xC8)
	CPC  R31,R26
	BRNE _0x1EF
; 0000 0382                 //Sleep_mSec = 0;
; 0000 0383                     switch (GetButton())
	RCALL _GetButton
; 0000 0384                     {
; 0000 0385                         case 1:
	CPI  R30,LOW(0x1)
	BREQ _0x1F2
; 0000 0386                         break;
; 0000 0387                         case 2:
	CPI  R30,LOW(0x2)
	BREQ _0x1F2
; 0000 0388                         break;
; 0000 0389                         case 3:
	CPI  R30,LOW(0x3)
	BREQ _0x1F2
; 0000 038A                         break;
; 0000 038B                         case 4:
	CPI  R30,LOW(0x4)
	BRNE _0x1F2
; 0000 038C                             State = 0;
	LDI  R30,LOW(0)
	STS  _State,R30
; 0000 038D                             Repaint_Button("ПАУЗА", 4, BLACK, WHITE);
	__POINTW1MN _0x1D3,11
	CALL SUBOPT_0x39
	CALL SUBOPT_0x37
; 0000 038E                             delay_ms(250);
	LDI  R30,LOW(250)
	LDI  R31,HIGH(250)
	CALL SUBOPT_0x9
; 0000 038F                         break;
; 0000 0390                     }
_0x1F2:
; 0000 0391 
; 0000 0392                 break;
	RJMP _0x1D1
; 0000 0393                 case 250 : // сп¤щий режим
_0x1EF:
	CPI  R30,LOW(0xFA)
	LDI  R26,HIGH(0xFA)
	CPC  R31,R26
	BRNE _0x1D1
; 0000 0394                 {
; 0000 0395                     if (TSC2046_GetCoordinates() > 0)
	CALL _TSC2046_GetCoordinates
	CPI  R30,LOW(0x1)
	BRLO _0x1F8
; 0000 0396                     {
; 0000 0397                         State = 0;
	LDI  R30,LOW(0)
	STS  _State,R30
; 0000 0398                         BACKLIGHT = 0; //On
	CBI  0x18,7
; 0000 0399                     }
; 0000 039A                 }
_0x1F8:
; 0000 039B                 break;
; 0000 039C             }
_0x1D1:
; 0000 039D }
	CALL __LOADLOCR4
_0x2080002:
	ADIW R28,4
	RET

	.DSEG
_0x1D3:
	.BYTE 0x11
;
;
;void Load_Config(void)
; 0000 03A1 {

	.CSEG
_Load_Config:
; 0000 03A2     char i;
; 0000 03A3     //Читаем настройки
; 0000 03A4     putchar2('G');
	ST   -Y,R17
;	i -> R17
	LDI  R30,LOW(71)
	ST   -Y,R30
	CALL _putchar2
; 0000 03A5     ValueUpd_mSec = 0;
	LDI  R30,LOW(0)
	STS  _ValueUpd_mSec,R30
	STS  _ValueUpd_mSec+1,R30
; 0000 03A6     ValueState = 5;
	LDI  R30,LOW(5)
	STS  _ValueState,R30
; 0000 03A7     while(rx_counter2 < (9*2) && ValueUpd_mSec < 100); //ждем
_0x1FB:
	LDS  R26,_rx_counter2
	CPI  R26,LOW(0x12)
	BRSH _0x1FE
	LDS  R26,_ValueUpd_mSec
	LDS  R27,_ValueUpd_mSec+1
	CPI  R26,LOW(0x64)
	LDI  R30,HIGH(0x64)
	CPC  R27,R30
	BRLO _0x1FF
_0x1FE:
	RJMP _0x1FD
_0x1FF:
	RJMP _0x1FB
_0x1FD:
; 0000 03A8 
; 0000 03A9     for(i=0; i<12; i++)
	LDI  R17,LOW(0)
_0x201:
	CPI  R17,12
	BRLO PC+3
	JMP _0x202
; 0000 03AA     {
; 0000 03AB         if(i<3)
	CPI  R17,3
	BRSH _0x203
; 0000 03AC         {
; 0000 03AD             ConfigValue[i] = ConfigValue_mem[i];
	MOV  R30,R17
	CALL SUBOPT_0x65
	ADD  R30,R26
	ADC  R31,R27
	MOVW R0,R30
	MOV  R30,R17
	CALL SUBOPT_0x64
	ADD  R26,R30
	ADC  R27,R31
	CALL __EEPROMRDW
	MOVW R26,R0
	RJMP _0x217
; 0000 03AE         }
; 0000 03AF         else if(rx_counter2 > 1)
_0x203:
	LDS  R26,_rx_counter2
	CPI  R26,LOW(0x2)
	BRLO _0x205
; 0000 03B0         {
; 0000 03B1             ConfigValue[i] = getchar2() & 0x00FF;
	MOV  R30,R17
	CALL SUBOPT_0x65
	ADD  R30,R26
	ADC  R31,R27
	PUSH R31
	PUSH R30
	CALL _getchar2
	POP  R26
	POP  R27
	LDI  R31,0
	ST   X+,R30
	ST   X,R31
; 0000 03B2             ConfigValue[i] |= (unsigned int)getchar2() << 8;
	MOV  R30,R17
	CALL SUBOPT_0x65
	ADD  R30,R26
	ADC  R31,R27
	PUSH R31
	PUSH R30
	MOVW R26,R30
	CALL __GETW1P
	PUSH R31
	PUSH R30
	CALL _getchar2
	MOV  R31,R30
	LDI  R30,0
	POP  R26
	POP  R27
	OR   R30,R26
	OR   R31,R27
	POP  R26
	POP  R27
_0x217:
	ST   X+,R30
	ST   X,R31
; 0000 03B3         }
; 0000 03B4 
; 0000 03B5         if(ConfigValue[i] < ConfigParam[1][i] || ConfigValue[i] > ConfigParam[2][i])
_0x205:
	MOV  R30,R17
	CALL SUBOPT_0x65
	CALL SUBOPT_0x6A
	__POINTW1FN _ConfigParam,24
	CALL SUBOPT_0x73
	CP   R22,R30
	CPC  R23,R31
	BRLO _0x207
	MOV  R30,R17
	CALL SUBOPT_0x65
	CALL SUBOPT_0x6A
	__POINTW1FN _ConfigParam,48
	CALL SUBOPT_0x73
	CP   R30,R22
	CPC  R31,R23
	BRSH _0x206
_0x207:
; 0000 03B6         {
; 0000 03B7             ConfigValue[i] = ConfigParam[3][i];
	MOV  R30,R17
	CALL SUBOPT_0x65
	ADD  R30,R26
	ADC  R31,R27
	MOVW R22,R30
	__POINTW1FN _ConfigParam,72
	CALL SUBOPT_0x73
	MOVW R26,R22
	ST   X+,R30
	ST   X,R31
; 0000 03B8         }
; 0000 03B9     }
_0x206:
	SUBI R17,-1
	RJMP _0x201
_0x202:
; 0000 03BA 
; 0000 03BB     ValueState = 0;
	LDI  R30,LOW(0)
	STS  _ValueState,R30
; 0000 03BC }
	LD   R17,Y+
	RET
;
;// Declare your global variables here
;
;void main(void)
; 0000 03C1 {
_main:
; 0000 03C2 // Declare your local variables here
; 0000 03C3 {
; 0000 03C4 // Input/Output Ports initialization
; 0000 03C5 // Port A initialization
; 0000 03C6 // Func7=In Func6=In Func5=In Func4=In Func3=In Func2=In Func1=In Func0=In
; 0000 03C7 // State7=T State6=T State5=T State4=T State3=T State2=T State1=T State0=T
; 0000 03C8 PORTA=0x00;
	LDI  R30,LOW(0)
	OUT  0x1B,R30
; 0000 03C9 DDRA=0x00;
	OUT  0x1A,R30
; 0000 03CA 
; 0000 03CB // Port B initialization
; 0000 03CC // Func7=Out Func6=In Func5=In Func4=In Func3=In Func2=Out Func1=Out Func0=Out
; 0000 03CD // State7=1 State6=T State5=T State4=T State3=T State2=0 State1=0 State0=0
; 0000 03CE PORTB=0x80;
	LDI  R30,LOW(128)
	OUT  0x18,R30
; 0000 03CF DDRB=0x87;
	LDI  R30,LOW(135)
	OUT  0x17,R30
; 0000 03D0 
; 0000 03D1 // Port C initialization
; 0000 03D2 // Func7=In Func6=In Func5=In Func4=In Func3=In Func2=In Func1=In Func0=In
; 0000 03D3 // State7=T State6=T State5=T State4=T State3=T State2=T State1=T State0=T
; 0000 03D4 PORTC=0x00;
	LDI  R30,LOW(0)
	OUT  0x15,R30
; 0000 03D5 DDRC=0x00;
	OUT  0x14,R30
; 0000 03D6 
; 0000 03D7 // Port D initialization
; 0000 03D8 // Func7=In Func6=In Func5=In Func4=Out Func3=In Func2=In Func1=In Func0=In
; 0000 03D9 // State7=T State6=T State5=T State4=0 State3=T State2=T State1=T State0=T
; 0000 03DA PORTD=0x00;
	OUT  0x12,R30
; 0000 03DB DDRD=0x10;
	LDI  R30,LOW(16)
	OUT  0x11,R30
; 0000 03DC 
; 0000 03DD // Port E initialization
; 0000 03DE // Func7=In Func6=In Func5=In Func4=Out Func3=In Func2=In Func1=In Func0=In
; 0000 03DF // State7=T State6=T State5=T State4=1 State3=T State2=T State1=T State0=T
; 0000 03E0 PORTE=0x10;
	OUT  0x3,R30
; 0000 03E1 DDRE=0x10;  //PE4 - CD off
	OUT  0x2,R30
; 0000 03E2 
; 0000 03E3 // Port F initialization
; 0000 03E4 // Func7=In Func6=In Func5=In Func4=In Func3=In Func2=In Func1=In Func0=In
; 0000 03E5 // State7=T State6=T State5=T State4=T State3=T State2=T State1=T State0=T
; 0000 03E6 PORTF=0x00;
	LDI  R30,LOW(0)
	STS  98,R30
; 0000 03E7 DDRF=0x00;
	STS  97,R30
; 0000 03E8 
; 0000 03E9 // Port G initialization
; 0000 03EA // Func4=In Func3=In Func2=In Func1=In Func0=In
; 0000 03EB // State4=T State3=T State2=T State1=T State0=T
; 0000 03EC PORTG=0x00;
	STS  101,R30
; 0000 03ED DDRG=0x00;
	STS  100,R30
; 0000 03EE 
; 0000 03EF // Timer/Counter 0 initialization
; 0000 03F0 // Clock source: System Clock
; 0000 03F1 // Clock value: 250,000 kHz
; 0000 03F2 // Mode: Normal top=0xFF
; 0000 03F3 // OC0 output: Disconnected
; 0000 03F4 ASSR=0x00;
	OUT  0x30,R30
; 0000 03F5 TCCR0=0x04;
	LDI  R30,LOW(4)
	OUT  0x33,R30
; 0000 03F6 TCNT0=0x06;
	LDI  R30,LOW(6)
	OUT  0x32,R30
; 0000 03F7 OCR0=0x00;
	LDI  R30,LOW(0)
	OUT  0x31,R30
; 0000 03F8 
; 0000 03F9 // Timer/Counter 1 initialization
; 0000 03FA // Clock source: System Clock
; 0000 03FB // Clock value: Timer1 Stopped
; 0000 03FC // Mode: Normal top=0xFFFF
; 0000 03FD // OC1A output: Discon.
; 0000 03FE // OC1B output: Discon.
; 0000 03FF // OC1C output: Discon.
; 0000 0400 // Noise Canceler: Off
; 0000 0401 // Input Capture on Falling Edge
; 0000 0402 // Timer1 Overflow Interrupt: Off
; 0000 0403 // Input Capture Interrupt: Off
; 0000 0404 // Compare A Match Interrupt: Off
; 0000 0405 // Compare B Match Interrupt: Off
; 0000 0406 // Compare C Match Interrupt: Off
; 0000 0407 TCCR1A=0x00;
	OUT  0x2F,R30
; 0000 0408 TCCR1B=0x00;
	OUT  0x2E,R30
; 0000 0409 TCNT1H=0x00;
	OUT  0x2D,R30
; 0000 040A TCNT1L=0x00;
	OUT  0x2C,R30
; 0000 040B ICR1H=0x00;
	OUT  0x27,R30
; 0000 040C ICR1L=0x00;
	OUT  0x26,R30
; 0000 040D OCR1AH=0x00;
	OUT  0x2B,R30
; 0000 040E OCR1AL=0x00;
	OUT  0x2A,R30
; 0000 040F OCR1BH=0x00;
	OUT  0x29,R30
; 0000 0410 OCR1BL=0x00;
	OUT  0x28,R30
; 0000 0411 OCR1CH=0x00;
	STS  121,R30
; 0000 0412 OCR1CL=0x00;
	STS  120,R30
; 0000 0413 
; 0000 0414 // Timer/Counter 2 initialization
; 0000 0415 // Clock source: System Clock
; 0000 0416 // Clock value: Timer2 Stopped
; 0000 0417 // Mode: Normal top=0xFF
; 0000 0418 // OC2 output: Disconnected
; 0000 0419 TCCR2=0x00;
	OUT  0x25,R30
; 0000 041A TCNT2=0x00;
	OUT  0x24,R30
; 0000 041B OCR2=0x00;
	OUT  0x23,R30
; 0000 041C 
; 0000 041D // Timer/Counter 3 initialization
; 0000 041E // Clock source: System Clock
; 0000 041F // Clock value: Timer3 Stopped
; 0000 0420 // Mode: Normal top=0xFFFF
; 0000 0421 // OC3A output: Discon.
; 0000 0422 // OC3B output: Discon.
; 0000 0423 // OC3C output: Discon.
; 0000 0424 // Noise Canceler: Off
; 0000 0425 // Input Capture on Falling Edge
; 0000 0426 // Timer3 Overflow Interrupt: Off
; 0000 0427 // Input Capture Interrupt: Off
; 0000 0428 // Compare A Match Interrupt: Off
; 0000 0429 // Compare B Match Interrupt: Off
; 0000 042A // Compare C Match Interrupt: Off
; 0000 042B TCCR3A=0x00;
	STS  139,R30
; 0000 042C TCCR3B=0x00;
	STS  138,R30
; 0000 042D TCNT3H=0x00;
	STS  137,R30
; 0000 042E TCNT3L=0x00;
	STS  136,R30
; 0000 042F ICR3H=0x00;
	STS  129,R30
; 0000 0430 ICR3L=0x00;
	STS  128,R30
; 0000 0431 OCR3AH=0x00;
	STS  135,R30
; 0000 0432 OCR3AL=0x00;
	STS  134,R30
; 0000 0433 OCR3BH=0x00;
	STS  133,R30
; 0000 0434 OCR3BL=0x00;
	STS  132,R30
; 0000 0435 OCR3CH=0x00;
	STS  131,R30
; 0000 0436 OCR3CL=0x00;
	STS  130,R30
; 0000 0437 
; 0000 0438 // External Interrupt(s) initialization
; 0000 0439 // INT0: Off
; 0000 043A // INT1: Off
; 0000 043B // INT2: Off
; 0000 043C // INT3: Off
; 0000 043D // INT4: Off
; 0000 043E // INT5: Off
; 0000 043F // INT6: Off
; 0000 0440 // INT7: Off
; 0000 0441 EICRA=0x00;
	STS  106,R30
; 0000 0442 EICRB=0x00;
	OUT  0x3A,R30
; 0000 0443 EIMSK=0x00;
	OUT  0x39,R30
; 0000 0444 
; 0000 0445 // Timer(s)/Counter(s) Interrupt(s) initialization
; 0000 0446 TIMSK=0x01;
	LDI  R30,LOW(1)
	OUT  0x37,R30
; 0000 0447 
; 0000 0448 ETIMSK=0x00;
	LDI  R30,LOW(0)
	STS  125,R30
; 0000 0449 
; 0000 044A // USART0 initialization
; 0000 044B // Communication Parameters: 8 Data, 1 Stop, No Parity
; 0000 044C // USART0 Receiver: On
; 0000 044D // USART0 Transmitter: On
; 0000 044E // USART0 Mode: Asynchronous
; 0000 044F // USART0 Baud Rate: 115200
; 0000 0450 UCSR0A=0x00;
	OUT  0xB,R30
; 0000 0451 UCSR0B=0xD8;
	LDI  R30,LOW(216)
	OUT  0xA,R30
; 0000 0452 UCSR0C=0x06;
	LDI  R30,LOW(6)
	STS  149,R30
; 0000 0453 UBRR0H=0x00;
	LDI  R30,LOW(0)
	STS  144,R30
; 0000 0454 UBRR0L=0x08;
	LDI  R30,LOW(8)
	OUT  0x9,R30
; 0000 0455 
; 0000 0456 // USART1 initialization
; 0000 0457 // Communication Parameters: 8 Data, 1 Stop, No Parity
; 0000 0458 // USART1 Receiver: On
; 0000 0459 // USART1 Transmitter: On
; 0000 045A // USART1 Mode: Asynchronous
; 0000 045B // USART1 Baud Rate: 9600
; 0000 045C UCSR1A=0x00;
	LDI  R30,LOW(0)
	STS  155,R30
; 0000 045D UCSR1B=0xD8;
	LDI  R30,LOW(216)
	STS  154,R30
; 0000 045E UCSR1C=0x06;
	LDI  R30,LOW(6)
	STS  157,R30
; 0000 045F UBRR1H=0x00;
	LDI  R30,LOW(0)
	STS  152,R30
; 0000 0460 UBRR1L=0x67;
	LDI  R30,LOW(103)
	STS  153,R30
; 0000 0461 
; 0000 0462 // Analog Comparator initialization
; 0000 0463 // Analog Comparator: Off
; 0000 0464 // Analog Comparator Input Capture by Timer/Counter 1: Off
; 0000 0465 ACSR=0x80;
	LDI  R30,LOW(128)
	OUT  0x8,R30
; 0000 0466 SFIOR=0x00;
	LDI  R30,LOW(0)
	OUT  0x20,R30
; 0000 0467 
; 0000 0468 // ADC initialization
; 0000 0469 // ADC disabled
; 0000 046A ADCSRA=0x00;
	OUT  0x6,R30
; 0000 046B 
; 0000 046C // SPI initialization
; 0000 046D // SPI Type: Master
; 0000 046E // SPI Clock Rate: 2*250,000 kHz
; 0000 046F // SPI Clock Phase: Cycle Start
; 0000 0470 // SPI Clock Polarity: Low
; 0000 0471 // SPI Data Order: MSB First
; 0000 0472 SPCR=0x52;
	LDI  R30,LOW(82)
	OUT  0xD,R30
; 0000 0473 SPSR=0x00;
	LDI  R30,LOW(0)
	OUT  0xE,R30
; 0000 0474 
; 0000 0475 // TWI initialization
; 0000 0476 // TWI disabled
; 0000 0477 TWCR=0x00;
	STS  116,R30
; 0000 0478 }
; 0000 0479 {
; 0000 047A // Global enable interrupts
; 0000 047B #asm("sei")
	sei
; 0000 047C 
; 0000 047D SSD1963_Init();
	CALL _SSD1963_Init
; 0000 047E TSC2046_Init();
	CALL _TSC2046_Init
; 0000 047F SSD1963_ClearScreen(BLACK);
	CALL SUBOPT_0xD
	CALL _SSD1963_ClearScreen
; 0000 0480 
; 0000 0481   SSD1963_PutString16("ДЕСКОМ", 240 - 3 * FONT_WIDTH, (272 / 2) - (FONT_HEIGHT / 2) - FONT_HEIGHT, BLUE, BLACK);
	__POINTW1MN _0x209,0
	CALL SUBOPT_0x74
	LDI  R30,LOW(112)
	LDI  R31,HIGH(112)
	ST   -Y,R31
	ST   -Y,R30
	LDI  R30,LOW(248)
	LDI  R31,HIGH(248)
	CALL SUBOPT_0xE
	CALL _SSD1963_PutString16
; 0000 0482   BACKLIGHT = 0; //On
	CBI  0x18,7
; 0000 0483   delay_ms(200);
	CALL SUBOPT_0x4
; 0000 0484   SSD1963_PutString16("ДЕСКОМ", 240 - 3 * FONT_WIDTH, (272 / 2) - (FONT_HEIGHT / 2), RED, BLACK);
	__POINTW1MN _0x209,7
	CALL SUBOPT_0x74
	LDI  R30,LOW(128)
	LDI  R31,HIGH(128)
	ST   -Y,R31
	ST   -Y,R30
	LDI  R30,LOW(7936)
	LDI  R31,HIGH(7936)
	CALL SUBOPT_0xE
	CALL SUBOPT_0x75
; 0000 0485   delay_ms(200);
; 0000 0486   SSD1963_PutString16("ДЕСКОМ", 240 - 3 * FONT_WIDTH, (272 / 2) - (FONT_HEIGHT / 2) + FONT_HEIGHT, GREEN, BLACK);
	__POINTW1MN _0x209,14
	CALL SUBOPT_0x74
	LDI  R30,LOW(144)
	LDI  R31,HIGH(144)
	ST   -Y,R31
	ST   -Y,R30
	LDI  R30,LOW(57351)
	LDI  R31,HIGH(57351)
	CALL SUBOPT_0xE
	CALL SUBOPT_0x75
; 0000 0487   delay_ms(200);
; 0000 0488   SSD1963_PutString16("      ", 240 - 3 * FONT_WIDTH, (272 / 2) - (FONT_HEIGHT / 2) - FONT_HEIGHT, BLACK, BLACK);
	__POINTW1MN _0x209,21
	CALL SUBOPT_0x74
	LDI  R30,LOW(112)
	LDI  R31,HIGH(112)
	CALL SUBOPT_0xE
	CALL SUBOPT_0xD
	CALL SUBOPT_0x75
; 0000 0489   delay_ms(200);
; 0000 048A   SSD1963_PutString16("      ", 240 - 3 * FONT_WIDTH, (272 / 2) - (FONT_HEIGHT / 2), BLACK, BLACK);
	__POINTW1MN _0x209,28
	CALL SUBOPT_0x74
	LDI  R30,LOW(128)
	LDI  R31,HIGH(128)
	CALL SUBOPT_0xE
	CALL SUBOPT_0xD
	CALL SUBOPT_0x75
; 0000 048B   delay_ms(200);
; 0000 048C   SSD1963_PutString16("      ", 240 - 3 * FONT_WIDTH, (272 / 2) - (FONT_HEIGHT / 2) + FONT_HEIGHT, BLACK, BLACK);
	__POINTW1MN _0x209,35
	CALL SUBOPT_0x74
	LDI  R30,LOW(144)
	LDI  R31,HIGH(144)
	CALL SUBOPT_0xE
	CALL SUBOPT_0xD
	CALL _SSD1963_PutString16
; 0000 048D 
; 0000 048E Prepare_Screen();
	CALL _Prepare_Screen
; 0000 048F State = 1;
	LDI  R30,LOW(1)
	STS  _State,R30
; 0000 0490 Load_Config();
	RCALL _Load_Config
; 0000 0491 
; 0000 0492 // Watchdog Timer initialization
; 0000 0493 // Watchdog Timer Prescaler: OSC/2048k
; 0000 0494 #pragma optsize-
; 0000 0495 #asm("wdr")
	wdr
; 0000 0496 WDTCR=0x1F;
	LDI  R30,LOW(31)
	OUT  0x21,R30
; 0000 0497 WDTCR=0x0F;
	LDI  R30,LOW(15)
	OUT  0x21,R30
; 0000 0498 #ifdef _OPTIMIZE_SIZE_
; 0000 0499 #pragma optsize+
; 0000 049A #endif
; 0000 049B }
; 0000 049C 
; 0000 049D while (1)
_0x20C:
; 0000 049E       {
; 0000 049F       #asm("wdr")
	wdr
; 0000 04A0       main_loop();
	RCALL _main_loop
; 0000 04A1       }
	RJMP _0x20C
; 0000 04A2 }
_0x20F:
	RJMP _0x20F

	.DSEG
_0x209:
	.BYTE 0x2A
	#ifndef __SLEEP_DEFINED__
	#define __SLEEP_DEFINED__
	.EQU __se_bit=0x20
	.EQU __sm_mask=0x1C
	.EQU __sm_powerdown=0x10
	.EQU __sm_powersave=0x18
	.EQU __sm_standby=0x14
	.EQU __sm_ext_standby=0x1C
	.EQU __sm_adc_noise_red=0x08
	.SET power_ctrl_reg=mcucr
	#endif

	.CSEG
_spi:
	LD   R30,Y
	OUT  0xF,R30
_0x2000003:
	SBIS 0xE,7
	RJMP _0x2000003
	IN   R30,0xF
_0x2080001:
	ADIW R28,1
	RET
	#ifndef __SLEEP_DEFINED__
	#define __SLEEP_DEFINED__
	.EQU __se_bit=0x20
	.EQU __sm_mask=0x1C
	.EQU __sm_powerdown=0x10
	.EQU __sm_powersave=0x18
	.EQU __sm_standby=0x14
	.EQU __sm_ext_standby=0x1C
	.EQU __sm_adc_noise_red=0x08
	.SET power_ctrl_reg=mcucr
	#endif

	.CSEG
_put_usart_G101:
	LDD  R30,Y+2
	ST   -Y,R30
	CALL _putchar
	LD   R26,Y
	LDD  R27,Y+1
	CALL SUBOPT_0x3B
	ADIW R28,3
	RET
__print_G101:
	SBIW R28,6
	CALL __SAVELOCR6
	LDI  R17,0
	LDD  R26,Y+12
	LDD  R27,Y+12+1
	LDI  R30,LOW(0)
	LDI  R31,HIGH(0)
	ST   X+,R30
	ST   X,R31
_0x2020016:
	LDD  R30,Y+18
	LDD  R31,Y+18+1
	ADIW R30,1
	STD  Y+18,R30
	STD  Y+18+1,R31
	SBIW R30,1
	LPM  R30,Z
	MOV  R18,R30
	CPI  R30,0
	BRNE PC+3
	JMP _0x2020018
	MOV  R30,R17
	CPI  R30,0
	BRNE _0x202001C
	CPI  R18,37
	BRNE _0x202001D
	LDI  R17,LOW(1)
	RJMP _0x202001E
_0x202001D:
	CALL SUBOPT_0x76
_0x202001E:
	RJMP _0x202001B
_0x202001C:
	CPI  R30,LOW(0x1)
	BRNE _0x202001F
	CPI  R18,37
	BRNE _0x2020020
	CALL SUBOPT_0x76
	RJMP _0x20200C9
_0x2020020:
	LDI  R17,LOW(2)
	LDI  R20,LOW(0)
	LDI  R16,LOW(0)
	CPI  R18,45
	BRNE _0x2020021
	LDI  R16,LOW(1)
	RJMP _0x202001B
_0x2020021:
	CPI  R18,43
	BRNE _0x2020022
	LDI  R20,LOW(43)
	RJMP _0x202001B
_0x2020022:
	CPI  R18,32
	BRNE _0x2020023
	LDI  R20,LOW(32)
	RJMP _0x202001B
_0x2020023:
	RJMP _0x2020024
_0x202001F:
	CPI  R30,LOW(0x2)
	BRNE _0x2020025
_0x2020024:
	LDI  R21,LOW(0)
	LDI  R17,LOW(3)
	CPI  R18,48
	BRNE _0x2020026
	ORI  R16,LOW(128)
	RJMP _0x202001B
_0x2020026:
	RJMP _0x2020027
_0x2020025:
	CPI  R30,LOW(0x3)
	BREQ PC+3
	JMP _0x202001B
_0x2020027:
	CPI  R18,48
	BRLO _0x202002A
	CPI  R18,58
	BRLO _0x202002B
_0x202002A:
	RJMP _0x2020029
_0x202002B:
	LDI  R26,LOW(10)
	MUL  R21,R26
	MOV  R21,R0
	MOV  R30,R18
	SUBI R30,LOW(48)
	ADD  R21,R30
	RJMP _0x202001B
_0x2020029:
	MOV  R30,R18
	CPI  R30,LOW(0x63)
	BRNE _0x202002F
	CALL SUBOPT_0x77
	LDD  R30,Y+16
	LDD  R31,Y+16+1
	LDD  R26,Z+4
	ST   -Y,R26
	CALL SUBOPT_0x78
	RJMP _0x2020030
_0x202002F:
	CPI  R30,LOW(0x73)
	BRNE _0x2020032
	CALL SUBOPT_0x77
	CALL SUBOPT_0x79
	CALL _strlen
	MOV  R17,R30
	RJMP _0x2020033
_0x2020032:
	CPI  R30,LOW(0x70)
	BRNE _0x2020035
	CALL SUBOPT_0x77
	CALL SUBOPT_0x79
	CALL _strlenf
	MOV  R17,R30
	ORI  R16,LOW(8)
_0x2020033:
	ORI  R16,LOW(2)
	ANDI R16,LOW(127)
	LDI  R19,LOW(0)
	RJMP _0x2020036
_0x2020035:
	CPI  R30,LOW(0x64)
	BREQ _0x2020039
	CPI  R30,LOW(0x69)
	BRNE _0x202003A
_0x2020039:
	ORI  R16,LOW(4)
	RJMP _0x202003B
_0x202003A:
	CPI  R30,LOW(0x75)
	BRNE _0x202003C
_0x202003B:
	LDI  R30,LOW(_tbl10_G101*2)
	LDI  R31,HIGH(_tbl10_G101*2)
	STD  Y+6,R30
	STD  Y+6+1,R31
	LDI  R17,LOW(5)
	RJMP _0x202003D
_0x202003C:
	CPI  R30,LOW(0x58)
	BRNE _0x202003F
	ORI  R16,LOW(8)
	RJMP _0x2020040
_0x202003F:
	CPI  R30,LOW(0x78)
	BREQ PC+3
	JMP _0x2020071
_0x2020040:
	LDI  R30,LOW(_tbl16_G101*2)
	LDI  R31,HIGH(_tbl16_G101*2)
	STD  Y+6,R30
	STD  Y+6+1,R31
	LDI  R17,LOW(4)
_0x202003D:
	SBRS R16,2
	RJMP _0x2020042
	CALL SUBOPT_0x77
	CALL SUBOPT_0x7A
	LDD  R26,Y+11
	TST  R26
	BRPL _0x2020043
	LDD  R30,Y+10
	LDD  R31,Y+10+1
	CALL __ANEGW1
	STD  Y+10,R30
	STD  Y+10+1,R31
	LDI  R20,LOW(45)
_0x2020043:
	CPI  R20,0
	BREQ _0x2020044
	SUBI R17,-LOW(1)
	RJMP _0x2020045
_0x2020044:
	ANDI R16,LOW(251)
_0x2020045:
	RJMP _0x2020046
_0x2020042:
	CALL SUBOPT_0x77
	CALL SUBOPT_0x7A
_0x2020046:
_0x2020036:
	SBRC R16,0
	RJMP _0x2020047
_0x2020048:
	CP   R17,R21
	BRSH _0x202004A
	SBRS R16,7
	RJMP _0x202004B
	SBRS R16,2
	RJMP _0x202004C
	ANDI R16,LOW(251)
	MOV  R18,R20
	SUBI R17,LOW(1)
	RJMP _0x202004D
_0x202004C:
	LDI  R18,LOW(48)
_0x202004D:
	RJMP _0x202004E
_0x202004B:
	LDI  R18,LOW(32)
_0x202004E:
	CALL SUBOPT_0x76
	SUBI R21,LOW(1)
	RJMP _0x2020048
_0x202004A:
_0x2020047:
	MOV  R19,R17
	SBRS R16,1
	RJMP _0x202004F
_0x2020050:
	CPI  R19,0
	BREQ _0x2020052
	SBRS R16,3
	RJMP _0x2020053
	LDD  R30,Y+6
	LDD  R31,Y+6+1
	LPM  R18,Z+
	STD  Y+6,R30
	STD  Y+6+1,R31
	RJMP _0x2020054
_0x2020053:
	LDD  R26,Y+6
	LDD  R27,Y+6+1
	LD   R18,X+
	STD  Y+6,R26
	STD  Y+6+1,R27
_0x2020054:
	CALL SUBOPT_0x76
	CPI  R21,0
	BREQ _0x2020055
	SUBI R21,LOW(1)
_0x2020055:
	SUBI R19,LOW(1)
	RJMP _0x2020050
_0x2020052:
	RJMP _0x2020056
_0x202004F:
_0x2020058:
	LDI  R18,LOW(48)
	LDD  R30,Y+6
	LDD  R31,Y+6+1
	CALL __GETW1PF
	STD  Y+8,R30
	STD  Y+8+1,R31
	LDD  R30,Y+6
	LDD  R31,Y+6+1
	ADIW R30,2
	STD  Y+6,R30
	STD  Y+6+1,R31
_0x202005A:
	LDD  R30,Y+8
	LDD  R31,Y+8+1
	LDD  R26,Y+10
	LDD  R27,Y+10+1
	CP   R26,R30
	CPC  R27,R31
	BRLO _0x202005C
	SUBI R18,-LOW(1)
	LDD  R26,Y+8
	LDD  R27,Y+8+1
	LDD  R30,Y+10
	LDD  R31,Y+10+1
	SUB  R30,R26
	SBC  R31,R27
	STD  Y+10,R30
	STD  Y+10+1,R31
	RJMP _0x202005A
_0x202005C:
	CPI  R18,58
	BRLO _0x202005D
	SBRS R16,3
	RJMP _0x202005E
	SUBI R18,-LOW(7)
	RJMP _0x202005F
_0x202005E:
	SUBI R18,-LOW(39)
_0x202005F:
_0x202005D:
	SBRC R16,4
	RJMP _0x2020061
	CPI  R18,49
	BRSH _0x2020063
	LDD  R26,Y+8
	LDD  R27,Y+8+1
	SBIW R26,1
	BRNE _0x2020062
_0x2020063:
	RJMP _0x20200CA
_0x2020062:
	CP   R21,R19
	BRLO _0x2020067
	SBRS R16,0
	RJMP _0x2020068
_0x2020067:
	RJMP _0x2020066
_0x2020068:
	LDI  R18,LOW(32)
	SBRS R16,7
	RJMP _0x2020069
	LDI  R18,LOW(48)
_0x20200CA:
	ORI  R16,LOW(16)
	SBRS R16,2
	RJMP _0x202006A
	ANDI R16,LOW(251)
	ST   -Y,R20
	CALL SUBOPT_0x78
	CPI  R21,0
	BREQ _0x202006B
	SUBI R21,LOW(1)
_0x202006B:
_0x202006A:
_0x2020069:
_0x2020061:
	CALL SUBOPT_0x76
	CPI  R21,0
	BREQ _0x202006C
	SUBI R21,LOW(1)
_0x202006C:
_0x2020066:
	SUBI R19,LOW(1)
	LDD  R26,Y+8
	LDD  R27,Y+8+1
	SBIW R26,2
	BRLO _0x2020059
	RJMP _0x2020058
_0x2020059:
_0x2020056:
	SBRS R16,0
	RJMP _0x202006D
_0x202006E:
	CPI  R21,0
	BREQ _0x2020070
	SUBI R21,LOW(1)
	LDI  R30,LOW(32)
	ST   -Y,R30
	CALL SUBOPT_0x78
	RJMP _0x202006E
_0x2020070:
_0x202006D:
_0x2020071:
_0x2020030:
_0x20200C9:
	LDI  R17,LOW(0)
_0x202001B:
	RJMP _0x2020016
_0x2020018:
	LDD  R26,Y+12
	LDD  R27,Y+12+1
	CALL __GETW1P
	CALL __LOADLOCR6
	ADIW R28,20
	RET
_printf:
	PUSH R15
	MOV  R15,R24
	SBIW R28,6
	ST   -Y,R17
	ST   -Y,R16
	MOVW R26,R28
	ADIW R26,4
	CALL __ADDW2R15
	MOVW R16,R26
	LDI  R30,LOW(0)
	STD  Y+4,R30
	STD  Y+4+1,R30
	STD  Y+6,R30
	STD  Y+6+1,R30
	MOVW R26,R28
	ADIW R26,8
	CALL __ADDW2R15
	CALL __GETW1P
	CALL SUBOPT_0x3E
	LDI  R30,LOW(_put_usart_G101)
	LDI  R31,HIGH(_put_usart_G101)
	ST   -Y,R31
	ST   -Y,R30
	MOVW R30,R28
	ADIW R30,8
	ST   -Y,R31
	ST   -Y,R30
	RCALL __print_G101
	LDD  R17,Y+1
	LDD  R16,Y+0
	ADIW R28,8
	POP  R15
	RET

	.CSEG

	.CSEG
_strlen:
    ld   r26,y+
    ld   r27,y+
    clr  r30
    clr  r31
strlen0:
    ld   r22,x+
    tst  r22
    breq strlen1
    adiw r30,1
    rjmp strlen0
strlen1:
    ret
_strlenf:
    clr  r26
    clr  r27
    ld   r30,y+
    ld   r31,y+
strlenf0:
	lpm  r0,z+
    tst  r0
    breq strlenf1
    adiw r26,1
    rjmp strlenf0
strlenf1:
    movw r30,r26
    ret

	.DSEG
_tempX:
	.BYTE 0x4
_tempY:
	.BYTE 0x4
_rx_buffer2:
	.BYTE 0x14
_rx_counter2:
	.BYTE 0x1
_uart_swap:
	.BYTE 0x1
_rx_buffer0:
	.BYTE 0x100
_rx_wr_index0:
	.BYTE 0x1
_rx_rd_index0:
	.BYTE 0x1
_rx_counter0:
	.BYTE 0x1
_tx_buffer0:
	.BYTE 0x8
_tx_wr_index0:
	.BYTE 0x1
_tx_rd_index0:
	.BYTE 0x1
_tx_counter0:
	.BYTE 0x1
_rx_buffer1:
	.BYTE 0x20
_rx_wr_index1:
	.BYTE 0x1
_rx_rd_index1:
	.BYTE 0x1
_rx_counter1:
	.BYTE 0x1
_tx_buffer1:
	.BYTE 0x40
_tx_wr_index1:
	.BYTE 0x1
_tx_rd_index1:
	.BYTE 0x1
_tx_counter1:
	.BYTE 0x1
_State:
	.BYTE 0x1
_ParameterState:
	.BYTE 0x1
_ValueState:
	.BYTE 0x1
_GraphState:
	.BYTE 0x1
_ConfigState:
	.BYTE 0x1
_Touch_mSec:
	.BYTE 0x2
_ValueUpd_mSec:
	.BYTE 0x2
_GraphUpd_mSec:
	.BYTE 0x2
_GraphUpdTime:
	.BYTE 0x2
_Graph_X:
	.BYTE 0x2
_ValueLast:
	.BYTE 0x6
_ConfigValue:
	.BYTE 0x18
_old_confVal:
	.BYTE 0x2

	.ESEG
_ConfigValue_mem:
	.BYTE 0x6

	.CSEG
;OPTIMIZER ADDED SUBROUTINE, CALLED 4 TIMES, CODE SIZE REDUCTION:3 WORDS
SUBOPT_0x0:
	LD   R30,Y
	LDI  R31,0
	RET

;OPTIMIZER ADDED SUBROUTINE, CALLED 3 TIMES, CODE SIZE REDUCTION:5 WORDS
SUBOPT_0x1:
	LDI  R30,LOW(100)
	LDI  R31,HIGH(100)
	ST   -Y,R31
	ST   -Y,R30
	JMP  _delay_ms

;OPTIMIZER ADDED SUBROUTINE, CALLED 2 TIMES, CODE SIZE REDUCTION:2 WORDS
SUBOPT_0x2:
	LD   R30,Y
	ST   -Y,R30
	CALL _RotateByte
	OUT  0x1B,R30
	LDI  R30,LOW(0)
	OUT  0x15,R30
	RET

;OPTIMIZER ADDED SUBROUTINE, CALLED 4 TIMES, CODE SIZE REDUCTION:3 WORDS
SUBOPT_0x3:
	LDI  R30,LOW(1)
	ST   -Y,R30
	JMP  _SSD1963_WriteCmd

;OPTIMIZER ADDED SUBROUTINE, CALLED 6 TIMES, CODE SIZE REDUCTION:17 WORDS
SUBOPT_0x4:
	LDI  R30,LOW(200)
	LDI  R31,HIGH(200)
	ST   -Y,R31
	ST   -Y,R30
	JMP  _delay_ms

;OPTIMIZER ADDED SUBROUTINE, CALLED 2 TIMES, CODE SIZE REDUCTION:2 WORDS
SUBOPT_0x5:
	ST   -Y,R30
	CALL _SSD1963_WriteData_b8
	LDI  R30,LOW(4)
	ST   -Y,R30
	JMP  _SSD1963_WriteData_b8

;OPTIMIZER ADDED SUBROUTINE, CALLED 3 TIMES, CODE SIZE REDUCTION:7 WORDS
SUBOPT_0x6:
	ST   -Y,R30
	CALL _SSD1963_WriteCmd
	LDI  R30,LOW(1)
	ST   -Y,R30
	JMP  _SSD1963_WriteData_b8

;OPTIMIZER ADDED SUBROUTINE, CALLED 3 TIMES, CODE SIZE REDUCTION:5 WORDS
SUBOPT_0x7:
	LDI  R30,LOW(1)
	LDI  R31,HIGH(1)
	ST   -Y,R31
	ST   -Y,R30
	JMP  _delay_ms

;OPTIMIZER ADDED SUBROUTINE, CALLED 4 TIMES, CODE SIZE REDUCTION:12 WORDS
SUBOPT_0x8:
	ST   -Y,R30
	CALL _SSD1963_WriteCmd
	LDI  R30,LOW(3)
	ST   -Y,R30
	JMP  _SSD1963_WriteData_b8

;OPTIMIZER ADDED SUBROUTINE, CALLED 4 TIMES, CODE SIZE REDUCTION:3 WORDS
SUBOPT_0x9:
	ST   -Y,R31
	ST   -Y,R30
	JMP  _delay_ms

;OPTIMIZER ADDED SUBROUTINE, CALLED 6 TIMES, CODE SIZE REDUCTION:22 WORDS
SUBOPT_0xA:
	ST   -Y,R30
	CALL _SSD1963_WriteData_b8
	LDI  R30,LOW(0)
	ST   -Y,R30
	JMP  _SSD1963_WriteData_b8

;OPTIMIZER ADDED SUBROUTINE, CALLED 4 TIMES, CODE SIZE REDUCTION:3 WORDS
SUBOPT_0xB:
	LDI  R30,LOW(1)
	ST   -Y,R30
	JMP  _SSD1963_WriteData_b8

;OPTIMIZER ADDED SUBROUTINE, CALLED 3 TIMES, CODE SIZE REDUCTION:3 WORDS
SUBOPT_0xC:
	ST   -Y,R30
	CALL _SSD1963_WriteData_b8
	RJMP SUBOPT_0xB

;OPTIMIZER ADDED SUBROUTINE, CALLED 50 TIMES, CODE SIZE REDUCTION:95 WORDS
SUBOPT_0xD:
	LDI  R30,LOW(0)
	LDI  R31,HIGH(0)
	ST   -Y,R31
	ST   -Y,R30
	RET

;OPTIMIZER ADDED SUBROUTINE, CALLED 29 TIMES, CODE SIZE REDUCTION:53 WORDS
SUBOPT_0xE:
	ST   -Y,R31
	ST   -Y,R30
	RJMP SUBOPT_0xD

;OPTIMIZER ADDED SUBROUTINE, CALLED 4 TIMES, CODE SIZE REDUCTION:15 WORDS
SUBOPT_0xF:
	ST   -Y,R31
	ST   -Y,R30
	CALL _SSD1963_SetArea
	LDI  R30,LOW(44)
	ST   -Y,R30
	JMP  _SSD1963_WriteCmd

;OPTIMIZER ADDED SUBROUTINE, CALLED 4 TIMES, CODE SIZE REDUCTION:3 WORDS
SUBOPT_0x10:
	ST   -Y,R31
	ST   -Y,R30
	JMP  _SSD1963_WriteData_b16

;OPTIMIZER ADDED SUBROUTINE, CALLED 29 TIMES, CODE SIZE REDUCTION:53 WORDS
SUBOPT_0x11:
	LDD  R30,Y+8
	LDD  R31,Y+8+1
	ST   -Y,R31
	ST   -Y,R30
	RET

;OPTIMIZER ADDED SUBROUTINE, CALLED 13 TIMES, CODE SIZE REDUCTION:21 WORDS
SUBOPT_0x12:
	LDD  R30,Y+10
	LDD  R31,Y+10+1
	ST   -Y,R31
	ST   -Y,R30
	RET

;OPTIMIZER ADDED SUBROUTINE, CALLED 3 TIMES, CODE SIZE REDUCTION:1 WORDS
SUBOPT_0x13:
	LDD  R30,Y+8
	LDI  R31,0
	RET

;OPTIMIZER ADDED SUBROUTINE, CALLED 14 TIMES, CODE SIZE REDUCTION:23 WORDS
SUBOPT_0x14:
	LDD  R30,Y+7
	LDD  R31,Y+7+1
	ST   -Y,R31
	ST   -Y,R30
	RET

;OPTIMIZER ADDED SUBROUTINE, CALLED 4 TIMES, CODE SIZE REDUCTION:9 WORDS
SUBOPT_0x15:
	CALL __DIVW21U
	SUBI R30,-LOW(48)
	ST   -Y,R30
	RJMP SUBOPT_0x11

;OPTIMIZER ADDED SUBROUTINE, CALLED 4 TIMES, CODE SIZE REDUCTION:3 WORDS
SUBOPT_0x16:
	CALL _SSD1963_PutChar16
	LDD  R26,Y+9
	LDD  R27,Y+9+1
	RET

;OPTIMIZER ADDED SUBROUTINE, CALLED 4 TIMES, CODE SIZE REDUCTION:18 WORDS
SUBOPT_0x17:
	CALL __MODW21U
	STD  Y+9,R30
	STD  Y+9+1,R31
	LDD  R30,Y+7
	LDD  R31,Y+7+1
	ADIW R30,16
	STD  Y+7,R30
	STD  Y+7+1,R31
	RET

;OPTIMIZER ADDED SUBROUTINE, CALLED 2 TIMES, CODE SIZE REDUCTION:14 WORDS
SUBOPT_0x18:
	SBIW R28,8
	ST   -Y,R17
	ST   -Y,R16
	LDD  R30,Y+18
	LDD  R31,Y+18+1
	ST   -Y,R31
	ST   -Y,R30
	LDD  R30,Y+18
	LDD  R31,Y+18+1
	ST   -Y,R31
	ST   -Y,R30
	LDD  R30,Y+18
	LDD  R31,Y+18+1
	ST   -Y,R31
	ST   -Y,R30
	LDD  R30,Y+18
	LDD  R31,Y+18+1
	RJMP SUBOPT_0xF

;OPTIMIZER ADDED SUBROUTINE, CALLED 2 TIMES, CODE SIZE REDUCTION:4 WORDS
SUBOPT_0x19:
	LDD  R26,Y+18
	LDD  R27,Y+18+1
	LDD  R30,Y+16
	LDD  R31,Y+16+1
	SUB  R30,R26
	SBC  R31,R27
	ADIW R30,1
	MOVW R16,R30
	TST  R17
	RET

;OPTIMIZER ADDED SUBROUTINE, CALLED 2 TIMES, CODE SIZE REDUCTION:1 WORDS
SUBOPT_0x1A:
	MOVW R30,R16
	LDI  R26,LOW(65535)
	LDI  R27,HIGH(65535)
	CALL __MULW12
	MOVW R16,R30
	RET

;OPTIMIZER ADDED SUBROUTINE, CALLED 2 TIMES, CODE SIZE REDUCTION:10 WORDS
SUBOPT_0x1B:
	LDD  R26,Y+14
	LDD  R27,Y+14+1
	LDD  R30,Y+12
	LDD  R31,Y+12+1
	SUB  R30,R26
	SBC  R31,R27
	ADIW R30,1
	CLR  R22
	CLR  R23
	__PUTD1S 2
	LDD  R26,Y+5
	TST  R26
	RET

;OPTIMIZER ADDED SUBROUTINE, CALLED 4 TIMES, CODE SIZE REDUCTION:3 WORDS
SUBOPT_0x1C:
	__GETD1S 2
	RET

;OPTIMIZER ADDED SUBROUTINE, CALLED 2 TIMES, CODE SIZE REDUCTION:5 WORDS
SUBOPT_0x1D:
	__GETD2N 0xFFFFFFFF
	CALL __MULD12
	__PUTD1S 2
	RET

;OPTIMIZER ADDED SUBROUTINE, CALLED 2 TIMES, CODE SIZE REDUCTION:13 WORDS
SUBOPT_0x1E:
	MOVW R30,R16
	__GETD2S 2
	CALL __CWD1
	CALL __MULD12
	__PUTD1S 2
	LDI  R30,LOW(0)
	__CLRD1S 6
	RET

;OPTIMIZER ADDED SUBROUTINE, CALLED 2 TIMES, CODE SIZE REDUCTION:3 WORDS
SUBOPT_0x1F:
	RCALL SUBOPT_0x1C
	__GETD2S 6
	CALL __CPD21
	RET

;OPTIMIZER ADDED SUBROUTINE, CALLED 2 TIMES, CODE SIZE REDUCTION:7 WORDS
SUBOPT_0x20:
	__GETD1S 6
	__SUBD1N -1
	__PUTD1S 6
	RET

;OPTIMIZER ADDED SUBROUTINE, CALLED 2 TIMES, CODE SIZE REDUCTION:2 WORDS
SUBOPT_0x21:
	LDI  R31,0
	LDD  R26,Y+27
	LDD  R27,Y+27+1
	ADD  R30,R26
	ADC  R31,R27
	RET

;OPTIMIZER ADDED SUBROUTINE, CALLED 3 TIMES, CODE SIZE REDUCTION:1 WORDS
SUBOPT_0x22:
	LDD  R30,Y+8
	LDD  R31,Y+8+1
	SUB  R30,R26
	SBC  R31,R27
	RET

;OPTIMIZER ADDED SUBROUTINE, CALLED 2 TIMES, CODE SIZE REDUCTION:1 WORDS
SUBOPT_0x23:
	LDD  R26,Y+12
	LDD  R27,Y+12+1
	ADD  R30,R26
	ADC  R31,R27
	ST   -Y,R31
	ST   -Y,R30
	RET

;OPTIMIZER ADDED SUBROUTINE, CALLED 2 TIMES, CODE SIZE REDUCTION:21 WORDS
SUBOPT_0x24:
	ST   -Y,R30
	CALL _spi
	__DELAY_USW 400
	LDI  R30,LOW(0)
	ST   -Y,R30
	CALL _spi
	MOV  R16,R30
	CLR  R17
	MOV  R17,R16
	CLR  R16
	LDI  R30,LOW(0)
	ST   -Y,R30
	CALL _spi
	LDI  R31,0
	__ADDWRR 16,17,30,31
	SBI  0x3,2
	MOVW R30,R16
	RET

;OPTIMIZER ADDED SUBROUTINE, CALLED 2 TIMES, CODE SIZE REDUCTION:2 WORDS
SUBOPT_0x25:
	MOVW R30,R16
	CALL __CWD1
	CALL __CDF1
	MOVW R26,R30
	MOVW R24,R22
	RET

;OPTIMIZER ADDED SUBROUTINE, CALLED 2 TIMES, CODE SIZE REDUCTION:1 WORDS
SUBOPT_0x26:
	CALL __DIVF21
	CALL __CFD1
	MOVW R16,R30
	MOVW R30,R16
	RET

;OPTIMIZER ADDED SUBROUTINE, CALLED 5 TIMES, CODE SIZE REDUCTION:5 WORDS
SUBOPT_0x27:
	LDI  R26,0
	SBIC 0x1,3
	LDI  R26,1
	CPI  R26,LOW(0x1)
	RET

;OPTIMIZER ADDED SUBROUTINE, CALLED 3 TIMES, CODE SIZE REDUCTION:11 WORDS
SUBOPT_0x28:
	LDI  R30,LOW(0)
	STS  _tempX,R30
	STS  _tempX+1,R30
	STS  _tempX+2,R30
	STS  _tempX+3,R30
	RET

;OPTIMIZER ADDED SUBROUTINE, CALLED 3 TIMES, CODE SIZE REDUCTION:11 WORDS
SUBOPT_0x29:
	LDI  R30,LOW(0)
	STS  _tempY,R30
	STS  _tempY+1,R30
	STS  _tempY+2,R30
	STS  _tempY+3,R30
	RET

;OPTIMIZER ADDED SUBROUTINE, CALLED 2 TIMES, CODE SIZE REDUCTION:15 WORDS
SUBOPT_0x2A:
	LDS  R26,_tempX
	LDS  R27,_tempX+1
	LDS  R24,_tempX+2
	LDS  R25,_tempX+3
	CLR  R22
	CLR  R23
	CALL __ADDD12
	STS  _tempX,R30
	STS  _tempX+1,R31
	STS  _tempX+2,R22
	STS  _tempX+3,R23
	RET

;OPTIMIZER ADDED SUBROUTINE, CALLED 2 TIMES, CODE SIZE REDUCTION:15 WORDS
SUBOPT_0x2B:
	LDS  R26,_tempY
	LDS  R27,_tempY+1
	LDS  R24,_tempY+2
	LDS  R25,_tempY+3
	CLR  R22
	CLR  R23
	CALL __ADDD12
	STS  _tempY,R30
	STS  _tempY+1,R31
	STS  _tempY+2,R22
	STS  _tempY+3,R23
	RET

;OPTIMIZER ADDED SUBROUTINE, CALLED 2 TIMES, CODE SIZE REDUCTION:1 WORDS
SUBOPT_0x2C:
	__GETD1N 0x10
	CALL __DIVD21
	RET

;OPTIMIZER ADDED SUBROUTINE, CALLED 2 TIMES, CODE SIZE REDUCTION:1 WORDS
SUBOPT_0x2D:
	SUBI R30,LOW(1)
	LDI  R31,0
	SUBI R30,LOW(-_rx_buffer0)
	SBCI R31,HIGH(-_rx_buffer0)
	RET

;OPTIMIZER ADDED SUBROUTINE, CALLED 3 TIMES, CODE SIZE REDUCTION:3 WORDS
SUBOPT_0x2E:
	ST   -Y,R26
	ST   -Y,R30
	ST   -Y,R31
	IN   R30,SREG
	ST   -Y,R30
	RET

;OPTIMIZER ADDED SUBROUTINE, CALLED 2 TIMES, CODE SIZE REDUCTION:1 WORDS
SUBOPT_0x2F:
	SUBI R30,LOW(1)
	LDI  R31,0
	SUBI R30,LOW(-_tx_buffer0)
	SBCI R31,HIGH(-_tx_buffer0)
	RET

;OPTIMIZER ADDED SUBROUTINE, CALLED 2 TIMES, CODE SIZE REDUCTION:1 WORDS
SUBOPT_0x30:
	STS  _uart_swap,R30
	LD   R30,Y
	ST   -Y,R30
	JMP  _putchar0_i

;OPTIMIZER ADDED SUBROUTINE, CALLED 3 TIMES, CODE SIZE REDUCTION:1 WORDS
SUBOPT_0x31:
	SUBI R30,LOW(1)
	LDI  R31,0
	RET

;OPTIMIZER ADDED SUBROUTINE, CALLED 2 TIMES, CODE SIZE REDUCTION:1 WORDS
SUBOPT_0x32:
	LDI  R31,0
	CPI  R30,LOW(0x1)
	LDI  R26,HIGH(0x1)
	CPC  R31,R26
	RET

;OPTIMIZER ADDED SUBROUTINE, CALLED 4 TIMES, CODE SIZE REDUCTION:15 WORDS
SUBOPT_0x33:
	ST   -Y,R31
	ST   -Y,R30
	LDI  R30,LOW(247)
	LDI  R31,HIGH(247)
	ST   -Y,R31
	ST   -Y,R30
	RJMP SUBOPT_0x11

;OPTIMIZER ADDED SUBROUTINE, CALLED 4 TIMES, CODE SIZE REDUCTION:9 WORDS
SUBOPT_0x34:
	CALL _SSD1963_PutString16
	LDD  R30,Y+5
	LDD  R31,Y+5+1
	ST   -Y,R31
	ST   -Y,R30
	RET

;OPTIMIZER ADDED SUBROUTINE, CALLED 4 TIMES, CODE SIZE REDUCTION:39 WORDS
SUBOPT_0x35:
	ST   -Y,R31
	ST   -Y,R30
	LDI  R30,LOW(240)
	LDI  R31,HIGH(240)
	ST   -Y,R31
	ST   -Y,R30
	LDI  R30,LOW(270)
	LDI  R31,HIGH(270)
	ST   -Y,R31
	ST   -Y,R30
	LDI  R30,LOW(65535)
	LDI  R31,HIGH(65535)
	ST   -Y,R31
	ST   -Y,R30
	JMP  _SSD1963_DrawFillRect

;OPTIMIZER ADDED SUBROUTINE, CALLED 4 TIMES, CODE SIZE REDUCTION:33 WORDS
SUBOPT_0x36:
	ST   -Y,R31
	ST   -Y,R30
	LDI  R30,LOW(241)
	LDI  R31,HIGH(241)
	ST   -Y,R31
	ST   -Y,R30
	LDI  R30,LOW(269)
	LDI  R31,HIGH(269)
	ST   -Y,R31
	ST   -Y,R30
	LDI  R30,LOW(1)
	LDI  R31,HIGH(1)
	RJMP SUBOPT_0xE

;OPTIMIZER ADDED SUBROUTINE, CALLED 7 TIMES, CODE SIZE REDUCTION:21 WORDS
SUBOPT_0x37:
	LDI  R30,LOW(65535)
	LDI  R31,HIGH(65535)
	ST   -Y,R31
	ST   -Y,R30
	JMP  _Repaint_Button

;OPTIMIZER ADDED SUBROUTINE, CALLED 3 TIMES, CODE SIZE REDUCTION:1 WORDS
SUBOPT_0x38:
	ST   -Y,R31
	ST   -Y,R30
	LDI  R30,LOW(2)
	ST   -Y,R30
	RET

;OPTIMIZER ADDED SUBROUTINE, CALLED 4 TIMES, CODE SIZE REDUCTION:9 WORDS
SUBOPT_0x39:
	ST   -Y,R31
	ST   -Y,R30
	LDI  R30,LOW(4)
	ST   -Y,R30
	RJMP SUBOPT_0xD

;OPTIMIZER ADDED SUBROUTINE, CALLED 8 TIMES, CODE SIZE REDUCTION:11 WORDS
SUBOPT_0x3A:
	LDS  R26,_Touch_mSec
	LDS  R27,_Touch_mSec+1
	RET

;OPTIMIZER ADDED SUBROUTINE, CALLED 4 TIMES, CODE SIZE REDUCTION:6 WORDS
SUBOPT_0x3B:
	LD   R30,X+
	LD   R31,X+
	ADIW R30,1
	ST   -X,R31
	ST   -X,R30
	RET

;OPTIMIZER ADDED SUBROUTINE, CALLED 4 TIMES, CODE SIZE REDUCTION:3 WORDS
SUBOPT_0x3C:
	LDI  R30,LOW(240)
	LDI  R31,HIGH(240)
	CP   R30,R6
	CPC  R31,R7
	RET

;OPTIMIZER ADDED SUBROUTINE, CALLED 4 TIMES, CODE SIZE REDUCTION:3 WORDS
SUBOPT_0x3D:
	LDI  R30,LOW(270)
	LDI  R31,HIGH(270)
	CP   R6,R30
	CPC  R7,R31
	RET

;OPTIMIZER ADDED SUBROUTINE, CALLED 46 TIMES, CODE SIZE REDUCTION:87 WORDS
SUBOPT_0x3E:
	ST   -Y,R31
	ST   -Y,R30
	ST   -Y,R17
	ST   -Y,R16
	RET

;OPTIMIZER ADDED SUBROUTINE, CALLED 8 TIMES, CODE SIZE REDUCTION:25 WORDS
SUBOPT_0x3F:
	ST   -Y,R19
	ST   -Y,R18
	LDD  R30,Y+10
	LDD  R31,Y+10+1
	RJMP SUBOPT_0xE

;OPTIMIZER ADDED SUBROUTINE, CALLED 7 TIMES, CODE SIZE REDUCTION:33 WORDS
SUBOPT_0x40:
	MOVW R30,R18
	ADIW R30,16
	ST   -Y,R31
	ST   -Y,R30
	LDD  R30,Y+10
	LDD  R31,Y+10+1
	RJMP SUBOPT_0xE

;OPTIMIZER ADDED SUBROUTINE, CALLED 3 TIMES, CODE SIZE REDUCTION:1 WORDS
SUBOPT_0x41:
	LDI  R31,0
	SBIW R30,0
	RET

;OPTIMIZER ADDED SUBROUTINE, CALLED 5 TIMES, CODE SIZE REDUCTION:9 WORDS
SUBOPT_0x42:
	LDI  R31,0
	RJMP SUBOPT_0x3E

;OPTIMIZER ADDED SUBROUTINE, CALLED 2 TIMES, CODE SIZE REDUCTION:1 WORDS
SUBOPT_0x43:
	ST   -Y,R19
	ST   -Y,R18
	LDI  R30,LOW(1)
	ST   -Y,R30
	LDD  R30,Y+11
	LDD  R31,Y+11+1
	RET

;OPTIMIZER ADDED SUBROUTINE, CALLED 2 TIMES, CODE SIZE REDUCTION:1 WORDS
SUBOPT_0x44:
	CALL _SSD1963_PutValue16
	__GETWRN 16,17,80
	__GETWRN 18,19,22
	RET

;OPTIMIZER ADDED SUBROUTINE, CALLED 11 TIMES, CODE SIZE REDUCTION:97 WORDS
SUBOPT_0x45:
	ST   -Y,R19
	ST   -Y,R18
	LDI  R30,LOW(3)
	ST   -Y,R30
	LDD  R30,Y+11
	LDD  R31,Y+11+1
	ST   -Y,R31
	ST   -Y,R30
	LDD  R26,Y+15
	LDI  R27,0
	RET

;OPTIMIZER ADDED SUBROUTINE, CALLED 7 TIMES, CODE SIZE REDUCTION:21 WORDS
SUBOPT_0x46:
	ST   -Y,R31
	ST   -Y,R30
	CALL _SSD1963_PutValue16
	__ADDWRN 16,17,64
	RET

;OPTIMIZER ADDED SUBROUTINE, CALLED 2 TIMES, CODE SIZE REDUCTION:1 WORDS
SUBOPT_0x47:
	ST   -Y,R19
	ST   -Y,R18
	ST   -Y,R21
	ST   -Y,R20
	RJMP SUBOPT_0xD

;OPTIMIZER ADDED SUBROUTINE, CALLED 7 TIMES, CODE SIZE REDUCTION:9 WORDS
SUBOPT_0x48:
	ST   -Y,R21
	ST   -Y,R20
	RJMP SUBOPT_0xD

;OPTIMIZER ADDED SUBROUTINE, CALLED 6 TIMES, CODE SIZE REDUCTION:17 WORDS
SUBOPT_0x49:
	ST   -Y,R19
	ST   -Y,R18
	LDI  R30,LOW(3)
	ST   -Y,R30
	RJMP SUBOPT_0x48

;OPTIMIZER ADDED SUBROUTINE, CALLED 3 TIMES, CODE SIZE REDUCTION:1 WORDS
SUBOPT_0x4A:
	CALL _SSD1963_PutValue16
	__ADDWRN 16,17,64
	RET

;OPTIMIZER ADDED SUBROUTINE, CALLED 3 TIMES, CODE SIZE REDUCTION:1 WORDS
SUBOPT_0x4B:
	STS  _Graph_X,R30
	STS  _Graph_X+1,R31
	RET

;OPTIMIZER ADDED SUBROUTINE, CALLED 13 TIMES, CODE SIZE REDUCTION:21 WORDS
SUBOPT_0x4C:
	LDS  R30,_Graph_X
	LDS  R31,_Graph_X+1
	RET

;OPTIMIZER ADDED SUBROUTINE, CALLED 3 TIMES, CODE SIZE REDUCTION:7 WORDS
SUBOPT_0x4D:
	LDS  R26,_Graph_X
	LDS  R27,_Graph_X+1
	CPI  R26,LOW(0x1DF)
	LDI  R30,HIGH(0x1DF)
	CPC  R27,R30
	RET

;OPTIMIZER ADDED SUBROUTINE, CALLED 2 TIMES, CODE SIZE REDUCTION:3 WORDS
SUBOPT_0x4E:
	LDS  R30,_GraphUpd_mSec
	LDS  R31,_GraphUpd_mSec+1
	STS  _GraphUpdTime,R30
	STS  _GraphUpdTime+1,R31
	RET

;OPTIMIZER ADDED SUBROUTINE, CALLED 4 TIMES, CODE SIZE REDUCTION:3 WORDS
SUBOPT_0x4F:
	LDS  R26,_GraphUpd_mSec
	LDS  R27,_GraphUpd_mSec+1
	RET

;OPTIMIZER ADDED SUBROUTINE, CALLED 7 TIMES, CODE SIZE REDUCTION:9 WORDS
SUBOPT_0x50:
	RCALL SUBOPT_0x4C
	RJMP SUBOPT_0x3E

;OPTIMIZER ADDED SUBROUTINE, CALLED 4 TIMES, CODE SIZE REDUCTION:15 WORDS
SUBOPT_0x51:
	LDI  R30,LOW(8456)
	LDI  R31,HIGH(8456)
	ST   -Y,R31
	ST   -Y,R30
	CALL _SSD1963_DrawFastLine
	RJMP SUBOPT_0x50

;OPTIMIZER ADDED SUBROUTINE, CALLED 3 TIMES, CODE SIZE REDUCTION:1 WORDS
SUBOPT_0x52:
	ST   -Y,R31
	ST   -Y,R30
	RJMP SUBOPT_0x51

;OPTIMIZER ADDED SUBROUTINE, CALLED 2 TIMES, CODE SIZE REDUCTION:2 WORDS
SUBOPT_0x53:
	RCALL SUBOPT_0x4C
	ADIW R30,6
	MOVW R16,R30
	__CPWRN 16,17,479
	RET

;OPTIMIZER ADDED SUBROUTINE, CALLED 5 TIMES, CODE SIZE REDUCTION:9 WORDS
SUBOPT_0x54:
	CALL _getchar0
	LDI  R31,0
	RET

;OPTIMIZER ADDED SUBROUTINE, CALLED 24 TIMES, CODE SIZE REDUCTION:135 WORDS
SUBOPT_0x55:
	MOV  R30,R21
	LDI  R31,0
	MOVW R26,R28
	ADIW R26,12
	LSL  R30
	ROL  R31
	RET

;OPTIMIZER ADDED SUBROUTINE, CALLED 23 TIMES, CODE SIZE REDUCTION:41 WORDS
SUBOPT_0x56:
	ADD  R26,R30
	ADC  R27,R31
	CALL __GETW1P
	RET

;OPTIMIZER ADDED SUBROUTINE, CALLED 2 TIMES, CODE SIZE REDUCTION:6 WORDS
SUBOPT_0x57:
	LDI  R26,LOW(128)
	LDI  R27,HIGH(128)
	CALL __SWAPW12
	SUB  R30,R26
	SBC  R31,R27
	MOVW R26,R22
	ST   X+,R30
	ST   X,R31
	RJMP SUBOPT_0x55

;OPTIMIZER ADDED SUBROUTINE, CALLED 2 TIMES, CODE SIZE REDUCTION:11 WORDS
SUBOPT_0x58:
	ADD  R30,R26
	ADC  R31,R27
	MOVW R22,R30
	LD   R0,Z
	LDD  R1,Z+1
	LDS  R30,_ParameterState
	LDI  R26,LOW(_ConfigValue)
	LDI  R27,HIGH(_ConfigValue)
	LDI  R31,0
	LSL  R30
	ROL  R31
	RJMP SUBOPT_0x56

;OPTIMIZER ADDED SUBROUTINE, CALLED 2 TIMES, CODE SIZE REDUCTION:3 WORDS
SUBOPT_0x59:
	MOVW R26,R0
	CALL __MULW12U
	MOVW R26,R22
	ST   X+,R30
	ST   X,R31
	RJMP SUBOPT_0x55

;OPTIMIZER ADDED SUBROUTINE, CALLED 5 TIMES, CODE SIZE REDUCTION:5 WORDS
SUBOPT_0x5A:
	ADD  R26,R30
	ADC  R27,R31
	LD   R30,X+
	LD   R31,X+
	RET

;OPTIMIZER ADDED SUBROUTINE, CALLED 2 TIMES, CODE SIZE REDUCTION:3 WORDS
SUBOPT_0x5B:
	CALL __ASRW3
	CALL __ASRW4
	ST   -X,R31
	ST   -X,R30
	RJMP SUBOPT_0x55

;OPTIMIZER ADDED SUBROUTINE, CALLED 2 TIMES, CODE SIZE REDUCTION:1 WORDS
SUBOPT_0x5C:
	ADD  R26,R30
	ADC  R27,R31
	LDI  R30,LOW(232)
	LDI  R31,HIGH(232)
	ST   X+,R30
	ST   X,R31
	RET

;OPTIMIZER ADDED SUBROUTINE, CALLED 2 TIMES, CODE SIZE REDUCTION:1 WORDS
SUBOPT_0x5D:
	ADD  R26,R30
	ADC  R27,R31
	LDI  R30,LOW(42)
	LDI  R31,HIGH(42)
	ST   X+,R30
	ST   X,R31
	RET

;OPTIMIZER ADDED SUBROUTINE, CALLED 4 TIMES, CODE SIZE REDUCTION:15 WORDS
SUBOPT_0x5E:
	MOV  R30,R21
	LDI  R26,LOW(_ValueLast)
	LDI  R27,HIGH(_ValueLast)
	LDI  R31,0
	LSL  R30
	ROL  R31
	RET

;OPTIMIZER ADDED SUBROUTINE, CALLED 4 TIMES, CODE SIZE REDUCTION:9 WORDS
SUBOPT_0x5F:
	ST   -Y,R31
	ST   -Y,R30
	MOV  R30,R21
	LDI  R31,0
	RET

;OPTIMIZER ADDED SUBROUTINE, CALLED 2 TIMES, CODE SIZE REDUCTION:1 WORDS
SUBOPT_0x60:
	MOVW R26,R28
	ADIW R26,18
	LSL  R30
	ROL  R31
	RJMP SUBOPT_0x56

;OPTIMIZER ADDED SUBROUTINE, CALLED 2 TIMES, CODE SIZE REDUCTION:1 WORDS
SUBOPT_0x61:
	MOVW R26,R28
	ADIW R26,14
	LSL  R30
	ROL  R31
	RJMP SUBOPT_0x56

;OPTIMIZER ADDED SUBROUTINE, CALLED 4 TIMES, CODE SIZE REDUCTION:9 WORDS
SUBOPT_0x62:
	ST   -Y,R31
	ST   -Y,R30
	LDI  R24,0
	CALL _printf
	ADIW R28,2
	RET

;OPTIMIZER ADDED SUBROUTINE, CALLED 2 TIMES, CODE SIZE REDUCTION:6 WORDS
SUBOPT_0x63:
	ST   -Y,R30
	CALL _putchar0_i
	LD   R30,Y
	LDI  R26,LOW(_ConfigValue)
	LDI  R27,HIGH(_ConfigValue)
	LDI  R31,0
	LSL  R30
	ROL  R31
	RET

;OPTIMIZER ADDED SUBROUTINE, CALLED 2 TIMES, CODE SIZE REDUCTION:2 WORDS
SUBOPT_0x64:
	LDI  R26,LOW(_ConfigValue_mem)
	LDI  R27,HIGH(_ConfigValue_mem)
	LDI  R31,0
	LSL  R30
	ROL  R31
	RET

;OPTIMIZER ADDED SUBROUTINE, CALLED 18 TIMES, CODE SIZE REDUCTION:82 WORDS
SUBOPT_0x65:
	LDI  R26,LOW(_ConfigValue)
	LDI  R27,HIGH(_ConfigValue)
	LDI  R31,0
	LSL  R30
	ROL  R31
	RET

;OPTIMIZER ADDED SUBROUTINE, CALLED 2 TIMES, CODE SIZE REDUCTION:4 WORDS
SUBOPT_0x66:
	CALL _getchar2
	MOV  R16,R30
	CALL _getchar2
	MOV  R19,R30
	CALL _getchar2
	MOV  R18,R30
	RET

;OPTIMIZER ADDED SUBROUTINE, CALLED 3 TIMES, CODE SIZE REDUCTION:3 WORDS
SUBOPT_0x67:
	LDS  R30,_ParameterState
	LDI  R31,0
	RET

;OPTIMIZER ADDED SUBROUTINE, CALLED 2 TIMES, CODE SIZE REDUCTION:4 WORDS
SUBOPT_0x68:
	LDS  R30,_ParameterState
	ST   -Y,R30
	LDI  R30,LOW(248)
	LDI  R31,HIGH(248)
	ST   -Y,R31
	ST   -Y,R30
	JMP  _PutParameterText

;OPTIMIZER ADDED SUBROUTINE, CALLED 4 TIMES, CODE SIZE REDUCTION:3 WORDS
SUBOPT_0x69:
	LDS  R30,_ParameterState
	RJMP SUBOPT_0x65

;OPTIMIZER ADDED SUBROUTINE, CALLED 6 TIMES, CODE SIZE REDUCTION:7 WORDS
SUBOPT_0x6A:
	ADD  R26,R30
	ADC  R27,R31
	LD   R22,X+
	LD   R23,X
	RET

;OPTIMIZER ADDED SUBROUTINE, CALLED 9 TIMES, CODE SIZE REDUCTION:29 WORDS
SUBOPT_0x6B:
	LSL  R30
	ROL  R31
	ADD  R30,R26
	ADC  R31,R27
	CALL __GETW1PF
	RET

;OPTIMIZER ADDED SUBROUTINE, CALLED 2 TIMES, CODE SIZE REDUCTION:4 WORDS
SUBOPT_0x6C:
	LD   R22,Z
	LDD  R23,Z+1
	LDS  R30,_ParameterState
	LDI  R26,LOW(_ConfigParam*2)
	LDI  R27,HIGH(_ConfigParam*2)
	LDI  R31,0
	RET

;OPTIMIZER ADDED SUBROUTINE, CALLED 2 TIMES, CODE SIZE REDUCTION:7 WORDS
SUBOPT_0x6D:
	LSL  R30
	ROL  R31
	ADD  R30,R26
	ADC  R31,R27
	CALL __GETW2PF
	MOVW R30,R22
	SUB  R30,R26
	SBC  R31,R27
	MOVW R26,R0
	ST   X+,R30
	ST   X,R31
	RET

;OPTIMIZER ADDED SUBROUTINE, CALLED 2 TIMES, CODE SIZE REDUCTION:11 WORDS
SUBOPT_0x6E:
	LDS  R30,_State
	LDS  R26,_ConfigState
	ADD  R30,R26
	ST   -Y,R30
	LDI  R30,LOW(30735)
	LDI  R31,HIGH(30735)
	ST   -Y,R31
	ST   -Y,R30
	CALL _PutParameterText
	LDS  R30,_ConfigState
	RJMP SUBOPT_0x65

;OPTIMIZER ADDED SUBROUTINE, CALLED 5 TIMES, CODE SIZE REDUCTION:5 WORDS
SUBOPT_0x6F:
	LDS  R30,_ConfigState
	RJMP SUBOPT_0x65

;OPTIMIZER ADDED SUBROUTINE, CALLED 2 TIMES, CODE SIZE REDUCTION:3 WORDS
SUBOPT_0x70:
	MOVW R26,R30
	LDS  R30,_ConfigState
	LDI  R31,0
	RJMP SUBOPT_0x6B

;OPTIMIZER ADDED SUBROUTINE, CALLED 2 TIMES, CODE SIZE REDUCTION:4 WORDS
SUBOPT_0x71:
	LD   R22,Z
	LDD  R23,Z+1
	LDS  R30,_ConfigState
	LDI  R26,LOW(_ConfigParam*2)
	LDI  R27,HIGH(_ConfigParam*2)
	LDI  R31,0
	RET

;OPTIMIZER ADDED SUBROUTINE, CALLED 2 TIMES, CODE SIZE REDUCTION:7 WORDS
SUBOPT_0x72:
	LDS  R30,_State
	LDS  R26,_ConfigState
	ADD  R30,R26
	ST   -Y,R30
	LDI  R30,LOW(30735)
	LDI  R31,HIGH(30735)
	ST   -Y,R31
	ST   -Y,R30
	JMP  _PutParameterText

;OPTIMIZER ADDED SUBROUTINE, CALLED 3 TIMES, CODE SIZE REDUCTION:7 WORDS
SUBOPT_0x73:
	MOVW R26,R30
	MOV  R30,R17
	LDI  R31,0
	RJMP SUBOPT_0x6B

;OPTIMIZER ADDED SUBROUTINE, CALLED 6 TIMES, CODE SIZE REDUCTION:17 WORDS
SUBOPT_0x74:
	ST   -Y,R31
	ST   -Y,R30
	LDI  R30,LOW(192)
	LDI  R31,HIGH(192)
	ST   -Y,R31
	ST   -Y,R30
	RET

;OPTIMIZER ADDED SUBROUTINE, CALLED 4 TIMES, CODE SIZE REDUCTION:3 WORDS
SUBOPT_0x75:
	CALL _SSD1963_PutString16
	RJMP SUBOPT_0x4

;OPTIMIZER ADDED SUBROUTINE, CALLED 5 TIMES, CODE SIZE REDUCTION:21 WORDS
SUBOPT_0x76:
	ST   -Y,R18
	LDD  R30,Y+13
	LDD  R31,Y+13+1
	ST   -Y,R31
	ST   -Y,R30
	LDD  R30,Y+17
	LDD  R31,Y+17+1
	ICALL
	RET

;OPTIMIZER ADDED SUBROUTINE, CALLED 5 TIMES, CODE SIZE REDUCTION:9 WORDS
SUBOPT_0x77:
	LDD  R30,Y+16
	LDD  R31,Y+16+1
	SBIW R30,4
	STD  Y+16,R30
	STD  Y+16+1,R31
	RET

;OPTIMIZER ADDED SUBROUTINE, CALLED 3 TIMES, CODE SIZE REDUCTION:7 WORDS
SUBOPT_0x78:
	LDD  R30,Y+13
	LDD  R31,Y+13+1
	ST   -Y,R31
	ST   -Y,R30
	LDD  R30,Y+17
	LDD  R31,Y+17+1
	ICALL
	RET

;OPTIMIZER ADDED SUBROUTINE, CALLED 2 TIMES, CODE SIZE REDUCTION:6 WORDS
SUBOPT_0x79:
	LDD  R26,Y+16
	LDD  R27,Y+16+1
	ADIW R26,4
	CALL __GETW1P
	STD  Y+6,R30
	STD  Y+6+1,R31
	ST   -Y,R31
	ST   -Y,R30
	RET

;OPTIMIZER ADDED SUBROUTINE, CALLED 2 TIMES, CODE SIZE REDUCTION:2 WORDS
SUBOPT_0x7A:
	LDD  R26,Y+16
	LDD  R27,Y+16+1
	ADIW R26,4
	CALL __GETW1P
	STD  Y+10,R30
	STD  Y+10+1,R31
	RET


	.CSEG
_delay_ms:
	ld   r30,y+
	ld   r31,y+
	adiw r30,0
	breq __delay_ms1
__delay_ms0:
	__DELAY_USW 0xFA0
	wdr
	sbiw r30,1
	brne __delay_ms0
__delay_ms1:
	ret

__ROUND_REPACK:
	TST  R21
	BRPL __REPACK
	CPI  R21,0x80
	BRNE __ROUND_REPACK0
	SBRS R30,0
	RJMP __REPACK
__ROUND_REPACK0:
	ADIW R30,1
	ADC  R22,R25
	ADC  R23,R25
	BRVS __REPACK1

__REPACK:
	LDI  R21,0x80
	EOR  R21,R23
	BRNE __REPACK0
	PUSH R21
	RJMP __ZERORES
__REPACK0:
	CPI  R21,0xFF
	BREQ __REPACK1
	LSL  R22
	LSL  R0
	ROR  R21
	ROR  R22
	MOV  R23,R21
	RET
__REPACK1:
	PUSH R21
	TST  R0
	BRMI __REPACK2
	RJMP __MAXRES
__REPACK2:
	RJMP __MINRES

__UNPACK:
	LDI  R21,0x80
	MOV  R1,R25
	AND  R1,R21
	LSL  R24
	ROL  R25
	EOR  R25,R21
	LSL  R21
	ROR  R24

__UNPACK1:
	LDI  R21,0x80
	MOV  R0,R23
	AND  R0,R21
	LSL  R22
	ROL  R23
	EOR  R23,R21
	LSL  R21
	ROR  R22
	RET

__CFD1U:
	SET
	RJMP __CFD1U0
__CFD1:
	CLT
__CFD1U0:
	PUSH R21
	RCALL __UNPACK1
	CPI  R23,0x80
	BRLO __CFD10
	CPI  R23,0xFF
	BRCC __CFD10
	RJMP __ZERORES
__CFD10:
	LDI  R21,22
	SUB  R21,R23
	BRPL __CFD11
	NEG  R21
	CPI  R21,8
	BRTC __CFD19
	CPI  R21,9
__CFD19:
	BRLO __CFD17
	SER  R30
	SER  R31
	SER  R22
	LDI  R23,0x7F
	BLD  R23,7
	RJMP __CFD15
__CFD17:
	CLR  R23
	TST  R21
	BREQ __CFD15
__CFD18:
	LSL  R30
	ROL  R31
	ROL  R22
	ROL  R23
	DEC  R21
	BRNE __CFD18
	RJMP __CFD15
__CFD11:
	CLR  R23
__CFD12:
	CPI  R21,8
	BRLO __CFD13
	MOV  R30,R31
	MOV  R31,R22
	MOV  R22,R23
	SUBI R21,8
	RJMP __CFD12
__CFD13:
	TST  R21
	BREQ __CFD15
__CFD14:
	LSR  R23
	ROR  R22
	ROR  R31
	ROR  R30
	DEC  R21
	BRNE __CFD14
__CFD15:
	TST  R0
	BRPL __CFD16
	RCALL __ANEGD1
__CFD16:
	POP  R21
	RET

__CDF1U:
	SET
	RJMP __CDF1U0
__CDF1:
	CLT
__CDF1U0:
	SBIW R30,0
	SBCI R22,0
	SBCI R23,0
	BREQ __CDF10
	CLR  R0
	BRTS __CDF11
	TST  R23
	BRPL __CDF11
	COM  R0
	RCALL __ANEGD1
__CDF11:
	MOV  R1,R23
	LDI  R23,30
	TST  R1
__CDF12:
	BRMI __CDF13
	DEC  R23
	LSL  R30
	ROL  R31
	ROL  R22
	ROL  R1
	RJMP __CDF12
__CDF13:
	MOV  R30,R31
	MOV  R31,R22
	MOV  R22,R1
	PUSH R21
	RCALL __REPACK
	POP  R21
__CDF10:
	RET

__ZERORES:
	CLR  R30
	CLR  R31
	CLR  R22
	CLR  R23
	POP  R21
	RET

__MINRES:
	SER  R30
	SER  R31
	LDI  R22,0x7F
	SER  R23
	POP  R21
	RET

__MAXRES:
	SER  R30
	SER  R31
	LDI  R22,0x7F
	LDI  R23,0x7F
	POP  R21
	RET

__DIVF21:
	PUSH R21
	RCALL __UNPACK
	CPI  R23,0x80
	BRNE __DIVF210
	TST  R1
__DIVF211:
	BRPL __DIVF219
	RJMP __MINRES
__DIVF219:
	RJMP __MAXRES
__DIVF210:
	CPI  R25,0x80
	BRNE __DIVF218
__DIVF217:
	RJMP __ZERORES
__DIVF218:
	EOR  R0,R1
	SEC
	SBC  R25,R23
	BRVC __DIVF216
	BRLT __DIVF217
	TST  R0
	RJMP __DIVF211
__DIVF216:
	MOV  R23,R25
	PUSH R17
	PUSH R18
	PUSH R19
	PUSH R20
	CLR  R1
	CLR  R17
	CLR  R18
	CLR  R19
	CLR  R20
	CLR  R21
	LDI  R25,32
__DIVF212:
	CP   R26,R30
	CPC  R27,R31
	CPC  R24,R22
	CPC  R20,R17
	BRLO __DIVF213
	SUB  R26,R30
	SBC  R27,R31
	SBC  R24,R22
	SBC  R20,R17
	SEC
	RJMP __DIVF214
__DIVF213:
	CLC
__DIVF214:
	ROL  R21
	ROL  R18
	ROL  R19
	ROL  R1
	ROL  R26
	ROL  R27
	ROL  R24
	ROL  R20
	DEC  R25
	BRNE __DIVF212
	MOVW R30,R18
	MOV  R22,R1
	POP  R20
	POP  R19
	POP  R18
	POP  R17
	TST  R22
	BRMI __DIVF215
	LSL  R21
	ROL  R30
	ROL  R31
	ROL  R22
	DEC  R23
	BRVS __DIVF217
__DIVF215:
	RCALL __ROUND_REPACK
	POP  R21
	RET

__ADDW2R15:
	CLR  R0
	ADD  R26,R15
	ADC  R27,R0
	RET

__ADDD12:
	ADD  R30,R26
	ADC  R31,R27
	ADC  R22,R24
	ADC  R23,R25
	RET

__ANEGW1:
	NEG  R31
	NEG  R30
	SBCI R31,0
	RET

__ANEGD1:
	COM  R31
	COM  R22
	COM  R23
	NEG  R30
	SBCI R31,-1
	SBCI R22,-1
	SBCI R23,-1
	RET

__LSRB12:
	TST  R30
	MOV  R0,R30
	MOV  R30,R26
	BREQ __LSRB12R
__LSRB12L:
	LSR  R30
	DEC  R0
	BRNE __LSRB12L
__LSRB12R:
	RET

__ASRW4:
	ASR  R31
	ROR  R30
__ASRW3:
	ASR  R31
	ROR  R30
__ASRW2:
	ASR  R31
	ROR  R30
	ASR  R31
	ROR  R30
	RET

__CWD1:
	MOV  R22,R31
	ADD  R22,R22
	SBC  R22,R22
	MOV  R23,R22
	RET

__MULW12U:
	MUL  R31,R26
	MOV  R31,R0
	MUL  R30,R27
	ADD  R31,R0
	MUL  R30,R26
	MOV  R30,R0
	ADD  R31,R1
	RET

__MULD12U:
	MUL  R23,R26
	MOV  R23,R0
	MUL  R22,R27
	ADD  R23,R0
	MUL  R31,R24
	ADD  R23,R0
	MUL  R30,R25
	ADD  R23,R0
	MUL  R22,R26
	MOV  R22,R0
	ADD  R23,R1
	MUL  R31,R27
	ADD  R22,R0
	ADC  R23,R1
	MUL  R30,R24
	ADD  R22,R0
	ADC  R23,R1
	CLR  R24
	MUL  R31,R26
	MOV  R31,R0
	ADD  R22,R1
	ADC  R23,R24
	MUL  R30,R27
	ADD  R31,R0
	ADC  R22,R1
	ADC  R23,R24
	MUL  R30,R26
	MOV  R30,R0
	ADD  R31,R1
	ADC  R22,R24
	ADC  R23,R24
	RET

__MULW12:
	RCALL __CHKSIGNW
	RCALL __MULW12U
	BRTC __MULW121
	RCALL __ANEGW1
__MULW121:
	RET

__MULD12:
	RCALL __CHKSIGND
	RCALL __MULD12U
	BRTC __MULD121
	RCALL __ANEGD1
__MULD121:
	RET

__DIVW21U:
	CLR  R0
	CLR  R1
	LDI  R25,16
__DIVW21U1:
	LSL  R26
	ROL  R27
	ROL  R0
	ROL  R1
	SUB  R0,R30
	SBC  R1,R31
	BRCC __DIVW21U2
	ADD  R0,R30
	ADC  R1,R31
	RJMP __DIVW21U3
__DIVW21U2:
	SBR  R26,1
__DIVW21U3:
	DEC  R25
	BRNE __DIVW21U1
	MOVW R30,R26
	MOVW R26,R0
	RET

__DIVD21U:
	PUSH R19
	PUSH R20
	PUSH R21
	CLR  R0
	CLR  R1
	CLR  R20
	CLR  R21
	LDI  R19,32
__DIVD21U1:
	LSL  R26
	ROL  R27
	ROL  R24
	ROL  R25
	ROL  R0
	ROL  R1
	ROL  R20
	ROL  R21
	SUB  R0,R30
	SBC  R1,R31
	SBC  R20,R22
	SBC  R21,R23
	BRCC __DIVD21U2
	ADD  R0,R30
	ADC  R1,R31
	ADC  R20,R22
	ADC  R21,R23
	RJMP __DIVD21U3
__DIVD21U2:
	SBR  R26,1
__DIVD21U3:
	DEC  R19
	BRNE __DIVD21U1
	MOVW R30,R26
	MOVW R22,R24
	MOVW R26,R0
	MOVW R24,R20
	POP  R21
	POP  R20
	POP  R19
	RET

__DIVD21:
	RCALL __CHKSIGND
	RCALL __DIVD21U
	BRTC __DIVD211
	RCALL __ANEGD1
__DIVD211:
	RET

__MODW21U:
	RCALL __DIVW21U
	MOVW R30,R26
	RET

__CHKSIGNW:
	CLT
	SBRS R31,7
	RJMP __CHKSW1
	RCALL __ANEGW1
	SET
__CHKSW1:
	SBRS R27,7
	RJMP __CHKSW2
	COM  R26
	COM  R27
	ADIW R26,1
	BLD  R0,0
	INC  R0
	BST  R0,0
__CHKSW2:
	RET

__CHKSIGND:
	CLT
	SBRS R23,7
	RJMP __CHKSD1
	RCALL __ANEGD1
	SET
__CHKSD1:
	SBRS R25,7
	RJMP __CHKSD2
	CLR  R0
	COM  R26
	COM  R27
	COM  R24
	COM  R25
	ADIW R26,1
	ADC  R24,R0
	ADC  R25,R0
	BLD  R0,0
	INC  R0
	BST  R0,0
__CHKSD2:
	RET

__GETW1P:
	LD   R30,X+
	LD   R31,X
	SBIW R26,1
	RET

__GETW1PF:
	LPM  R0,Z+
	LPM  R31,Z
	MOV  R30,R0
	RET

__GETW2PF:
	LPM  R26,Z+
	LPM  R27,Z
	RET

__SWAPW12:
	MOV  R1,R27
	MOV  R27,R31
	MOV  R31,R1

__SWAPB12:
	MOV  R1,R26
	MOV  R26,R30
	MOV  R30,R1
	RET

__EEPROMRDW:
	ADIW R26,1
	RCALL __EEPROMRDB
	MOV  R31,R30
	SBIW R26,1

__EEPROMRDB:
	SBIC EECR,EEWE
	RJMP __EEPROMRDB
	PUSH R31
	IN   R31,SREG
	CLI
	OUT  EEARL,R26
	OUT  EEARH,R27
	SBI  EECR,EERE
	IN   R30,EEDR
	OUT  SREG,R31
	POP  R31
	RET

__EEPROMWRW:
	RCALL __EEPROMWRB
	ADIW R26,1
	PUSH R30
	MOV  R30,R31
	RCALL __EEPROMWRB
	POP  R30
	SBIW R26,1
	RET

__EEPROMWRB:
	SBIS EECR,EEWE
	RJMP __EEPROMWRB1
	WDR
	RJMP __EEPROMWRB
__EEPROMWRB1:
	IN   R25,SREG
	CLI
	OUT  EEARL,R26
	OUT  EEARH,R27
	SBI  EECR,EERE
	IN   R24,EEDR
	CP   R30,R24
	BREQ __EEPROMWRB0
	OUT  EEDR,R30
	SBI  EECR,EEMWE
	SBI  EECR,EEWE
__EEPROMWRB0:
	OUT  SREG,R25
	RET

__CPD21:
	CP   R26,R30
	CPC  R27,R31
	CPC  R24,R22
	CPC  R25,R23
	RET

__SAVELOCR6:
	ST   -Y,R21
__SAVELOCR5:
	ST   -Y,R20
__SAVELOCR4:
	ST   -Y,R19
__SAVELOCR3:
	ST   -Y,R18
__SAVELOCR2:
	ST   -Y,R17
	ST   -Y,R16
	RET

__LOADLOCR6:
	LDD  R21,Y+5
__LOADLOCR5:
	LDD  R20,Y+4
__LOADLOCR4:
	LDD  R19,Y+3
__LOADLOCR3:
	LDD  R18,Y+2
__LOADLOCR2:
	LDD  R17,Y+1
	LD   R16,Y
	RET

;END OF CODE MARKER
__END_OF_CODE:
